
Test.elf:     file format elf32-littlearm

Sections:
Idx Name          Size      VMA       LMA       File off  Algn
  0 .isr_vector   00000188  08000000  08000000  00010000  2**0
                  CONTENTS, ALLOC, LOAD, READONLY, DATA
  1 .text         000057d8  08000188  08000188  00010188  2**2
                  CONTENTS, ALLOC, LOAD, READONLY, CODE
  2 .rodata       00000000  08005960  08005960  00020018  2**0
                  CONTENTS, ALLOC, LOAD, DATA
  3 .init_array   00000004  08005960  08005960  00015960  2**2
                  CONTENTS, ALLOC, LOAD, DATA
  4 .fini_array   00000004  08005964  08005964  00015964  2**2
                  CONTENTS, ALLOC, LOAD, DATA
  5 .data         00000018  20000000  08005968  00020000  2**2
                  CONTENTS, ALLOC, LOAD, DATA
  6 .ccmram       00000000  10000000  10000000  00020018  2**0
                  CONTENTS
  7 .bss          0000001c  20000018  20000018  00020018  2**2
                  ALLOC
  8 ._user_heap_stack 00000400  20000034  20000034  00020018  2**0
                  ALLOC
  9 .ARM.attributes 00000030  00000000  00000000  00020018  2**0
                  CONTENTS, READONLY
 10 .debug_info   00000f86  00000000  00000000  00020048  2**0
                  CONTENTS, READONLY, DEBUGGING
 11 .debug_abbrev 00000482  00000000  00000000  00020fce  2**0
                  CONTENTS, READONLY, DEBUGGING
 12 .debug_aranges 00000138  00000000  00000000  00021450  2**3
                  CONTENTS, READONLY, DEBUGGING
 13 .debug_ranges 000000e0  00000000  00000000  00021588  2**3
                  CONTENTS, READONLY, DEBUGGING
 14 .debug_line   00002f7b  00000000  00000000  00021668  2**0
                  CONTENTS, READONLY, DEBUGGING
 15 .debug_str    00000665  00000000  00000000  000245e3  2**0
                  CONTENTS, READONLY, DEBUGGING
 16 .comment      0000007c  00000000  00000000  00024c48  2**0
                  CONTENTS, READONLY
 17 .debug_frame  000002f4  00000000  00000000  00024cc4  2**2
                  CONTENTS, READONLY, DEBUGGING
 18 .stabstr      0000003f  00000000  00000000  00024fb8  2**0
                  CONTENTS, READONLY, DEBUGGING

Disassembly of section .text:

08000188 <__do_global_dtors_aux>:
 8000188:	b510      	push	{r4, lr}
 800018a:	4c05      	ldr	r4, [pc, #20]	; (80001a0 <__do_global_dtors_aux+0x18>)
 800018c:	7823      	ldrb	r3, [r4, #0]
 800018e:	b933      	cbnz	r3, 800019e <__do_global_dtors_aux+0x16>
 8000190:	4b04      	ldr	r3, [pc, #16]	; (80001a4 <__do_global_dtors_aux+0x1c>)
 8000192:	b113      	cbz	r3, 800019a <__do_global_dtors_aux+0x12>
 8000194:	4804      	ldr	r0, [pc, #16]	; (80001a8 <__do_global_dtors_aux+0x20>)
 8000196:	f3af 8000 	nop.w
 800019a:	2301      	movs	r3, #1
 800019c:	7023      	strb	r3, [r4, #0]
 800019e:	bd10      	pop	{r4, pc}
 80001a0:	20000018 	.word	0x20000018
 80001a4:	00000000 	.word	0x00000000
 80001a8:	08005948 	.word	0x08005948

080001ac <frame_dummy>:
 80001ac:	b508      	push	{r3, lr}
 80001ae:	4b03      	ldr	r3, [pc, #12]	; (80001bc <frame_dummy+0x10>)
 80001b0:	b11b      	cbz	r3, 80001ba <frame_dummy+0xe>
 80001b2:	4903      	ldr	r1, [pc, #12]	; (80001c0 <frame_dummy+0x14>)
 80001b4:	4803      	ldr	r0, [pc, #12]	; (80001c4 <frame_dummy+0x18>)
 80001b6:	f3af 8000 	nop.w
 80001ba:	bd08      	pop	{r3, pc}
 80001bc:	00000000 	.word	0x00000000
 80001c0:	2000001c 	.word	0x2000001c
 80001c4:	08005948 	.word	0x08005948

080001c8 <delay_ms>:
//#include "stm32f4xx.h"

#define DELAY_COUNT    ( 50000 )

static void delay_ms( void )
{
 80001c8:	b480      	push	{r7}
 80001ca:	b083      	sub	sp, #12
 80001cc:	af00      	add	r7, sp, #0
    u32 i = 0;
 80001ce:	2300      	movs	r3, #0
 80001d0:	607b      	str	r3, [r7, #4]
    for( i=0; i<=DELAY_COUNT; i++ );
 80001d2:	2300      	movs	r3, #0
 80001d4:	607b      	str	r3, [r7, #4]
 80001d6:	e002      	b.n	80001de <delay_ms+0x16>
 80001d8:	687b      	ldr	r3, [r7, #4]
 80001da:	3301      	adds	r3, #1
 80001dc:	607b      	str	r3, [r7, #4]
 80001de:	687b      	ldr	r3, [r7, #4]
 80001e0:	f24c 3250 	movw	r2, #50000	; 0xc350
 80001e4:	4293      	cmp	r3, r2
 80001e6:	d9f7      	bls.n	80001d8 <delay_ms+0x10>
}
 80001e8:	bf00      	nop
 80001ea:	370c      	adds	r7, #12
 80001ec:	46bd      	mov	sp, r7
 80001ee:	f85d 7b04 	ldr.w	r7, [sp], #4
 80001f2:	4770      	bx	lr

080001f4 <main>:

u8 pin[]={Pin_0,Pin_1,Pin_2,Pin_3,Pin_4,Pin_5,Pin_6,Pin_7,Pin_8,Pin_9,Pin_10,Pin_11,Pin_12,Pin_13,Pin_14,Pin_15};
u8 port[]={Port_A,Port_B,Port_C,Port_D,Port_E};
int main(void)
{
 80001f4:	b580      	push	{r7, lr}
 80001f6:	b082      	sub	sp, #8
 80001f8:	af00      	add	r7, sp, #0
	for(u8 c=0;c<5;c++)
 80001fa:	2300      	movs	r3, #0
 80001fc:	71fb      	strb	r3, [r7, #7]
 80001fe:	e015      	b.n	800022c <main+0x38>
	  for(u8 i=0;i<16;i++)
 8000200:	2300      	movs	r3, #0
 8000202:	71bb      	strb	r3, [r7, #6]
 8000204:	e00c      	b.n	8000220 <main+0x2c>
		  GPIO_VidPin_Mode_Output(port[c],pin[i],Push_Pull,Low_Speed);
 8000206:	79fb      	ldrb	r3, [r7, #7]
 8000208:	4a28      	ldr	r2, [pc, #160]	; (80002ac <main+0xb8>)
 800020a:	5cd0      	ldrb	r0, [r2, r3]
 800020c:	79bb      	ldrb	r3, [r7, #6]
 800020e:	4a28      	ldr	r2, [pc, #160]	; (80002b0 <main+0xbc>)
 8000210:	5cd1      	ldrb	r1, [r2, r3]
 8000212:	2304      	movs	r3, #4
 8000214:	2208      	movs	r2, #8
 8000216:	f001 f81b 	bl	8001250 <GPIO_VidPin_Mode_Output>
	  for(u8 i=0;i<16;i++)
 800021a:	79bb      	ldrb	r3, [r7, #6]
 800021c:	3301      	adds	r3, #1
 800021e:	71bb      	strb	r3, [r7, #6]
 8000220:	79bb      	ldrb	r3, [r7, #6]
 8000222:	2b0f      	cmp	r3, #15
 8000224:	d9ef      	bls.n	8000206 <main+0x12>
	for(u8 c=0;c<5;c++)
 8000226:	79fb      	ldrb	r3, [r7, #7]
 8000228:	3301      	adds	r3, #1
 800022a:	71fb      	strb	r3, [r7, #7]
 800022c:	79fb      	ldrb	r3, [r7, #7]
 800022e:	2b04      	cmp	r3, #4
 8000230:	d9e6      	bls.n	8000200 <main+0xc>
	while(1)
	{
		for(u8 c=0;c<5;c++)
 8000232:	2300      	movs	r3, #0
 8000234:	717b      	strb	r3, [r7, #5]
 8000236:	e015      	b.n	8000264 <main+0x70>
		{
			for(u8 i=0;i<16;i++)GPIO_VidSet_Pin(port[c],pin[i],Hi);
 8000238:	2300      	movs	r3, #0
 800023a:	713b      	strb	r3, [r7, #4]
 800023c:	e00c      	b.n	8000258 <main+0x64>
 800023e:	797b      	ldrb	r3, [r7, #5]
 8000240:	4a1a      	ldr	r2, [pc, #104]	; (80002ac <main+0xb8>)
 8000242:	5cd0      	ldrb	r0, [r2, r3]
 8000244:	793b      	ldrb	r3, [r7, #4]
 8000246:	4a1a      	ldr	r2, [pc, #104]	; (80002b0 <main+0xbc>)
 8000248:	5cd3      	ldrb	r3, [r2, r3]
 800024a:	220d      	movs	r2, #13
 800024c:	4619      	mov	r1, r3
 800024e:	f000 f9b1 	bl	80005b4 <GPIO_VidSet_Pin>
 8000252:	793b      	ldrb	r3, [r7, #4]
 8000254:	3301      	adds	r3, #1
 8000256:	713b      	strb	r3, [r7, #4]
 8000258:	793b      	ldrb	r3, [r7, #4]
 800025a:	2b0f      	cmp	r3, #15
 800025c:	d9ef      	bls.n	800023e <main+0x4a>
		for(u8 c=0;c<5;c++)
 800025e:	797b      	ldrb	r3, [r7, #5]
 8000260:	3301      	adds	r3, #1
 8000262:	717b      	strb	r3, [r7, #5]
 8000264:	797b      	ldrb	r3, [r7, #5]
 8000266:	2b04      	cmp	r3, #4
 8000268:	d9e6      	bls.n	8000238 <main+0x44>
		}
		delay_ms();
 800026a:	f7ff ffad 	bl	80001c8 <delay_ms>
		for(u8 c=0;c<5;c++)
 800026e:	2300      	movs	r3, #0
 8000270:	70fb      	strb	r3, [r7, #3]
 8000272:	e015      	b.n	80002a0 <main+0xac>
		{
			for(u8 i=0;i<16;i++)GPIO_VidSet_Pin(port[c],pin[i],Low);
 8000274:	2300      	movs	r3, #0
 8000276:	70bb      	strb	r3, [r7, #2]
 8000278:	e00c      	b.n	8000294 <main+0xa0>
 800027a:	78fb      	ldrb	r3, [r7, #3]
 800027c:	4a0b      	ldr	r2, [pc, #44]	; (80002ac <main+0xb8>)
 800027e:	5cd0      	ldrb	r0, [r2, r3]
 8000280:	78bb      	ldrb	r3, [r7, #2]
 8000282:	4a0b      	ldr	r2, [pc, #44]	; (80002b0 <main+0xbc>)
 8000284:	5cd3      	ldrb	r3, [r2, r3]
 8000286:	220e      	movs	r2, #14
 8000288:	4619      	mov	r1, r3
 800028a:	f000 f993 	bl	80005b4 <GPIO_VidSet_Pin>
 800028e:	78bb      	ldrb	r3, [r7, #2]
 8000290:	3301      	adds	r3, #1
 8000292:	70bb      	strb	r3, [r7, #2]
 8000294:	78bb      	ldrb	r3, [r7, #2]
 8000296:	2b0f      	cmp	r3, #15
 8000298:	d9ef      	bls.n	800027a <main+0x86>
		for(u8 c=0;c<5;c++)
 800029a:	78fb      	ldrb	r3, [r7, #3]
 800029c:	3301      	adds	r3, #1
 800029e:	70fb      	strb	r3, [r7, #3]
 80002a0:	78fb      	ldrb	r3, [r7, #3]
 80002a2:	2b04      	cmp	r3, #4
 80002a4:	d9e6      	bls.n	8000274 <main+0x80>
		}
		delay_ms();
 80002a6:	f7ff ff8f 	bl	80001c8 <delay_ms>
		for(u8 c=0;c<5;c++)
 80002aa:	e7c2      	b.n	8000232 <main+0x3e>
 80002ac:	20000010 	.word	0x20000010
 80002b0:	20000000 	.word	0x20000000

080002b4 <Reset_Handler>:

    .section  .text.Reset_Handler
  .weak  Reset_Handler
  .type  Reset_Handler, %function
Reset_Handler:  
  ldr   sp, =_estack    /* Atollic update: set stack pointer */
 80002b4:	f8df d034 	ldr.w	sp, [pc, #52]	; 80002ec <LoopFillZerobss+0x14>

/* Copy the data segment initializers from flash to SRAM */  
  movs  r1, #0
 80002b8:	2100      	movs	r1, #0
  b  LoopCopyDataInit
 80002ba:	e003      	b.n	80002c4 <LoopCopyDataInit>

080002bc <CopyDataInit>:

CopyDataInit:
  ldr  r3, =_sidata
 80002bc:	4b0c      	ldr	r3, [pc, #48]	; (80002f0 <LoopFillZerobss+0x18>)
  ldr  r3, [r3, r1]
 80002be:	585b      	ldr	r3, [r3, r1]
  str  r3, [r0, r1]
 80002c0:	5043      	str	r3, [r0, r1]
  adds  r1, r1, #4
 80002c2:	3104      	adds	r1, #4

080002c4 <LoopCopyDataInit>:
    
LoopCopyDataInit:
  ldr  r0, =_sdata
 80002c4:	480b      	ldr	r0, [pc, #44]	; (80002f4 <LoopFillZerobss+0x1c>)
  ldr  r3, =_edata
 80002c6:	4b0c      	ldr	r3, [pc, #48]	; (80002f8 <LoopFillZerobss+0x20>)
  adds  r2, r0, r1
 80002c8:	1842      	adds	r2, r0, r1
  cmp  r2, r3
 80002ca:	429a      	cmp	r2, r3
  bcc  CopyDataInit
 80002cc:	d3f6      	bcc.n	80002bc <CopyDataInit>
  ldr  r2, =_sbss
 80002ce:	4a0b      	ldr	r2, [pc, #44]	; (80002fc <LoopFillZerobss+0x24>)
  b  LoopFillZerobss
 80002d0:	e002      	b.n	80002d8 <LoopFillZerobss>

080002d2 <FillZerobss>:
/* Zero fill the bss segment. */  
FillZerobss:
  movs  r3, #0
 80002d2:	2300      	movs	r3, #0
  str  r3, [r2], #4
 80002d4:	f842 3b04 	str.w	r3, [r2], #4

080002d8 <LoopFillZerobss>:
    
LoopFillZerobss:
  ldr  r3, = _ebss
 80002d8:	4b09      	ldr	r3, [pc, #36]	; (8000300 <LoopFillZerobss+0x28>)
  cmp  r2, r3
 80002da:	429a      	cmp	r2, r3
  bcc  FillZerobss
 80002dc:	d3f9      	bcc.n	80002d2 <FillZerobss>

/* Call the clock system intitialization function.*/
  bl  SystemInit   
 80002de:	f000 f841 	bl	8000364 <SystemInit>
/* Call static constructors */
    bl __libc_init_array
 80002e2:	f005 fb0d 	bl	8005900 <__libc_init_array>
/* Call the application's entry point.*/
  bl  main
 80002e6:	f7ff ff85 	bl	80001f4 <main>
  bx  lr    
 80002ea:	4770      	bx	lr
  ldr   sp, =_estack    /* Atollic update: set stack pointer */
 80002ec:	20018000 	.word	0x20018000
  ldr  r3, =_sidata
 80002f0:	08005968 	.word	0x08005968
  ldr  r0, =_sdata
 80002f4:	20000000 	.word	0x20000000
  ldr  r3, =_edata
 80002f8:	20000018 	.word	0x20000018
  ldr  r2, =_sbss
 80002fc:	20000018 	.word	0x20000018
  ldr  r3, = _ebss
 8000300:	20000034 	.word	0x20000034

08000304 <ADC_IRQHandler>:
 * @retval None       
*/
    .section  .text.Default_Handler,"ax",%progbits
Default_Handler:
Infinite_Loop:
  b  Infinite_Loop
 8000304:	e7fe      	b.n	8000304 <ADC_IRQHandler>

08000306 <NMI_Handler>:
  * @brief   This function handles NMI exception.
  * @param  None
  * @retval None
  */
void NMI_Handler(void)
{
 8000306:	b480      	push	{r7}
 8000308:	af00      	add	r7, sp, #0
}
 800030a:	bf00      	nop
 800030c:	46bd      	mov	sp, r7
 800030e:	f85d 7b04 	ldr.w	r7, [sp], #4
 8000312:	4770      	bx	lr

08000314 <HardFault_Handler>:
  * @brief  This function handles Hard Fault exception.
  * @param  None
  * @retval None
  */
void HardFault_Handler(void)
{
 8000314:	b480      	push	{r7}
 8000316:	af00      	add	r7, sp, #0
  /* Go to infinite loop when Hard Fault exception occurs */
  while (1)
 8000318:	e7fe      	b.n	8000318 <HardFault_Handler+0x4>

0800031a <MemManage_Handler>:
  * @brief  This function handles Memory Manage exception.
  * @param  None
  * @retval None
  */
void MemManage_Handler(void)
{
 800031a:	b480      	push	{r7}
 800031c:	af00      	add	r7, sp, #0
  /* Go to infinite loop when Memory Manage exception occurs */
  while (1)
 800031e:	e7fe      	b.n	800031e <MemManage_Handler+0x4>

08000320 <BusFault_Handler>:
  * @brief  This function handles Bus Fault exception.
  * @param  None
  * @retval None
  */
void BusFault_Handler(void)
{
 8000320:	b480      	push	{r7}
 8000322:	af00      	add	r7, sp, #0
  /* Go to infinite loop when Bus Fault exception occurs */
  while (1)
 8000324:	e7fe      	b.n	8000324 <BusFault_Handler+0x4>

08000326 <UsageFault_Handler>:
  * @brief  This function handles Usage Fault exception.
  * @param  None
  * @retval None
  */
void UsageFault_Handler(void)
{
 8000326:	b480      	push	{r7}
 8000328:	af00      	add	r7, sp, #0
  /* Go to infinite loop when Usage Fault exception occurs */
  while (1)
 800032a:	e7fe      	b.n	800032a <UsageFault_Handler+0x4>

0800032c <SVC_Handler>:
  * @brief  This function handles SVCall exception.
  * @param  None
  * @retval None
  */
void SVC_Handler(void)
{
 800032c:	b480      	push	{r7}
 800032e:	af00      	add	r7, sp, #0
}
 8000330:	bf00      	nop
 8000332:	46bd      	mov	sp, r7
 8000334:	f85d 7b04 	ldr.w	r7, [sp], #4
 8000338:	4770      	bx	lr

0800033a <DebugMon_Handler>:
  * @brief  This function handles Debug Monitor exception.
  * @param  None
  * @retval None
  */
void DebugMon_Handler(void)
{
 800033a:	b480      	push	{r7}
 800033c:	af00      	add	r7, sp, #0
}
 800033e:	bf00      	nop
 8000340:	46bd      	mov	sp, r7
 8000342:	f85d 7b04 	ldr.w	r7, [sp], #4
 8000346:	4770      	bx	lr

08000348 <PendSV_Handler>:
  * @brief  This function handles PendSVC exception.
  * @param  None
  * @retval None
  */
void PendSV_Handler(void)
{
 8000348:	b480      	push	{r7}
 800034a:	af00      	add	r7, sp, #0
}
 800034c:	bf00      	nop
 800034e:	46bd      	mov	sp, r7
 8000350:	f85d 7b04 	ldr.w	r7, [sp], #4
 8000354:	4770      	bx	lr

08000356 <SysTick_Handler>:
  * @brief  This function handles SysTick Handler.
  * @param  None
  * @retval None
  */
void SysTick_Handler(void)
{
 8000356:	b480      	push	{r7}
 8000358:	af00      	add	r7, sp, #0
/*  TimingDelay_Decrement(); */
}
 800035a:	bf00      	nop
 800035c:	46bd      	mov	sp, r7
 800035e:	f85d 7b04 	ldr.w	r7, [sp], #4
 8000362:	4770      	bx	lr

08000364 <SystemInit>:
  *         SystemFrequency variable.
  * @param  None
  * @retval None
  */
void SystemInit(void)
{
 8000364:	b580      	push	{r7, lr}
 8000366:	af00      	add	r7, sp, #0
  /* FPU settings ------------------------------------------------------------*/
  #if (__FPU_PRESENT == 1) && (__FPU_USED == 1)
    SCB->CPACR |= ((3UL << 10*2)|(3UL << 11*2));  /* set CP10 and CP11 Full Access */
 8000368:	4a16      	ldr	r2, [pc, #88]	; (80003c4 <SystemInit+0x60>)
 800036a:	4b16      	ldr	r3, [pc, #88]	; (80003c4 <SystemInit+0x60>)
 800036c:	f8d3 3088 	ldr.w	r3, [r3, #136]	; 0x88
 8000370:	f443 0370 	orr.w	r3, r3, #15728640	; 0xf00000
 8000374:	f8c2 3088 	str.w	r3, [r2, #136]	; 0x88
  #endif
  /* Reset the RCC clock configuration to the default reset state ------------*/
  /* Set HSION bit */
  RCC->CR |= (uint32_t)0x00000001;
 8000378:	4a13      	ldr	r2, [pc, #76]	; (80003c8 <SystemInit+0x64>)
 800037a:	4b13      	ldr	r3, [pc, #76]	; (80003c8 <SystemInit+0x64>)
 800037c:	681b      	ldr	r3, [r3, #0]
 800037e:	f043 0301 	orr.w	r3, r3, #1
 8000382:	6013      	str	r3, [r2, #0]

  /* Reset CFGR register */
  RCC->CFGR = 0x00000000;
 8000384:	4b10      	ldr	r3, [pc, #64]	; (80003c8 <SystemInit+0x64>)
 8000386:	2200      	movs	r2, #0
 8000388:	609a      	str	r2, [r3, #8]

  /* Reset HSEON, CSSON and PLLON bits */
  RCC->CR &= (uint32_t)0xFEF6FFFF;
 800038a:	4a0f      	ldr	r2, [pc, #60]	; (80003c8 <SystemInit+0x64>)
 800038c:	4b0e      	ldr	r3, [pc, #56]	; (80003c8 <SystemInit+0x64>)
 800038e:	681b      	ldr	r3, [r3, #0]
 8000390:	f023 7384 	bic.w	r3, r3, #17301504	; 0x1080000
 8000394:	f423 3380 	bic.w	r3, r3, #65536	; 0x10000
 8000398:	6013      	str	r3, [r2, #0]

  /* Reset PLLCFGR register */
  RCC->PLLCFGR = 0x24003010;
 800039a:	4b0b      	ldr	r3, [pc, #44]	; (80003c8 <SystemInit+0x64>)
 800039c:	4a0b      	ldr	r2, [pc, #44]	; (80003cc <SystemInit+0x68>)
 800039e:	605a      	str	r2, [r3, #4]

  /* Reset HSEBYP bit */
  RCC->CR &= (uint32_t)0xFFFBFFFF;
 80003a0:	4a09      	ldr	r2, [pc, #36]	; (80003c8 <SystemInit+0x64>)
 80003a2:	4b09      	ldr	r3, [pc, #36]	; (80003c8 <SystemInit+0x64>)
 80003a4:	681b      	ldr	r3, [r3, #0]
 80003a6:	f423 2380 	bic.w	r3, r3, #262144	; 0x40000
 80003aa:	6013      	str	r3, [r2, #0]

  /* Disable all interrupts */
  RCC->CIR = 0x00000000;
 80003ac:	4b06      	ldr	r3, [pc, #24]	; (80003c8 <SystemInit+0x64>)
 80003ae:	2200      	movs	r2, #0
 80003b0:	60da      	str	r2, [r3, #12]
  SystemInit_ExtMemCtl(); 
#endif /* DATA_IN_ExtSRAM */
         
  /* Configure the System clock source, PLL Multiplier and Divider factors, 
     AHB/APBx prescalers and Flash settings ----------------------------------*/
  SetSysClock();
 80003b2:	f000 f80d 	bl	80003d0 <SetSysClock>

  /* Configure the Vector Table location add offset address ------------------*/
#ifdef VECT_TAB_SRAM
  SCB->VTOR = SRAM_BASE | VECT_TAB_OFFSET; /* Vector Table Relocation in Internal SRAM */
#else
  SCB->VTOR = FLASH_BASE | VECT_TAB_OFFSET; /* Vector Table Relocation in Internal FLASH */
 80003b6:	4b03      	ldr	r3, [pc, #12]	; (80003c4 <SystemInit+0x60>)
 80003b8:	f04f 6200 	mov.w	r2, #134217728	; 0x8000000
 80003bc:	609a      	str	r2, [r3, #8]
#endif
}
 80003be:	bf00      	nop
 80003c0:	bd80      	pop	{r7, pc}
 80003c2:	bf00      	nop
 80003c4:	e000ed00 	.word	0xe000ed00
 80003c8:	40023800 	.word	0x40023800
 80003cc:	24003010 	.word	0x24003010

080003d0 <SetSysClock>:
  *         is reset to the default reset state (done in SystemInit() function).   
  * @param  None
  * @retval None
  */
static void SetSysClock(void)
{
 80003d0:	b480      	push	{r7}
 80003d2:	b083      	sub	sp, #12
 80003d4:	af00      	add	r7, sp, #0
/******************************************************************************/
/*            PLL (clocked by HSE) used as System clock source                */
/******************************************************************************/
  __IO uint32_t StartUpCounter = 0, HSEStatus = 0;
 80003d6:	2300      	movs	r3, #0
 80003d8:	607b      	str	r3, [r7, #4]
 80003da:	2300      	movs	r3, #0
 80003dc:	603b      	str	r3, [r7, #0]
  
  /* Enable HSE */
  RCC->CR |= ((uint32_t)RCC_CR_HSEON);
 80003de:	4a36      	ldr	r2, [pc, #216]	; (80004b8 <SetSysClock+0xe8>)
 80003e0:	4b35      	ldr	r3, [pc, #212]	; (80004b8 <SetSysClock+0xe8>)
 80003e2:	681b      	ldr	r3, [r3, #0]
 80003e4:	f443 3380 	orr.w	r3, r3, #65536	; 0x10000
 80003e8:	6013      	str	r3, [r2, #0]
 
  /* Wait till HSE is ready and if Time out is reached exit */
  do
  {
    HSEStatus = RCC->CR & RCC_CR_HSERDY;
 80003ea:	4b33      	ldr	r3, [pc, #204]	; (80004b8 <SetSysClock+0xe8>)
 80003ec:	681b      	ldr	r3, [r3, #0]
 80003ee:	f403 3300 	and.w	r3, r3, #131072	; 0x20000
 80003f2:	603b      	str	r3, [r7, #0]
    StartUpCounter++;
 80003f4:	687b      	ldr	r3, [r7, #4]
 80003f6:	3301      	adds	r3, #1
 80003f8:	607b      	str	r3, [r7, #4]
  } while((HSEStatus == 0) && (StartUpCounter != HSE_STARTUP_TIMEOUT));
 80003fa:	683b      	ldr	r3, [r7, #0]
 80003fc:	2b00      	cmp	r3, #0
 80003fe:	d103      	bne.n	8000408 <SetSysClock+0x38>
 8000400:	687b      	ldr	r3, [r7, #4]
 8000402:	f5b3 6fa0 	cmp.w	r3, #1280	; 0x500
 8000406:	d1f0      	bne.n	80003ea <SetSysClock+0x1a>

  if ((RCC->CR & RCC_CR_HSERDY) != RESET)
 8000408:	4b2b      	ldr	r3, [pc, #172]	; (80004b8 <SetSysClock+0xe8>)
 800040a:	681b      	ldr	r3, [r3, #0]
 800040c:	f403 3300 	and.w	r3, r3, #131072	; 0x20000
 8000410:	2b00      	cmp	r3, #0
 8000412:	d002      	beq.n	800041a <SetSysClock+0x4a>
  {
    HSEStatus = (uint32_t)0x01;
 8000414:	2301      	movs	r3, #1
 8000416:	603b      	str	r3, [r7, #0]
 8000418:	e001      	b.n	800041e <SetSysClock+0x4e>
  }
  else
  {
    HSEStatus = (uint32_t)0x00;
 800041a:	2300      	movs	r3, #0
 800041c:	603b      	str	r3, [r7, #0]
  }

  if (HSEStatus == (uint32_t)0x01)
 800041e:	683b      	ldr	r3, [r7, #0]
 8000420:	2b01      	cmp	r3, #1
 8000422:	d142      	bne.n	80004aa <SetSysClock+0xda>
  {
    /* Select regulator voltage output Scale 1 mode, System frequency up to 168 MHz */
    RCC->APB1ENR |= RCC_APB1ENR_PWREN;
 8000424:	4a24      	ldr	r2, [pc, #144]	; (80004b8 <SetSysClock+0xe8>)
 8000426:	4b24      	ldr	r3, [pc, #144]	; (80004b8 <SetSysClock+0xe8>)
 8000428:	6c1b      	ldr	r3, [r3, #64]	; 0x40
 800042a:	f043 5380 	orr.w	r3, r3, #268435456	; 0x10000000
 800042e:	6413      	str	r3, [r2, #64]	; 0x40
    PWR->CR |= PWR_CR_VOS;
 8000430:	4a22      	ldr	r2, [pc, #136]	; (80004bc <SetSysClock+0xec>)
 8000432:	4b22      	ldr	r3, [pc, #136]	; (80004bc <SetSysClock+0xec>)
 8000434:	681b      	ldr	r3, [r3, #0]
 8000436:	f443 4340 	orr.w	r3, r3, #49152	; 0xc000
 800043a:	6013      	str	r3, [r2, #0]

    /* HCLK = SYSCLK / 1*/
    RCC->CFGR |= RCC_CFGR_HPRE_DIV1;
 800043c:	4a1e      	ldr	r2, [pc, #120]	; (80004b8 <SetSysClock+0xe8>)
 800043e:	4b1e      	ldr	r3, [pc, #120]	; (80004b8 <SetSysClock+0xe8>)
 8000440:	689b      	ldr	r3, [r3, #8]
 8000442:	6093      	str	r3, [r2, #8]
      
    /* PCLK2 = HCLK / 2*/
    RCC->CFGR |= RCC_CFGR_PPRE2_DIV2;
 8000444:	4a1c      	ldr	r2, [pc, #112]	; (80004b8 <SetSysClock+0xe8>)
 8000446:	4b1c      	ldr	r3, [pc, #112]	; (80004b8 <SetSysClock+0xe8>)
 8000448:	689b      	ldr	r3, [r3, #8]
 800044a:	f443 4300 	orr.w	r3, r3, #32768	; 0x8000
 800044e:	6093      	str	r3, [r2, #8]
    
    /* PCLK1 = HCLK / 4*/
    RCC->CFGR |= RCC_CFGR_PPRE1_DIV4;
 8000450:	4a19      	ldr	r2, [pc, #100]	; (80004b8 <SetSysClock+0xe8>)
 8000452:	4b19      	ldr	r3, [pc, #100]	; (80004b8 <SetSysClock+0xe8>)
 8000454:	689b      	ldr	r3, [r3, #8]
 8000456:	f443 53a0 	orr.w	r3, r3, #5120	; 0x1400
 800045a:	6093      	str	r3, [r2, #8]

    /* Configure the main PLL */
    RCC->PLLCFGR = PLL_M | (PLL_N << 6) | (((PLL_P >> 1) -1) << 16) |
 800045c:	4b16      	ldr	r3, [pc, #88]	; (80004b8 <SetSysClock+0xe8>)
 800045e:	4a18      	ldr	r2, [pc, #96]	; (80004c0 <SetSysClock+0xf0>)
 8000460:	605a      	str	r2, [r3, #4]
                   (RCC_PLLCFGR_PLLSRC_HSE) | (PLL_Q << 24);

    /* Enable the main PLL */
    RCC->CR |= RCC_CR_PLLON;
 8000462:	4a15      	ldr	r2, [pc, #84]	; (80004b8 <SetSysClock+0xe8>)
 8000464:	4b14      	ldr	r3, [pc, #80]	; (80004b8 <SetSysClock+0xe8>)
 8000466:	681b      	ldr	r3, [r3, #0]
 8000468:	f043 7380 	orr.w	r3, r3, #16777216	; 0x1000000
 800046c:	6013      	str	r3, [r2, #0]

    /* Wait till the main PLL is ready */
    while((RCC->CR & RCC_CR_PLLRDY) == 0)
 800046e:	bf00      	nop
 8000470:	4b11      	ldr	r3, [pc, #68]	; (80004b8 <SetSysClock+0xe8>)
 8000472:	681b      	ldr	r3, [r3, #0]
 8000474:	f003 7300 	and.w	r3, r3, #33554432	; 0x2000000
 8000478:	2b00      	cmp	r3, #0
 800047a:	d0f9      	beq.n	8000470 <SetSysClock+0xa0>
    {
    }
   
    /* Configure Flash prefetch, Instruction cache, Data cache and wait state */
    FLASH->ACR = FLASH_ACR_PRFTEN |FLASH_ACR_ICEN |FLASH_ACR_DCEN |FLASH_ACR_LATENCY_5WS;
 800047c:	4b11      	ldr	r3, [pc, #68]	; (80004c4 <SetSysClock+0xf4>)
 800047e:	f240 7205 	movw	r2, #1797	; 0x705
 8000482:	601a      	str	r2, [r3, #0]

    /* Select the main PLL as system clock source */
    RCC->CFGR &= (uint32_t)((uint32_t)~(RCC_CFGR_SW));
 8000484:	4a0c      	ldr	r2, [pc, #48]	; (80004b8 <SetSysClock+0xe8>)
 8000486:	4b0c      	ldr	r3, [pc, #48]	; (80004b8 <SetSysClock+0xe8>)
 8000488:	689b      	ldr	r3, [r3, #8]
 800048a:	f023 0303 	bic.w	r3, r3, #3
 800048e:	6093      	str	r3, [r2, #8]
    RCC->CFGR |= RCC_CFGR_SW_PLL;
 8000490:	4a09      	ldr	r2, [pc, #36]	; (80004b8 <SetSysClock+0xe8>)
 8000492:	4b09      	ldr	r3, [pc, #36]	; (80004b8 <SetSysClock+0xe8>)
 8000494:	689b      	ldr	r3, [r3, #8]
 8000496:	f043 0302 	orr.w	r3, r3, #2
 800049a:	6093      	str	r3, [r2, #8]

    /* Wait till the main PLL is used as system clock source */
    while ((RCC->CFGR & (uint32_t)RCC_CFGR_SWS ) != RCC_CFGR_SWS_PLL);
 800049c:	bf00      	nop
 800049e:	4b06      	ldr	r3, [pc, #24]	; (80004b8 <SetSysClock+0xe8>)
 80004a0:	689b      	ldr	r3, [r3, #8]
 80004a2:	f003 030c 	and.w	r3, r3, #12
 80004a6:	2b08      	cmp	r3, #8
 80004a8:	d1f9      	bne.n	800049e <SetSysClock+0xce>
  else
  { /* If HSE fails to start-up, the application will have wrong clock
         configuration. User can add here some code to deal with this error */
  }

}
 80004aa:	bf00      	nop
 80004ac:	370c      	adds	r7, #12
 80004ae:	46bd      	mov	sp, r7
 80004b0:	f85d 7b04 	ldr.w	r7, [sp], #4
 80004b4:	4770      	bx	lr
 80004b6:	bf00      	nop
 80004b8:	40023800 	.word	0x40023800
 80004bc:	40007000 	.word	0x40007000
 80004c0:	07405419 	.word	0x07405419
 80004c4:	40023c00 	.word	0x40023c00

080004c8 <RCC_VidPort_Clock>:
/*------------------------------- INCLUDE -------------------------------*/
#include "RCC_Interface.h"
/*------------------------- Edit Clock To Port -------------------------*/
void RCC_VidPort_Clock(u8 Copy_u8Port,u8 Copy_u8State)		/*ENABLE CLOCK TO GPIO PORTS*/
{
 80004c8:	b480      	push	{r7}
 80004ca:	b083      	sub	sp, #12
 80004cc:	af00      	add	r7, sp, #0
 80004ce:	4603      	mov	r3, r0
 80004d0:	460a      	mov	r2, r1
 80004d2:	71fb      	strb	r3, [r7, #7]
 80004d4:	4613      	mov	r3, r2
 80004d6:	71bb      	strb	r3, [r7, #6]
	switch(Copy_u8Port)
 80004d8:	79fb      	ldrb	r3, [r7, #7]
 80004da:	2b04      	cmp	r3, #4
 80004dc:	d861      	bhi.n	80005a2 <RCC_VidPort_Clock+0xda>
 80004de:	a201      	add	r2, pc, #4	; (adr r2, 80004e4 <RCC_VidPort_Clock+0x1c>)
 80004e0:	f852 f023 	ldr.w	pc, [r2, r3, lsl #2]
 80004e4:	080004f9 	.word	0x080004f9
 80004e8:	0800051b 	.word	0x0800051b
 80004ec:	0800053d 	.word	0x0800053d
 80004f0:	0800055f 	.word	0x0800055f
 80004f4:	08000581 	.word	0x08000581
	{
		case(Port_A):
				if(Copy_u8State==Clock_Enable) Set_Bit(RESET_CONTROL->AHB1ENR, RCC_AHB1ENR_GPIOAEN);
 80004f8:	79bb      	ldrb	r3, [r7, #6]
 80004fa:	2b01      	cmp	r3, #1
 80004fc:	d106      	bne.n	800050c <RCC_VidPort_Clock+0x44>
 80004fe:	4a2c      	ldr	r2, [pc, #176]	; (80005b0 <RCC_VidPort_Clock+0xe8>)
 8000500:	4b2b      	ldr	r3, [pc, #172]	; (80005b0 <RCC_VidPort_Clock+0xe8>)
 8000502:	6b1b      	ldr	r3, [r3, #48]	; 0x30
 8000504:	f043 0301 	orr.w	r3, r3, #1
 8000508:	6313      	str	r3, [r2, #48]	; 0x30
				else Clear_Bit(RESET_CONTROL->AHB1ENR, RCC_AHB1ENR_GPIOAEN);
				break;
 800050a:	e04b      	b.n	80005a4 <RCC_VidPort_Clock+0xdc>
				else Clear_Bit(RESET_CONTROL->AHB1ENR, RCC_AHB1ENR_GPIOAEN);
 800050c:	4a28      	ldr	r2, [pc, #160]	; (80005b0 <RCC_VidPort_Clock+0xe8>)
 800050e:	4b28      	ldr	r3, [pc, #160]	; (80005b0 <RCC_VidPort_Clock+0xe8>)
 8000510:	6b1b      	ldr	r3, [r3, #48]	; 0x30
 8000512:	f023 0301 	bic.w	r3, r3, #1
 8000516:	6313      	str	r3, [r2, #48]	; 0x30
				break;
 8000518:	e044      	b.n	80005a4 <RCC_VidPort_Clock+0xdc>
		case(Port_B):
				if(Copy_u8State==Clock_Enable) Set_Bit(RESET_CONTROL->AHB1ENR,RCC_AHB1ENR_GPIOBEN);
 800051a:	79bb      	ldrb	r3, [r7, #6]
 800051c:	2b01      	cmp	r3, #1
 800051e:	d106      	bne.n	800052e <RCC_VidPort_Clock+0x66>
 8000520:	4a23      	ldr	r2, [pc, #140]	; (80005b0 <RCC_VidPort_Clock+0xe8>)
 8000522:	4b23      	ldr	r3, [pc, #140]	; (80005b0 <RCC_VidPort_Clock+0xe8>)
 8000524:	6b1b      	ldr	r3, [r3, #48]	; 0x30
 8000526:	f043 0302 	orr.w	r3, r3, #2
 800052a:	6313      	str	r3, [r2, #48]	; 0x30
				else Clear_Bit(RESET_CONTROL->AHB1ENR,RCC_AHB1ENR_GPIOBEN);
				break;
 800052c:	e03a      	b.n	80005a4 <RCC_VidPort_Clock+0xdc>
				else Clear_Bit(RESET_CONTROL->AHB1ENR,RCC_AHB1ENR_GPIOBEN);
 800052e:	4a20      	ldr	r2, [pc, #128]	; (80005b0 <RCC_VidPort_Clock+0xe8>)
 8000530:	4b1f      	ldr	r3, [pc, #124]	; (80005b0 <RCC_VidPort_Clock+0xe8>)
 8000532:	6b1b      	ldr	r3, [r3, #48]	; 0x30
 8000534:	f023 0302 	bic.w	r3, r3, #2
 8000538:	6313      	str	r3, [r2, #48]	; 0x30
				break;
 800053a:	e033      	b.n	80005a4 <RCC_VidPort_Clock+0xdc>
		case(Port_C):
				if(Copy_u8State==Clock_Enable) Set_Bit(RESET_CONTROL->AHB1ENR,RCC_AHB1ENR_GPIOCEN);
 800053c:	79bb      	ldrb	r3, [r7, #6]
 800053e:	2b01      	cmp	r3, #1
 8000540:	d106      	bne.n	8000550 <RCC_VidPort_Clock+0x88>
 8000542:	4a1b      	ldr	r2, [pc, #108]	; (80005b0 <RCC_VidPort_Clock+0xe8>)
 8000544:	4b1a      	ldr	r3, [pc, #104]	; (80005b0 <RCC_VidPort_Clock+0xe8>)
 8000546:	6b1b      	ldr	r3, [r3, #48]	; 0x30
 8000548:	f043 0304 	orr.w	r3, r3, #4
 800054c:	6313      	str	r3, [r2, #48]	; 0x30
				else Clear_Bit(RESET_CONTROL->AHB1ENR,RCC_AHB1ENR_GPIOCEN);
				break;
 800054e:	e029      	b.n	80005a4 <RCC_VidPort_Clock+0xdc>
				else Clear_Bit(RESET_CONTROL->AHB1ENR,RCC_AHB1ENR_GPIOCEN);
 8000550:	4a17      	ldr	r2, [pc, #92]	; (80005b0 <RCC_VidPort_Clock+0xe8>)
 8000552:	4b17      	ldr	r3, [pc, #92]	; (80005b0 <RCC_VidPort_Clock+0xe8>)
 8000554:	6b1b      	ldr	r3, [r3, #48]	; 0x30
 8000556:	f023 0304 	bic.w	r3, r3, #4
 800055a:	6313      	str	r3, [r2, #48]	; 0x30
				break;
 800055c:	e022      	b.n	80005a4 <RCC_VidPort_Clock+0xdc>
		case(Port_D):
				if(Copy_u8State==Clock_Enable) Set_Bit(RESET_CONTROL->AHB1ENR,RCC_AHB1ENR_GPIODEN);
 800055e:	79bb      	ldrb	r3, [r7, #6]
 8000560:	2b01      	cmp	r3, #1
 8000562:	d106      	bne.n	8000572 <RCC_VidPort_Clock+0xaa>
 8000564:	4a12      	ldr	r2, [pc, #72]	; (80005b0 <RCC_VidPort_Clock+0xe8>)
 8000566:	4b12      	ldr	r3, [pc, #72]	; (80005b0 <RCC_VidPort_Clock+0xe8>)
 8000568:	6b1b      	ldr	r3, [r3, #48]	; 0x30
 800056a:	f043 0308 	orr.w	r3, r3, #8
 800056e:	6313      	str	r3, [r2, #48]	; 0x30
				else Clear_Bit(RESET_CONTROL->AHB1ENR,RCC_AHB1ENR_GPIODEN);
				break;
 8000570:	e018      	b.n	80005a4 <RCC_VidPort_Clock+0xdc>
				else Clear_Bit(RESET_CONTROL->AHB1ENR,RCC_AHB1ENR_GPIODEN);
 8000572:	4a0f      	ldr	r2, [pc, #60]	; (80005b0 <RCC_VidPort_Clock+0xe8>)
 8000574:	4b0e      	ldr	r3, [pc, #56]	; (80005b0 <RCC_VidPort_Clock+0xe8>)
 8000576:	6b1b      	ldr	r3, [r3, #48]	; 0x30
 8000578:	f023 0308 	bic.w	r3, r3, #8
 800057c:	6313      	str	r3, [r2, #48]	; 0x30
				break;
 800057e:	e011      	b.n	80005a4 <RCC_VidPort_Clock+0xdc>
		case(Port_E):
				if(Copy_u8State==Clock_Enable) Set_Bit(RESET_CONTROL->AHB1ENR,RCC_AHB1ENR_GPIOEEN);
 8000580:	79bb      	ldrb	r3, [r7, #6]
 8000582:	2b01      	cmp	r3, #1
 8000584:	d106      	bne.n	8000594 <RCC_VidPort_Clock+0xcc>
 8000586:	4a0a      	ldr	r2, [pc, #40]	; (80005b0 <RCC_VidPort_Clock+0xe8>)
 8000588:	4b09      	ldr	r3, [pc, #36]	; (80005b0 <RCC_VidPort_Clock+0xe8>)
 800058a:	6b1b      	ldr	r3, [r3, #48]	; 0x30
 800058c:	f043 0310 	orr.w	r3, r3, #16
 8000590:	6313      	str	r3, [r2, #48]	; 0x30
				else Clear_Bit(RESET_CONTROL->AHB1ENR,RCC_AHB1ENR_GPIOEEN);
				break;
 8000592:	e007      	b.n	80005a4 <RCC_VidPort_Clock+0xdc>
				else Clear_Bit(RESET_CONTROL->AHB1ENR,RCC_AHB1ENR_GPIOEEN);
 8000594:	4a06      	ldr	r2, [pc, #24]	; (80005b0 <RCC_VidPort_Clock+0xe8>)
 8000596:	4b06      	ldr	r3, [pc, #24]	; (80005b0 <RCC_VidPort_Clock+0xe8>)
 8000598:	6b1b      	ldr	r3, [r3, #48]	; 0x30
 800059a:	f023 0310 	bic.w	r3, r3, #16
 800059e:	6313      	str	r3, [r2, #48]	; 0x30
				break;
 80005a0:	e000      	b.n	80005a4 <RCC_VidPort_Clock+0xdc>
		default:break;
 80005a2:	bf00      	nop
	}
}
 80005a4:	bf00      	nop
 80005a6:	370c      	adds	r7, #12
 80005a8:	46bd      	mov	sp, r7
 80005aa:	f85d 7b04 	ldr.w	r7, [sp], #4
 80005ae:	4770      	bx	lr
 80005b0:	40023800 	.word	0x40023800

080005b4 <GPIO_VidSet_Pin>:
/******************************************************************************/
/*                                SINGLE  PIN                                 */
/******************************************************************************/
/*------------------------- Set Pin State -------------------------*/
void GPIO_VidSet_Pin(u8 Copy_u8Port,u8 Copy_u8Pin,u8 Copy_u8State)
{
 80005b4:	b480      	push	{r7}
 80005b6:	b083      	sub	sp, #12
 80005b8:	af00      	add	r7, sp, #0
 80005ba:	4603      	mov	r3, r0
 80005bc:	71fb      	strb	r3, [r7, #7]
 80005be:	460b      	mov	r3, r1
 80005c0:	71bb      	strb	r3, [r7, #6]
 80005c2:	4613      	mov	r3, r2
 80005c4:	717b      	strb	r3, [r7, #5]
	switch(Copy_u8Port)
 80005c6:	79fb      	ldrb	r3, [r7, #7]
 80005c8:	2b04      	cmp	r3, #4
 80005ca:	f200 8637 	bhi.w	800123c <GPIO_VidSet_Pin+0xc88>
 80005ce:	a201      	add	r2, pc, #4	; (adr r2, 80005d4 <GPIO_VidSet_Pin+0x20>)
 80005d0:	f852 f023 	ldr.w	pc, [r2, r3, lsl #2]
 80005d4:	080005e9 	.word	0x080005e9
 80005d8:	0800085f 	.word	0x0800085f
 80005dc:	08000ad5 	.word	0x08000ad5
 80005e0:	08000d4d 	.word	0x08000d4d
 80005e4:	08000fc5 	.word	0x08000fc5
	{
		case(Port_A):
				switch (Copy_u8Pin)
 80005e8:	79bb      	ldrb	r3, [r7, #6]
 80005ea:	2b0f      	cmp	r3, #15
 80005ec:	f200 8134 	bhi.w	8000858 <GPIO_VidSet_Pin+0x2a4>
 80005f0:	a201      	add	r2, pc, #4	; (adr r2, 80005f8 <GPIO_VidSet_Pin+0x44>)
 80005f2:	f852 f023 	ldr.w	pc, [r2, r3, lsl #2]
 80005f6:	bf00      	nop
 80005f8:	08000639 	.word	0x08000639
 80005fc:	0800065b 	.word	0x0800065b
 8000600:	0800067d 	.word	0x0800067d
 8000604:	0800069f 	.word	0x0800069f
 8000608:	080006c1 	.word	0x080006c1
 800060c:	080006e3 	.word	0x080006e3
 8000610:	08000705 	.word	0x08000705
 8000614:	08000727 	.word	0x08000727
 8000618:	08000749 	.word	0x08000749
 800061c:	0800076b 	.word	0x0800076b
 8000620:	0800078d 	.word	0x0800078d
 8000624:	080007af 	.word	0x080007af
 8000628:	080007d1 	.word	0x080007d1
 800062c:	080007f3 	.word	0x080007f3
 8000630:	08000815 	.word	0x08000815
 8000634:	08000837 	.word	0x08000837
				{
					case (Pin_0):if(Copy_u8State==Hi){Set_Bit(GPIO_A->BSRR,GPIO_BSRR_0_Set);}
 8000638:	797b      	ldrb	r3, [r7, #5]
 800063a:	2b0d      	cmp	r3, #13
 800063c:	d106      	bne.n	800064c <GPIO_VidSet_Pin+0x98>
 800063e:	4a9b      	ldr	r2, [pc, #620]	; (80008ac <GPIO_VidSet_Pin+0x2f8>)
 8000640:	4b9a      	ldr	r3, [pc, #616]	; (80008ac <GPIO_VidSet_Pin+0x2f8>)
 8000642:	699b      	ldr	r3, [r3, #24]
 8000644:	f043 0301 	orr.w	r3, r3, #1
 8000648:	6193      	str	r3, [r2, #24]
								 else Set_Bit(GPIO_A->BSRR,GPIO_BSRR_0_Clear);break;
 800064a:	e106      	b.n	800085a <GPIO_VidSet_Pin+0x2a6>
 800064c:	4a97      	ldr	r2, [pc, #604]	; (80008ac <GPIO_VidSet_Pin+0x2f8>)
 800064e:	4b97      	ldr	r3, [pc, #604]	; (80008ac <GPIO_VidSet_Pin+0x2f8>)
 8000650:	699b      	ldr	r3, [r3, #24]
 8000652:	f443 3380 	orr.w	r3, r3, #65536	; 0x10000
 8000656:	6193      	str	r3, [r2, #24]
 8000658:	e0ff      	b.n	800085a <GPIO_VidSet_Pin+0x2a6>
					case (Pin_1):if(Copy_u8State==Hi){Set_Bit(GPIO_A->BSRR,GPIO_BSRR_1_Set);}
 800065a:	797b      	ldrb	r3, [r7, #5]
 800065c:	2b0d      	cmp	r3, #13
 800065e:	d106      	bne.n	800066e <GPIO_VidSet_Pin+0xba>
 8000660:	4a92      	ldr	r2, [pc, #584]	; (80008ac <GPIO_VidSet_Pin+0x2f8>)
 8000662:	4b92      	ldr	r3, [pc, #584]	; (80008ac <GPIO_VidSet_Pin+0x2f8>)
 8000664:	699b      	ldr	r3, [r3, #24]
 8000666:	f043 0302 	orr.w	r3, r3, #2
 800066a:	6193      	str	r3, [r2, #24]
								 else Set_Bit(GPIO_A->BSRR,GPIO_BSRR_1_Clear);break;
 800066c:	e0f5      	b.n	800085a <GPIO_VidSet_Pin+0x2a6>
 800066e:	4a8f      	ldr	r2, [pc, #572]	; (80008ac <GPIO_VidSet_Pin+0x2f8>)
 8000670:	4b8e      	ldr	r3, [pc, #568]	; (80008ac <GPIO_VidSet_Pin+0x2f8>)
 8000672:	699b      	ldr	r3, [r3, #24]
 8000674:	f443 3300 	orr.w	r3, r3, #131072	; 0x20000
 8000678:	6193      	str	r3, [r2, #24]
 800067a:	e0ee      	b.n	800085a <GPIO_VidSet_Pin+0x2a6>
					case (Pin_2):if(Copy_u8State==Hi){Set_Bit(GPIO_A->BSRR,GPIO_BSRR_2_Set);}
 800067c:	797b      	ldrb	r3, [r7, #5]
 800067e:	2b0d      	cmp	r3, #13
 8000680:	d106      	bne.n	8000690 <GPIO_VidSet_Pin+0xdc>
 8000682:	4a8a      	ldr	r2, [pc, #552]	; (80008ac <GPIO_VidSet_Pin+0x2f8>)
 8000684:	4b89      	ldr	r3, [pc, #548]	; (80008ac <GPIO_VidSet_Pin+0x2f8>)
 8000686:	699b      	ldr	r3, [r3, #24]
 8000688:	f043 0304 	orr.w	r3, r3, #4
 800068c:	6193      	str	r3, [r2, #24]
								 else Set_Bit(GPIO_A->BSRR,GPIO_BSRR_2_Clear);break;
 800068e:	e0e4      	b.n	800085a <GPIO_VidSet_Pin+0x2a6>
 8000690:	4a86      	ldr	r2, [pc, #536]	; (80008ac <GPIO_VidSet_Pin+0x2f8>)
 8000692:	4b86      	ldr	r3, [pc, #536]	; (80008ac <GPIO_VidSet_Pin+0x2f8>)
 8000694:	699b      	ldr	r3, [r3, #24]
 8000696:	f443 2380 	orr.w	r3, r3, #262144	; 0x40000
 800069a:	6193      	str	r3, [r2, #24]
 800069c:	e0dd      	b.n	800085a <GPIO_VidSet_Pin+0x2a6>
					case (Pin_3):if(Copy_u8State==Hi){Set_Bit(GPIO_A->BSRR,GPIO_BSRR_3_Set);}
 800069e:	797b      	ldrb	r3, [r7, #5]
 80006a0:	2b0d      	cmp	r3, #13
 80006a2:	d106      	bne.n	80006b2 <GPIO_VidSet_Pin+0xfe>
 80006a4:	4a81      	ldr	r2, [pc, #516]	; (80008ac <GPIO_VidSet_Pin+0x2f8>)
 80006a6:	4b81      	ldr	r3, [pc, #516]	; (80008ac <GPIO_VidSet_Pin+0x2f8>)
 80006a8:	699b      	ldr	r3, [r3, #24]
 80006aa:	f043 0308 	orr.w	r3, r3, #8
 80006ae:	6193      	str	r3, [r2, #24]
								 else Set_Bit(GPIO_A->BSRR,GPIO_BSRR_3_Clear);break;
 80006b0:	e0d3      	b.n	800085a <GPIO_VidSet_Pin+0x2a6>
 80006b2:	4a7e      	ldr	r2, [pc, #504]	; (80008ac <GPIO_VidSet_Pin+0x2f8>)
 80006b4:	4b7d      	ldr	r3, [pc, #500]	; (80008ac <GPIO_VidSet_Pin+0x2f8>)
 80006b6:	699b      	ldr	r3, [r3, #24]
 80006b8:	f443 2300 	orr.w	r3, r3, #524288	; 0x80000
 80006bc:	6193      	str	r3, [r2, #24]
 80006be:	e0cc      	b.n	800085a <GPIO_VidSet_Pin+0x2a6>
					case (Pin_4):if(Copy_u8State==Hi){Set_Bit(GPIO_A->BSRR,GPIO_BSRR_4_Set);}
 80006c0:	797b      	ldrb	r3, [r7, #5]
 80006c2:	2b0d      	cmp	r3, #13
 80006c4:	d106      	bne.n	80006d4 <GPIO_VidSet_Pin+0x120>
 80006c6:	4a79      	ldr	r2, [pc, #484]	; (80008ac <GPIO_VidSet_Pin+0x2f8>)
 80006c8:	4b78      	ldr	r3, [pc, #480]	; (80008ac <GPIO_VidSet_Pin+0x2f8>)
 80006ca:	699b      	ldr	r3, [r3, #24]
 80006cc:	f043 0310 	orr.w	r3, r3, #16
 80006d0:	6193      	str	r3, [r2, #24]
								 else Set_Bit(GPIO_A->BSRR,GPIO_BSRR_4_Clear);break;
 80006d2:	e0c2      	b.n	800085a <GPIO_VidSet_Pin+0x2a6>
 80006d4:	4a75      	ldr	r2, [pc, #468]	; (80008ac <GPIO_VidSet_Pin+0x2f8>)
 80006d6:	4b75      	ldr	r3, [pc, #468]	; (80008ac <GPIO_VidSet_Pin+0x2f8>)
 80006d8:	699b      	ldr	r3, [r3, #24]
 80006da:	f443 1380 	orr.w	r3, r3, #1048576	; 0x100000
 80006de:	6193      	str	r3, [r2, #24]
 80006e0:	e0bb      	b.n	800085a <GPIO_VidSet_Pin+0x2a6>
					case (Pin_5):if(Copy_u8State==Hi){Set_Bit(GPIO_A->BSRR,GPIO_BSRR_5_Set);}
 80006e2:	797b      	ldrb	r3, [r7, #5]
 80006e4:	2b0d      	cmp	r3, #13
 80006e6:	d106      	bne.n	80006f6 <GPIO_VidSet_Pin+0x142>
 80006e8:	4a70      	ldr	r2, [pc, #448]	; (80008ac <GPIO_VidSet_Pin+0x2f8>)
 80006ea:	4b70      	ldr	r3, [pc, #448]	; (80008ac <GPIO_VidSet_Pin+0x2f8>)
 80006ec:	699b      	ldr	r3, [r3, #24]
 80006ee:	f043 0320 	orr.w	r3, r3, #32
 80006f2:	6193      	str	r3, [r2, #24]
								 else Set_Bit(GPIO_A->BSRR,GPIO_BSRR_5_Clear);break;
 80006f4:	e0b1      	b.n	800085a <GPIO_VidSet_Pin+0x2a6>
 80006f6:	4a6d      	ldr	r2, [pc, #436]	; (80008ac <GPIO_VidSet_Pin+0x2f8>)
 80006f8:	4b6c      	ldr	r3, [pc, #432]	; (80008ac <GPIO_VidSet_Pin+0x2f8>)
 80006fa:	699b      	ldr	r3, [r3, #24]
 80006fc:	f443 1300 	orr.w	r3, r3, #2097152	; 0x200000
 8000700:	6193      	str	r3, [r2, #24]
 8000702:	e0aa      	b.n	800085a <GPIO_VidSet_Pin+0x2a6>
					case (Pin_6):if(Copy_u8State==Hi){Set_Bit(GPIO_A->BSRR,GPIO_BSRR_6_Set);}
 8000704:	797b      	ldrb	r3, [r7, #5]
 8000706:	2b0d      	cmp	r3, #13
 8000708:	d106      	bne.n	8000718 <GPIO_VidSet_Pin+0x164>
 800070a:	4a68      	ldr	r2, [pc, #416]	; (80008ac <GPIO_VidSet_Pin+0x2f8>)
 800070c:	4b67      	ldr	r3, [pc, #412]	; (80008ac <GPIO_VidSet_Pin+0x2f8>)
 800070e:	699b      	ldr	r3, [r3, #24]
 8000710:	f043 0340 	orr.w	r3, r3, #64	; 0x40
 8000714:	6193      	str	r3, [r2, #24]
								 else Set_Bit(GPIO_A->BSRR,GPIO_BSRR_6_Clear);break;
 8000716:	e0a0      	b.n	800085a <GPIO_VidSet_Pin+0x2a6>
 8000718:	4a64      	ldr	r2, [pc, #400]	; (80008ac <GPIO_VidSet_Pin+0x2f8>)
 800071a:	4b64      	ldr	r3, [pc, #400]	; (80008ac <GPIO_VidSet_Pin+0x2f8>)
 800071c:	699b      	ldr	r3, [r3, #24]
 800071e:	f443 0380 	orr.w	r3, r3, #4194304	; 0x400000
 8000722:	6193      	str	r3, [r2, #24]
 8000724:	e099      	b.n	800085a <GPIO_VidSet_Pin+0x2a6>
					case (Pin_7):if(Copy_u8State==Hi){Set_Bit(GPIO_A->BSRR,GPIO_BSRR_7_Set);}
 8000726:	797b      	ldrb	r3, [r7, #5]
 8000728:	2b0d      	cmp	r3, #13
 800072a:	d106      	bne.n	800073a <GPIO_VidSet_Pin+0x186>
 800072c:	4a5f      	ldr	r2, [pc, #380]	; (80008ac <GPIO_VidSet_Pin+0x2f8>)
 800072e:	4b5f      	ldr	r3, [pc, #380]	; (80008ac <GPIO_VidSet_Pin+0x2f8>)
 8000730:	699b      	ldr	r3, [r3, #24]
 8000732:	f043 0380 	orr.w	r3, r3, #128	; 0x80
 8000736:	6193      	str	r3, [r2, #24]
								 else Set_Bit(GPIO_A->BSRR,GPIO_BSRR_7_Clear);break;
 8000738:	e08f      	b.n	800085a <GPIO_VidSet_Pin+0x2a6>
 800073a:	4a5c      	ldr	r2, [pc, #368]	; (80008ac <GPIO_VidSet_Pin+0x2f8>)
 800073c:	4b5b      	ldr	r3, [pc, #364]	; (80008ac <GPIO_VidSet_Pin+0x2f8>)
 800073e:	699b      	ldr	r3, [r3, #24]
 8000740:	f443 0300 	orr.w	r3, r3, #8388608	; 0x800000
 8000744:	6193      	str	r3, [r2, #24]
 8000746:	e088      	b.n	800085a <GPIO_VidSet_Pin+0x2a6>
					case (Pin_8):if(Copy_u8State==Hi){Set_Bit(GPIO_A->BSRR,GPIO_BSRR_8_Set);}
 8000748:	797b      	ldrb	r3, [r7, #5]
 800074a:	2b0d      	cmp	r3, #13
 800074c:	d106      	bne.n	800075c <GPIO_VidSet_Pin+0x1a8>
 800074e:	4a57      	ldr	r2, [pc, #348]	; (80008ac <GPIO_VidSet_Pin+0x2f8>)
 8000750:	4b56      	ldr	r3, [pc, #344]	; (80008ac <GPIO_VidSet_Pin+0x2f8>)
 8000752:	699b      	ldr	r3, [r3, #24]
 8000754:	f443 7380 	orr.w	r3, r3, #256	; 0x100
 8000758:	6193      	str	r3, [r2, #24]
								 else Set_Bit(GPIO_A->BSRR,GPIO_BSRR_8_Clear);break;
 800075a:	e07e      	b.n	800085a <GPIO_VidSet_Pin+0x2a6>
 800075c:	4a53      	ldr	r2, [pc, #332]	; (80008ac <GPIO_VidSet_Pin+0x2f8>)
 800075e:	4b53      	ldr	r3, [pc, #332]	; (80008ac <GPIO_VidSet_Pin+0x2f8>)
 8000760:	699b      	ldr	r3, [r3, #24]
 8000762:	f043 7380 	orr.w	r3, r3, #16777216	; 0x1000000
 8000766:	6193      	str	r3, [r2, #24]
 8000768:	e077      	b.n	800085a <GPIO_VidSet_Pin+0x2a6>
					case (Pin_9):if(Copy_u8State==Hi){Set_Bit(GPIO_A->BSRR,GPIO_BSRR_9_Set);}
 800076a:	797b      	ldrb	r3, [r7, #5]
 800076c:	2b0d      	cmp	r3, #13
 800076e:	d106      	bne.n	800077e <GPIO_VidSet_Pin+0x1ca>
 8000770:	4a4e      	ldr	r2, [pc, #312]	; (80008ac <GPIO_VidSet_Pin+0x2f8>)
 8000772:	4b4e      	ldr	r3, [pc, #312]	; (80008ac <GPIO_VidSet_Pin+0x2f8>)
 8000774:	699b      	ldr	r3, [r3, #24]
 8000776:	f443 7300 	orr.w	r3, r3, #512	; 0x200
 800077a:	6193      	str	r3, [r2, #24]
								 else Set_Bit(GPIO_A->BSRR,GPIO_BSRR_9_Clear);break;
 800077c:	e06d      	b.n	800085a <GPIO_VidSet_Pin+0x2a6>
 800077e:	4a4b      	ldr	r2, [pc, #300]	; (80008ac <GPIO_VidSet_Pin+0x2f8>)
 8000780:	4b4a      	ldr	r3, [pc, #296]	; (80008ac <GPIO_VidSet_Pin+0x2f8>)
 8000782:	699b      	ldr	r3, [r3, #24]
 8000784:	f043 7300 	orr.w	r3, r3, #33554432	; 0x2000000
 8000788:	6193      	str	r3, [r2, #24]
 800078a:	e066      	b.n	800085a <GPIO_VidSet_Pin+0x2a6>
					case (Pin_10):if(Copy_u8State==Hi){Set_Bit(GPIO_A->BSRR,GPIO_BSRR_10_Set);}
 800078c:	797b      	ldrb	r3, [r7, #5]
 800078e:	2b0d      	cmp	r3, #13
 8000790:	d106      	bne.n	80007a0 <GPIO_VidSet_Pin+0x1ec>
 8000792:	4a46      	ldr	r2, [pc, #280]	; (80008ac <GPIO_VidSet_Pin+0x2f8>)
 8000794:	4b45      	ldr	r3, [pc, #276]	; (80008ac <GPIO_VidSet_Pin+0x2f8>)
 8000796:	699b      	ldr	r3, [r3, #24]
 8000798:	f443 6380 	orr.w	r3, r3, #1024	; 0x400
 800079c:	6193      	str	r3, [r2, #24]
								 else Set_Bit(GPIO_A->BSRR,GPIO_BSRR_10_Clear);break;
 800079e:	e05c      	b.n	800085a <GPIO_VidSet_Pin+0x2a6>
 80007a0:	4a42      	ldr	r2, [pc, #264]	; (80008ac <GPIO_VidSet_Pin+0x2f8>)
 80007a2:	4b42      	ldr	r3, [pc, #264]	; (80008ac <GPIO_VidSet_Pin+0x2f8>)
 80007a4:	699b      	ldr	r3, [r3, #24]
 80007a6:	f043 6380 	orr.w	r3, r3, #67108864	; 0x4000000
 80007aa:	6193      	str	r3, [r2, #24]
 80007ac:	e055      	b.n	800085a <GPIO_VidSet_Pin+0x2a6>
					case (Pin_11):if(Copy_u8State==Hi){Set_Bit(GPIO_A->BSRR,GPIO_BSRR_11_Set);}
 80007ae:	797b      	ldrb	r3, [r7, #5]
 80007b0:	2b0d      	cmp	r3, #13
 80007b2:	d106      	bne.n	80007c2 <GPIO_VidSet_Pin+0x20e>
 80007b4:	4a3d      	ldr	r2, [pc, #244]	; (80008ac <GPIO_VidSet_Pin+0x2f8>)
 80007b6:	4b3d      	ldr	r3, [pc, #244]	; (80008ac <GPIO_VidSet_Pin+0x2f8>)
 80007b8:	699b      	ldr	r3, [r3, #24]
 80007ba:	f443 6300 	orr.w	r3, r3, #2048	; 0x800
 80007be:	6193      	str	r3, [r2, #24]
								 else Set_Bit(GPIO_A->BSRR,GPIO_BSRR_11_Clear);break;
 80007c0:	e04b      	b.n	800085a <GPIO_VidSet_Pin+0x2a6>
 80007c2:	4a3a      	ldr	r2, [pc, #232]	; (80008ac <GPIO_VidSet_Pin+0x2f8>)
 80007c4:	4b39      	ldr	r3, [pc, #228]	; (80008ac <GPIO_VidSet_Pin+0x2f8>)
 80007c6:	699b      	ldr	r3, [r3, #24]
 80007c8:	f043 6300 	orr.w	r3, r3, #134217728	; 0x8000000
 80007cc:	6193      	str	r3, [r2, #24]
 80007ce:	e044      	b.n	800085a <GPIO_VidSet_Pin+0x2a6>
					case (Pin_12):if(Copy_u8State==Hi){Set_Bit(GPIO_A->BSRR,GPIO_BSRR_12_Set);}
 80007d0:	797b      	ldrb	r3, [r7, #5]
 80007d2:	2b0d      	cmp	r3, #13
 80007d4:	d106      	bne.n	80007e4 <GPIO_VidSet_Pin+0x230>
 80007d6:	4a35      	ldr	r2, [pc, #212]	; (80008ac <GPIO_VidSet_Pin+0x2f8>)
 80007d8:	4b34      	ldr	r3, [pc, #208]	; (80008ac <GPIO_VidSet_Pin+0x2f8>)
 80007da:	699b      	ldr	r3, [r3, #24]
 80007dc:	f443 5380 	orr.w	r3, r3, #4096	; 0x1000
 80007e0:	6193      	str	r3, [r2, #24]
								 else Set_Bit(GPIO_A->BSRR,GPIO_BSRR_12_Clear);break;
 80007e2:	e03a      	b.n	800085a <GPIO_VidSet_Pin+0x2a6>
 80007e4:	4a31      	ldr	r2, [pc, #196]	; (80008ac <GPIO_VidSet_Pin+0x2f8>)
 80007e6:	4b31      	ldr	r3, [pc, #196]	; (80008ac <GPIO_VidSet_Pin+0x2f8>)
 80007e8:	699b      	ldr	r3, [r3, #24]
 80007ea:	f043 5380 	orr.w	r3, r3, #268435456	; 0x10000000
 80007ee:	6193      	str	r3, [r2, #24]
 80007f0:	e033      	b.n	800085a <GPIO_VidSet_Pin+0x2a6>
					case (Pin_13):if(Copy_u8State==Hi){Set_Bit(GPIO_A->BSRR,GPIO_BSRR_13_Set);}
 80007f2:	797b      	ldrb	r3, [r7, #5]
 80007f4:	2b0d      	cmp	r3, #13
 80007f6:	d106      	bne.n	8000806 <GPIO_VidSet_Pin+0x252>
 80007f8:	4a2c      	ldr	r2, [pc, #176]	; (80008ac <GPIO_VidSet_Pin+0x2f8>)
 80007fa:	4b2c      	ldr	r3, [pc, #176]	; (80008ac <GPIO_VidSet_Pin+0x2f8>)
 80007fc:	699b      	ldr	r3, [r3, #24]
 80007fe:	f443 5300 	orr.w	r3, r3, #8192	; 0x2000
 8000802:	6193      	str	r3, [r2, #24]
								 else Set_Bit(GPIO_A->BSRR,GPIO_BSRR_13_Clear);break;
 8000804:	e029      	b.n	800085a <GPIO_VidSet_Pin+0x2a6>
 8000806:	4a29      	ldr	r2, [pc, #164]	; (80008ac <GPIO_VidSet_Pin+0x2f8>)
 8000808:	4b28      	ldr	r3, [pc, #160]	; (80008ac <GPIO_VidSet_Pin+0x2f8>)
 800080a:	699b      	ldr	r3, [r3, #24]
 800080c:	f043 5300 	orr.w	r3, r3, #536870912	; 0x20000000
 8000810:	6193      	str	r3, [r2, #24]
 8000812:	e022      	b.n	800085a <GPIO_VidSet_Pin+0x2a6>
					case (Pin_14):if(Copy_u8State==Hi){Set_Bit(GPIO_A->BSRR,GPIO_BSRR_14_Set);}
 8000814:	797b      	ldrb	r3, [r7, #5]
 8000816:	2b0d      	cmp	r3, #13
 8000818:	d106      	bne.n	8000828 <GPIO_VidSet_Pin+0x274>
 800081a:	4a24      	ldr	r2, [pc, #144]	; (80008ac <GPIO_VidSet_Pin+0x2f8>)
 800081c:	4b23      	ldr	r3, [pc, #140]	; (80008ac <GPIO_VidSet_Pin+0x2f8>)
 800081e:	699b      	ldr	r3, [r3, #24]
 8000820:	f443 4380 	orr.w	r3, r3, #16384	; 0x4000
 8000824:	6193      	str	r3, [r2, #24]
								 else Set_Bit(GPIO_A->BSRR,GPIO_BSRR_14_Clear);break;
 8000826:	e018      	b.n	800085a <GPIO_VidSet_Pin+0x2a6>
 8000828:	4a20      	ldr	r2, [pc, #128]	; (80008ac <GPIO_VidSet_Pin+0x2f8>)
 800082a:	4b20      	ldr	r3, [pc, #128]	; (80008ac <GPIO_VidSet_Pin+0x2f8>)
 800082c:	699b      	ldr	r3, [r3, #24]
 800082e:	f043 4380 	orr.w	r3, r3, #1073741824	; 0x40000000
 8000832:	6193      	str	r3, [r2, #24]
 8000834:	e011      	b.n	800085a <GPIO_VidSet_Pin+0x2a6>
					case (Pin_15):if(Copy_u8State==Hi){Set_Bit(GPIO_A->BSRR,GPIO_BSRR_15_Set);}
 8000836:	797b      	ldrb	r3, [r7, #5]
 8000838:	2b0d      	cmp	r3, #13
 800083a:	d106      	bne.n	800084a <GPIO_VidSet_Pin+0x296>
 800083c:	4a1b      	ldr	r2, [pc, #108]	; (80008ac <GPIO_VidSet_Pin+0x2f8>)
 800083e:	4b1b      	ldr	r3, [pc, #108]	; (80008ac <GPIO_VidSet_Pin+0x2f8>)
 8000840:	699b      	ldr	r3, [r3, #24]
 8000842:	f443 4300 	orr.w	r3, r3, #32768	; 0x8000
 8000846:	6193      	str	r3, [r2, #24]
								 else Set_Bit(GPIO_A->BSRR,GPIO_BSRR_15_Clear);break;
 8000848:	e007      	b.n	800085a <GPIO_VidSet_Pin+0x2a6>
 800084a:	4a18      	ldr	r2, [pc, #96]	; (80008ac <GPIO_VidSet_Pin+0x2f8>)
 800084c:	4b17      	ldr	r3, [pc, #92]	; (80008ac <GPIO_VidSet_Pin+0x2f8>)
 800084e:	699b      	ldr	r3, [r3, #24]
 8000850:	f043 4300 	orr.w	r3, r3, #2147483648	; 0x80000000
 8000854:	6193      	str	r3, [r2, #24]
 8000856:	e000      	b.n	800085a <GPIO_VidSet_Pin+0x2a6>
					default:break;
 8000858:	bf00      	nop
				}
		break;
 800085a:	f000 bcf0 	b.w	800123e <GPIO_VidSet_Pin+0xc8a>
		case(Port_B):
				switch (Copy_u8Pin)
 800085e:	79bb      	ldrb	r3, [r7, #6]
 8000860:	2b0f      	cmp	r3, #15
 8000862:	f200 8135 	bhi.w	8000ad0 <GPIO_VidSet_Pin+0x51c>
 8000866:	a201      	add	r2, pc, #4	; (adr r2, 800086c <GPIO_VidSet_Pin+0x2b8>)
 8000868:	f852 f023 	ldr.w	pc, [r2, r3, lsl #2]
 800086c:	080008b1 	.word	0x080008b1
 8000870:	080008d3 	.word	0x080008d3
 8000874:	080008f5 	.word	0x080008f5
 8000878:	08000917 	.word	0x08000917
 800087c:	08000939 	.word	0x08000939
 8000880:	0800095b 	.word	0x0800095b
 8000884:	0800097d 	.word	0x0800097d
 8000888:	0800099f 	.word	0x0800099f
 800088c:	080009c1 	.word	0x080009c1
 8000890:	080009e3 	.word	0x080009e3
 8000894:	08000a05 	.word	0x08000a05
 8000898:	08000a27 	.word	0x08000a27
 800089c:	08000a49 	.word	0x08000a49
 80008a0:	08000a6b 	.word	0x08000a6b
 80008a4:	08000a8d 	.word	0x08000a8d
 80008a8:	08000aaf 	.word	0x08000aaf
 80008ac:	40020000 	.word	0x40020000
				{
					case (Pin_0):if(Copy_u8State==Hi){Set_Bit(GPIO_B->BSRR,GPIO_BSRR_0_Set);}
 80008b0:	797b      	ldrb	r3, [r7, #5]
 80008b2:	2b0d      	cmp	r3, #13
 80008b4:	d106      	bne.n	80008c4 <GPIO_VidSet_Pin+0x310>
 80008b6:	4a9b      	ldr	r2, [pc, #620]	; (8000b24 <GPIO_VidSet_Pin+0x570>)
 80008b8:	4b9a      	ldr	r3, [pc, #616]	; (8000b24 <GPIO_VidSet_Pin+0x570>)
 80008ba:	699b      	ldr	r3, [r3, #24]
 80008bc:	f043 0301 	orr.w	r3, r3, #1
 80008c0:	6193      	str	r3, [r2, #24]
								 else Set_Bit(GPIO_B->BSRR,GPIO_BSRR_0_Clear);break;
 80008c2:	e106      	b.n	8000ad2 <GPIO_VidSet_Pin+0x51e>
 80008c4:	4a97      	ldr	r2, [pc, #604]	; (8000b24 <GPIO_VidSet_Pin+0x570>)
 80008c6:	4b97      	ldr	r3, [pc, #604]	; (8000b24 <GPIO_VidSet_Pin+0x570>)
 80008c8:	699b      	ldr	r3, [r3, #24]
 80008ca:	f443 3380 	orr.w	r3, r3, #65536	; 0x10000
 80008ce:	6193      	str	r3, [r2, #24]
 80008d0:	e0ff      	b.n	8000ad2 <GPIO_VidSet_Pin+0x51e>
					case (Pin_1):if(Copy_u8State==Hi){Set_Bit(GPIO_B->BSRR,GPIO_BSRR_1_Set);}
 80008d2:	797b      	ldrb	r3, [r7, #5]
 80008d4:	2b0d      	cmp	r3, #13
 80008d6:	d106      	bne.n	80008e6 <GPIO_VidSet_Pin+0x332>
 80008d8:	4a92      	ldr	r2, [pc, #584]	; (8000b24 <GPIO_VidSet_Pin+0x570>)
 80008da:	4b92      	ldr	r3, [pc, #584]	; (8000b24 <GPIO_VidSet_Pin+0x570>)
 80008dc:	699b      	ldr	r3, [r3, #24]
 80008de:	f043 0302 	orr.w	r3, r3, #2
 80008e2:	6193      	str	r3, [r2, #24]
								 else Set_Bit(GPIO_B->BSRR,GPIO_BSRR_1_Clear);break;
 80008e4:	e0f5      	b.n	8000ad2 <GPIO_VidSet_Pin+0x51e>
 80008e6:	4a8f      	ldr	r2, [pc, #572]	; (8000b24 <GPIO_VidSet_Pin+0x570>)
 80008e8:	4b8e      	ldr	r3, [pc, #568]	; (8000b24 <GPIO_VidSet_Pin+0x570>)
 80008ea:	699b      	ldr	r3, [r3, #24]
 80008ec:	f443 3300 	orr.w	r3, r3, #131072	; 0x20000
 80008f0:	6193      	str	r3, [r2, #24]
 80008f2:	e0ee      	b.n	8000ad2 <GPIO_VidSet_Pin+0x51e>
					case (Pin_2):if(Copy_u8State==Hi){Set_Bit(GPIO_B->BSRR,GPIO_BSRR_2_Set);}
 80008f4:	797b      	ldrb	r3, [r7, #5]
 80008f6:	2b0d      	cmp	r3, #13
 80008f8:	d106      	bne.n	8000908 <GPIO_VidSet_Pin+0x354>
 80008fa:	4a8a      	ldr	r2, [pc, #552]	; (8000b24 <GPIO_VidSet_Pin+0x570>)
 80008fc:	4b89      	ldr	r3, [pc, #548]	; (8000b24 <GPIO_VidSet_Pin+0x570>)
 80008fe:	699b      	ldr	r3, [r3, #24]
 8000900:	f043 0304 	orr.w	r3, r3, #4
 8000904:	6193      	str	r3, [r2, #24]
								 else Set_Bit(GPIO_B->BSRR,GPIO_BSRR_2_Clear);break;
 8000906:	e0e4      	b.n	8000ad2 <GPIO_VidSet_Pin+0x51e>
 8000908:	4a86      	ldr	r2, [pc, #536]	; (8000b24 <GPIO_VidSet_Pin+0x570>)
 800090a:	4b86      	ldr	r3, [pc, #536]	; (8000b24 <GPIO_VidSet_Pin+0x570>)
 800090c:	699b      	ldr	r3, [r3, #24]
 800090e:	f443 2380 	orr.w	r3, r3, #262144	; 0x40000
 8000912:	6193      	str	r3, [r2, #24]
 8000914:	e0dd      	b.n	8000ad2 <GPIO_VidSet_Pin+0x51e>
					case (Pin_3):if(Copy_u8State==Hi){Set_Bit(GPIO_B->BSRR,GPIO_BSRR_3_Set);}
 8000916:	797b      	ldrb	r3, [r7, #5]
 8000918:	2b0d      	cmp	r3, #13
 800091a:	d106      	bne.n	800092a <GPIO_VidSet_Pin+0x376>
 800091c:	4a81      	ldr	r2, [pc, #516]	; (8000b24 <GPIO_VidSet_Pin+0x570>)
 800091e:	4b81      	ldr	r3, [pc, #516]	; (8000b24 <GPIO_VidSet_Pin+0x570>)
 8000920:	699b      	ldr	r3, [r3, #24]
 8000922:	f043 0308 	orr.w	r3, r3, #8
 8000926:	6193      	str	r3, [r2, #24]
								 else Set_Bit(GPIO_B->BSRR,GPIO_BSRR_3_Clear);break;
 8000928:	e0d3      	b.n	8000ad2 <GPIO_VidSet_Pin+0x51e>
 800092a:	4a7e      	ldr	r2, [pc, #504]	; (8000b24 <GPIO_VidSet_Pin+0x570>)
 800092c:	4b7d      	ldr	r3, [pc, #500]	; (8000b24 <GPIO_VidSet_Pin+0x570>)
 800092e:	699b      	ldr	r3, [r3, #24]
 8000930:	f443 2300 	orr.w	r3, r3, #524288	; 0x80000
 8000934:	6193      	str	r3, [r2, #24]
 8000936:	e0cc      	b.n	8000ad2 <GPIO_VidSet_Pin+0x51e>
					case (Pin_4):if(Copy_u8State==Hi){Set_Bit(GPIO_B->BSRR,GPIO_BSRR_4_Set);}
 8000938:	797b      	ldrb	r3, [r7, #5]
 800093a:	2b0d      	cmp	r3, #13
 800093c:	d106      	bne.n	800094c <GPIO_VidSet_Pin+0x398>
 800093e:	4a79      	ldr	r2, [pc, #484]	; (8000b24 <GPIO_VidSet_Pin+0x570>)
 8000940:	4b78      	ldr	r3, [pc, #480]	; (8000b24 <GPIO_VidSet_Pin+0x570>)
 8000942:	699b      	ldr	r3, [r3, #24]
 8000944:	f043 0310 	orr.w	r3, r3, #16
 8000948:	6193      	str	r3, [r2, #24]
								 else Set_Bit(GPIO_B->BSRR,GPIO_BSRR_4_Clear);break;
 800094a:	e0c2      	b.n	8000ad2 <GPIO_VidSet_Pin+0x51e>
 800094c:	4a75      	ldr	r2, [pc, #468]	; (8000b24 <GPIO_VidSet_Pin+0x570>)
 800094e:	4b75      	ldr	r3, [pc, #468]	; (8000b24 <GPIO_VidSet_Pin+0x570>)
 8000950:	699b      	ldr	r3, [r3, #24]
 8000952:	f443 1380 	orr.w	r3, r3, #1048576	; 0x100000
 8000956:	6193      	str	r3, [r2, #24]
 8000958:	e0bb      	b.n	8000ad2 <GPIO_VidSet_Pin+0x51e>
					case (Pin_5):if(Copy_u8State==Hi){Set_Bit(GPIO_B->BSRR,GPIO_BSRR_5_Set);}
 800095a:	797b      	ldrb	r3, [r7, #5]
 800095c:	2b0d      	cmp	r3, #13
 800095e:	d106      	bne.n	800096e <GPIO_VidSet_Pin+0x3ba>
 8000960:	4a70      	ldr	r2, [pc, #448]	; (8000b24 <GPIO_VidSet_Pin+0x570>)
 8000962:	4b70      	ldr	r3, [pc, #448]	; (8000b24 <GPIO_VidSet_Pin+0x570>)
 8000964:	699b      	ldr	r3, [r3, #24]
 8000966:	f043 0320 	orr.w	r3, r3, #32
 800096a:	6193      	str	r3, [r2, #24]
								 else Set_Bit(GPIO_B->BSRR,GPIO_BSRR_5_Clear);break;
 800096c:	e0b1      	b.n	8000ad2 <GPIO_VidSet_Pin+0x51e>
 800096e:	4a6d      	ldr	r2, [pc, #436]	; (8000b24 <GPIO_VidSet_Pin+0x570>)
 8000970:	4b6c      	ldr	r3, [pc, #432]	; (8000b24 <GPIO_VidSet_Pin+0x570>)
 8000972:	699b      	ldr	r3, [r3, #24]
 8000974:	f443 1300 	orr.w	r3, r3, #2097152	; 0x200000
 8000978:	6193      	str	r3, [r2, #24]
 800097a:	e0aa      	b.n	8000ad2 <GPIO_VidSet_Pin+0x51e>
					case (Pin_6):if(Copy_u8State==Hi){Set_Bit(GPIO_B->BSRR,GPIO_BSRR_6_Set);}
 800097c:	797b      	ldrb	r3, [r7, #5]
 800097e:	2b0d      	cmp	r3, #13
 8000980:	d106      	bne.n	8000990 <GPIO_VidSet_Pin+0x3dc>
 8000982:	4a68      	ldr	r2, [pc, #416]	; (8000b24 <GPIO_VidSet_Pin+0x570>)
 8000984:	4b67      	ldr	r3, [pc, #412]	; (8000b24 <GPIO_VidSet_Pin+0x570>)
 8000986:	699b      	ldr	r3, [r3, #24]
 8000988:	f043 0340 	orr.w	r3, r3, #64	; 0x40
 800098c:	6193      	str	r3, [r2, #24]
								 else Set_Bit(GPIO_B->BSRR,GPIO_BSRR_6_Clear);break;
 800098e:	e0a0      	b.n	8000ad2 <GPIO_VidSet_Pin+0x51e>
 8000990:	4a64      	ldr	r2, [pc, #400]	; (8000b24 <GPIO_VidSet_Pin+0x570>)
 8000992:	4b64      	ldr	r3, [pc, #400]	; (8000b24 <GPIO_VidSet_Pin+0x570>)
 8000994:	699b      	ldr	r3, [r3, #24]
 8000996:	f443 0380 	orr.w	r3, r3, #4194304	; 0x400000
 800099a:	6193      	str	r3, [r2, #24]
 800099c:	e099      	b.n	8000ad2 <GPIO_VidSet_Pin+0x51e>
					case (Pin_7):if(Copy_u8State==Hi){Set_Bit(GPIO_B->BSRR,GPIO_BSRR_7_Set);}
 800099e:	797b      	ldrb	r3, [r7, #5]
 80009a0:	2b0d      	cmp	r3, #13
 80009a2:	d106      	bne.n	80009b2 <GPIO_VidSet_Pin+0x3fe>
 80009a4:	4a5f      	ldr	r2, [pc, #380]	; (8000b24 <GPIO_VidSet_Pin+0x570>)
 80009a6:	4b5f      	ldr	r3, [pc, #380]	; (8000b24 <GPIO_VidSet_Pin+0x570>)
 80009a8:	699b      	ldr	r3, [r3, #24]
 80009aa:	f043 0380 	orr.w	r3, r3, #128	; 0x80
 80009ae:	6193      	str	r3, [r2, #24]
								 else Set_Bit(GPIO_B->BSRR,GPIO_BSRR_7_Clear);break;
 80009b0:	e08f      	b.n	8000ad2 <GPIO_VidSet_Pin+0x51e>
 80009b2:	4a5c      	ldr	r2, [pc, #368]	; (8000b24 <GPIO_VidSet_Pin+0x570>)
 80009b4:	4b5b      	ldr	r3, [pc, #364]	; (8000b24 <GPIO_VidSet_Pin+0x570>)
 80009b6:	699b      	ldr	r3, [r3, #24]
 80009b8:	f443 0300 	orr.w	r3, r3, #8388608	; 0x800000
 80009bc:	6193      	str	r3, [r2, #24]
 80009be:	e088      	b.n	8000ad2 <GPIO_VidSet_Pin+0x51e>
					case (Pin_8):if(Copy_u8State==Hi){Set_Bit(GPIO_B->BSRR,GPIO_BSRR_8_Set);}
 80009c0:	797b      	ldrb	r3, [r7, #5]
 80009c2:	2b0d      	cmp	r3, #13
 80009c4:	d106      	bne.n	80009d4 <GPIO_VidSet_Pin+0x420>
 80009c6:	4a57      	ldr	r2, [pc, #348]	; (8000b24 <GPIO_VidSet_Pin+0x570>)
 80009c8:	4b56      	ldr	r3, [pc, #344]	; (8000b24 <GPIO_VidSet_Pin+0x570>)
 80009ca:	699b      	ldr	r3, [r3, #24]
 80009cc:	f443 7380 	orr.w	r3, r3, #256	; 0x100
 80009d0:	6193      	str	r3, [r2, #24]
								 else Set_Bit(GPIO_B->BSRR,GPIO_BSRR_8_Clear);break;
 80009d2:	e07e      	b.n	8000ad2 <GPIO_VidSet_Pin+0x51e>
 80009d4:	4a53      	ldr	r2, [pc, #332]	; (8000b24 <GPIO_VidSet_Pin+0x570>)
 80009d6:	4b53      	ldr	r3, [pc, #332]	; (8000b24 <GPIO_VidSet_Pin+0x570>)
 80009d8:	699b      	ldr	r3, [r3, #24]
 80009da:	f043 7380 	orr.w	r3, r3, #16777216	; 0x1000000
 80009de:	6193      	str	r3, [r2, #24]
 80009e0:	e077      	b.n	8000ad2 <GPIO_VidSet_Pin+0x51e>
					case (Pin_9):if(Copy_u8State==Hi){Set_Bit(GPIO_B->BSRR,GPIO_BSRR_9_Set);}
 80009e2:	797b      	ldrb	r3, [r7, #5]
 80009e4:	2b0d      	cmp	r3, #13
 80009e6:	d106      	bne.n	80009f6 <GPIO_VidSet_Pin+0x442>
 80009e8:	4a4e      	ldr	r2, [pc, #312]	; (8000b24 <GPIO_VidSet_Pin+0x570>)
 80009ea:	4b4e      	ldr	r3, [pc, #312]	; (8000b24 <GPIO_VidSet_Pin+0x570>)
 80009ec:	699b      	ldr	r3, [r3, #24]
 80009ee:	f443 7300 	orr.w	r3, r3, #512	; 0x200
 80009f2:	6193      	str	r3, [r2, #24]
								 else Set_Bit(GPIO_B->BSRR,GPIO_BSRR_9_Clear);break;
 80009f4:	e06d      	b.n	8000ad2 <GPIO_VidSet_Pin+0x51e>
 80009f6:	4a4b      	ldr	r2, [pc, #300]	; (8000b24 <GPIO_VidSet_Pin+0x570>)
 80009f8:	4b4a      	ldr	r3, [pc, #296]	; (8000b24 <GPIO_VidSet_Pin+0x570>)
 80009fa:	699b      	ldr	r3, [r3, #24]
 80009fc:	f043 7300 	orr.w	r3, r3, #33554432	; 0x2000000
 8000a00:	6193      	str	r3, [r2, #24]
 8000a02:	e066      	b.n	8000ad2 <GPIO_VidSet_Pin+0x51e>
					case (Pin_10):if(Copy_u8State==Hi){Set_Bit(GPIO_B->BSRR,GPIO_BSRR_10_Set);}
 8000a04:	797b      	ldrb	r3, [r7, #5]
 8000a06:	2b0d      	cmp	r3, #13
 8000a08:	d106      	bne.n	8000a18 <GPIO_VidSet_Pin+0x464>
 8000a0a:	4a46      	ldr	r2, [pc, #280]	; (8000b24 <GPIO_VidSet_Pin+0x570>)
 8000a0c:	4b45      	ldr	r3, [pc, #276]	; (8000b24 <GPIO_VidSet_Pin+0x570>)
 8000a0e:	699b      	ldr	r3, [r3, #24]
 8000a10:	f443 6380 	orr.w	r3, r3, #1024	; 0x400
 8000a14:	6193      	str	r3, [r2, #24]
								 else Set_Bit(GPIO_B->BSRR,GPIO_BSRR_10_Clear);break;
 8000a16:	e05c      	b.n	8000ad2 <GPIO_VidSet_Pin+0x51e>
 8000a18:	4a42      	ldr	r2, [pc, #264]	; (8000b24 <GPIO_VidSet_Pin+0x570>)
 8000a1a:	4b42      	ldr	r3, [pc, #264]	; (8000b24 <GPIO_VidSet_Pin+0x570>)
 8000a1c:	699b      	ldr	r3, [r3, #24]
 8000a1e:	f043 6380 	orr.w	r3, r3, #67108864	; 0x4000000
 8000a22:	6193      	str	r3, [r2, #24]
 8000a24:	e055      	b.n	8000ad2 <GPIO_VidSet_Pin+0x51e>
					case (Pin_11):if(Copy_u8State==Hi){Set_Bit(GPIO_B->BSRR,GPIO_BSRR_11_Set);}
 8000a26:	797b      	ldrb	r3, [r7, #5]
 8000a28:	2b0d      	cmp	r3, #13
 8000a2a:	d106      	bne.n	8000a3a <GPIO_VidSet_Pin+0x486>
 8000a2c:	4a3d      	ldr	r2, [pc, #244]	; (8000b24 <GPIO_VidSet_Pin+0x570>)
 8000a2e:	4b3d      	ldr	r3, [pc, #244]	; (8000b24 <GPIO_VidSet_Pin+0x570>)
 8000a30:	699b      	ldr	r3, [r3, #24]
 8000a32:	f443 6300 	orr.w	r3, r3, #2048	; 0x800
 8000a36:	6193      	str	r3, [r2, #24]
								 else Set_Bit(GPIO_B->BSRR,GPIO_BSRR_11_Clear);break;
 8000a38:	e04b      	b.n	8000ad2 <GPIO_VidSet_Pin+0x51e>
 8000a3a:	4a3a      	ldr	r2, [pc, #232]	; (8000b24 <GPIO_VidSet_Pin+0x570>)
 8000a3c:	4b39      	ldr	r3, [pc, #228]	; (8000b24 <GPIO_VidSet_Pin+0x570>)
 8000a3e:	699b      	ldr	r3, [r3, #24]
 8000a40:	f043 6300 	orr.w	r3, r3, #134217728	; 0x8000000
 8000a44:	6193      	str	r3, [r2, #24]
 8000a46:	e044      	b.n	8000ad2 <GPIO_VidSet_Pin+0x51e>
					case (Pin_12):if(Copy_u8State==Hi){Set_Bit(GPIO_B->BSRR,GPIO_BSRR_12_Set);}
 8000a48:	797b      	ldrb	r3, [r7, #5]
 8000a4a:	2b0d      	cmp	r3, #13
 8000a4c:	d106      	bne.n	8000a5c <GPIO_VidSet_Pin+0x4a8>
 8000a4e:	4a35      	ldr	r2, [pc, #212]	; (8000b24 <GPIO_VidSet_Pin+0x570>)
 8000a50:	4b34      	ldr	r3, [pc, #208]	; (8000b24 <GPIO_VidSet_Pin+0x570>)
 8000a52:	699b      	ldr	r3, [r3, #24]
 8000a54:	f443 5380 	orr.w	r3, r3, #4096	; 0x1000
 8000a58:	6193      	str	r3, [r2, #24]
								 else Set_Bit(GPIO_B->BSRR,GPIO_BSRR_12_Clear);break;
 8000a5a:	e03a      	b.n	8000ad2 <GPIO_VidSet_Pin+0x51e>
 8000a5c:	4a31      	ldr	r2, [pc, #196]	; (8000b24 <GPIO_VidSet_Pin+0x570>)
 8000a5e:	4b31      	ldr	r3, [pc, #196]	; (8000b24 <GPIO_VidSet_Pin+0x570>)
 8000a60:	699b      	ldr	r3, [r3, #24]
 8000a62:	f043 5380 	orr.w	r3, r3, #268435456	; 0x10000000
 8000a66:	6193      	str	r3, [r2, #24]
 8000a68:	e033      	b.n	8000ad2 <GPIO_VidSet_Pin+0x51e>
					case (Pin_13):if(Copy_u8State==Hi){Set_Bit(GPIO_B->BSRR,GPIO_BSRR_13_Set);}
 8000a6a:	797b      	ldrb	r3, [r7, #5]
 8000a6c:	2b0d      	cmp	r3, #13
 8000a6e:	d106      	bne.n	8000a7e <GPIO_VidSet_Pin+0x4ca>
 8000a70:	4a2c      	ldr	r2, [pc, #176]	; (8000b24 <GPIO_VidSet_Pin+0x570>)
 8000a72:	4b2c      	ldr	r3, [pc, #176]	; (8000b24 <GPIO_VidSet_Pin+0x570>)
 8000a74:	699b      	ldr	r3, [r3, #24]
 8000a76:	f443 5300 	orr.w	r3, r3, #8192	; 0x2000
 8000a7a:	6193      	str	r3, [r2, #24]
								 else Set_Bit(GPIO_B->BSRR,GPIO_BSRR_13_Clear);break;
 8000a7c:	e029      	b.n	8000ad2 <GPIO_VidSet_Pin+0x51e>
 8000a7e:	4a29      	ldr	r2, [pc, #164]	; (8000b24 <GPIO_VidSet_Pin+0x570>)
 8000a80:	4b28      	ldr	r3, [pc, #160]	; (8000b24 <GPIO_VidSet_Pin+0x570>)
 8000a82:	699b      	ldr	r3, [r3, #24]
 8000a84:	f043 5300 	orr.w	r3, r3, #536870912	; 0x20000000
 8000a88:	6193      	str	r3, [r2, #24]
 8000a8a:	e022      	b.n	8000ad2 <GPIO_VidSet_Pin+0x51e>
					case (Pin_14):if(Copy_u8State==Hi){Set_Bit(GPIO_B->BSRR,GPIO_BSRR_14_Set);}
 8000a8c:	797b      	ldrb	r3, [r7, #5]
 8000a8e:	2b0d      	cmp	r3, #13
 8000a90:	d106      	bne.n	8000aa0 <GPIO_VidSet_Pin+0x4ec>
 8000a92:	4a24      	ldr	r2, [pc, #144]	; (8000b24 <GPIO_VidSet_Pin+0x570>)
 8000a94:	4b23      	ldr	r3, [pc, #140]	; (8000b24 <GPIO_VidSet_Pin+0x570>)
 8000a96:	699b      	ldr	r3, [r3, #24]
 8000a98:	f443 4380 	orr.w	r3, r3, #16384	; 0x4000
 8000a9c:	6193      	str	r3, [r2, #24]
								 else Set_Bit(GPIO_B->BSRR,GPIO_BSRR_14_Clear);break;
 8000a9e:	e018      	b.n	8000ad2 <GPIO_VidSet_Pin+0x51e>
 8000aa0:	4a20      	ldr	r2, [pc, #128]	; (8000b24 <GPIO_VidSet_Pin+0x570>)
 8000aa2:	4b20      	ldr	r3, [pc, #128]	; (8000b24 <GPIO_VidSet_Pin+0x570>)
 8000aa4:	699b      	ldr	r3, [r3, #24]
 8000aa6:	f043 4380 	orr.w	r3, r3, #1073741824	; 0x40000000
 8000aaa:	6193      	str	r3, [r2, #24]
 8000aac:	e011      	b.n	8000ad2 <GPIO_VidSet_Pin+0x51e>
					case (Pin_15):if(Copy_u8State==Hi){Set_Bit(GPIO_B->BSRR,GPIO_BSRR_15_Set);}
 8000aae:	797b      	ldrb	r3, [r7, #5]
 8000ab0:	2b0d      	cmp	r3, #13
 8000ab2:	d106      	bne.n	8000ac2 <GPIO_VidSet_Pin+0x50e>
 8000ab4:	4a1b      	ldr	r2, [pc, #108]	; (8000b24 <GPIO_VidSet_Pin+0x570>)
 8000ab6:	4b1b      	ldr	r3, [pc, #108]	; (8000b24 <GPIO_VidSet_Pin+0x570>)
 8000ab8:	699b      	ldr	r3, [r3, #24]
 8000aba:	f443 4300 	orr.w	r3, r3, #32768	; 0x8000
 8000abe:	6193      	str	r3, [r2, #24]
								 else Set_Bit(GPIO_B->BSRR,GPIO_BSRR_15_Clear);break;
 8000ac0:	e007      	b.n	8000ad2 <GPIO_VidSet_Pin+0x51e>
 8000ac2:	4a18      	ldr	r2, [pc, #96]	; (8000b24 <GPIO_VidSet_Pin+0x570>)
 8000ac4:	4b17      	ldr	r3, [pc, #92]	; (8000b24 <GPIO_VidSet_Pin+0x570>)
 8000ac6:	699b      	ldr	r3, [r3, #24]
 8000ac8:	f043 4300 	orr.w	r3, r3, #2147483648	; 0x80000000
 8000acc:	6193      	str	r3, [r2, #24]
 8000ace:	e000      	b.n	8000ad2 <GPIO_VidSet_Pin+0x51e>
					default:break;
 8000ad0:	bf00      	nop
				}
		break;
 8000ad2:	e3b4      	b.n	800123e <GPIO_VidSet_Pin+0xc8a>
		case(Port_C):
				switch (Copy_u8Pin)
 8000ad4:	79bb      	ldrb	r3, [r7, #6]
 8000ad6:	2b0f      	cmp	r3, #15
 8000ad8:	f200 8136 	bhi.w	8000d48 <GPIO_VidSet_Pin+0x794>
 8000adc:	a201      	add	r2, pc, #4	; (adr r2, 8000ae4 <GPIO_VidSet_Pin+0x530>)
 8000ade:	f852 f023 	ldr.w	pc, [r2, r3, lsl #2]
 8000ae2:	bf00      	nop
 8000ae4:	08000b29 	.word	0x08000b29
 8000ae8:	08000b4b 	.word	0x08000b4b
 8000aec:	08000b6d 	.word	0x08000b6d
 8000af0:	08000b8f 	.word	0x08000b8f
 8000af4:	08000bb1 	.word	0x08000bb1
 8000af8:	08000bd3 	.word	0x08000bd3
 8000afc:	08000bf5 	.word	0x08000bf5
 8000b00:	08000c17 	.word	0x08000c17
 8000b04:	08000c39 	.word	0x08000c39
 8000b08:	08000c5b 	.word	0x08000c5b
 8000b0c:	08000c7d 	.word	0x08000c7d
 8000b10:	08000c9f 	.word	0x08000c9f
 8000b14:	08000cc1 	.word	0x08000cc1
 8000b18:	08000ce3 	.word	0x08000ce3
 8000b1c:	08000d05 	.word	0x08000d05
 8000b20:	08000d27 	.word	0x08000d27
 8000b24:	40020400 	.word	0x40020400
				{
					case (Pin_0):if(Copy_u8State==Hi){Set_Bit(GPIO_C->BSRR,GPIO_BSRR_0_Set);}
 8000b28:	797b      	ldrb	r3, [r7, #5]
 8000b2a:	2b0d      	cmp	r3, #13
 8000b2c:	d106      	bne.n	8000b3c <GPIO_VidSet_Pin+0x588>
 8000b2e:	4a9b      	ldr	r2, [pc, #620]	; (8000d9c <GPIO_VidSet_Pin+0x7e8>)
 8000b30:	4b9a      	ldr	r3, [pc, #616]	; (8000d9c <GPIO_VidSet_Pin+0x7e8>)
 8000b32:	699b      	ldr	r3, [r3, #24]
 8000b34:	f043 0301 	orr.w	r3, r3, #1
 8000b38:	6193      	str	r3, [r2, #24]
								 else Set_Bit(GPIO_C->BSRR,GPIO_BSRR_0_Clear);break;
 8000b3a:	e106      	b.n	8000d4a <GPIO_VidSet_Pin+0x796>
 8000b3c:	4a97      	ldr	r2, [pc, #604]	; (8000d9c <GPIO_VidSet_Pin+0x7e8>)
 8000b3e:	4b97      	ldr	r3, [pc, #604]	; (8000d9c <GPIO_VidSet_Pin+0x7e8>)
 8000b40:	699b      	ldr	r3, [r3, #24]
 8000b42:	f443 3380 	orr.w	r3, r3, #65536	; 0x10000
 8000b46:	6193      	str	r3, [r2, #24]
 8000b48:	e0ff      	b.n	8000d4a <GPIO_VidSet_Pin+0x796>
					case (Pin_1):if(Copy_u8State==Hi){Set_Bit(GPIO_C->BSRR,GPIO_BSRR_1_Set);}
 8000b4a:	797b      	ldrb	r3, [r7, #5]
 8000b4c:	2b0d      	cmp	r3, #13
 8000b4e:	d106      	bne.n	8000b5e <GPIO_VidSet_Pin+0x5aa>
 8000b50:	4a92      	ldr	r2, [pc, #584]	; (8000d9c <GPIO_VidSet_Pin+0x7e8>)
 8000b52:	4b92      	ldr	r3, [pc, #584]	; (8000d9c <GPIO_VidSet_Pin+0x7e8>)
 8000b54:	699b      	ldr	r3, [r3, #24]
 8000b56:	f043 0302 	orr.w	r3, r3, #2
 8000b5a:	6193      	str	r3, [r2, #24]
								 else Set_Bit(GPIO_C->BSRR,GPIO_BSRR_1_Clear);break;
 8000b5c:	e0f5      	b.n	8000d4a <GPIO_VidSet_Pin+0x796>
 8000b5e:	4a8f      	ldr	r2, [pc, #572]	; (8000d9c <GPIO_VidSet_Pin+0x7e8>)
 8000b60:	4b8e      	ldr	r3, [pc, #568]	; (8000d9c <GPIO_VidSet_Pin+0x7e8>)
 8000b62:	699b      	ldr	r3, [r3, #24]
 8000b64:	f443 3300 	orr.w	r3, r3, #131072	; 0x20000
 8000b68:	6193      	str	r3, [r2, #24]
 8000b6a:	e0ee      	b.n	8000d4a <GPIO_VidSet_Pin+0x796>
					case (Pin_2):if(Copy_u8State==Hi){Set_Bit(GPIO_C->BSRR,GPIO_BSRR_2_Set);}
 8000b6c:	797b      	ldrb	r3, [r7, #5]
 8000b6e:	2b0d      	cmp	r3, #13
 8000b70:	d106      	bne.n	8000b80 <GPIO_VidSet_Pin+0x5cc>
 8000b72:	4a8a      	ldr	r2, [pc, #552]	; (8000d9c <GPIO_VidSet_Pin+0x7e8>)
 8000b74:	4b89      	ldr	r3, [pc, #548]	; (8000d9c <GPIO_VidSet_Pin+0x7e8>)
 8000b76:	699b      	ldr	r3, [r3, #24]
 8000b78:	f043 0304 	orr.w	r3, r3, #4
 8000b7c:	6193      	str	r3, [r2, #24]
								 else Set_Bit(GPIO_C->BSRR,GPIO_BSRR_2_Clear);break;
 8000b7e:	e0e4      	b.n	8000d4a <GPIO_VidSet_Pin+0x796>
 8000b80:	4a86      	ldr	r2, [pc, #536]	; (8000d9c <GPIO_VidSet_Pin+0x7e8>)
 8000b82:	4b86      	ldr	r3, [pc, #536]	; (8000d9c <GPIO_VidSet_Pin+0x7e8>)
 8000b84:	699b      	ldr	r3, [r3, #24]
 8000b86:	f443 2380 	orr.w	r3, r3, #262144	; 0x40000
 8000b8a:	6193      	str	r3, [r2, #24]
 8000b8c:	e0dd      	b.n	8000d4a <GPIO_VidSet_Pin+0x796>
					case (Pin_3):if(Copy_u8State==Hi){Set_Bit(GPIO_C->BSRR,GPIO_BSRR_3_Set);}
 8000b8e:	797b      	ldrb	r3, [r7, #5]
 8000b90:	2b0d      	cmp	r3, #13
 8000b92:	d106      	bne.n	8000ba2 <GPIO_VidSet_Pin+0x5ee>
 8000b94:	4a81      	ldr	r2, [pc, #516]	; (8000d9c <GPIO_VidSet_Pin+0x7e8>)
 8000b96:	4b81      	ldr	r3, [pc, #516]	; (8000d9c <GPIO_VidSet_Pin+0x7e8>)
 8000b98:	699b      	ldr	r3, [r3, #24]
 8000b9a:	f043 0308 	orr.w	r3, r3, #8
 8000b9e:	6193      	str	r3, [r2, #24]
								 else Set_Bit(GPIO_C->BSRR,GPIO_BSRR_3_Clear);break;
 8000ba0:	e0d3      	b.n	8000d4a <GPIO_VidSet_Pin+0x796>
 8000ba2:	4a7e      	ldr	r2, [pc, #504]	; (8000d9c <GPIO_VidSet_Pin+0x7e8>)
 8000ba4:	4b7d      	ldr	r3, [pc, #500]	; (8000d9c <GPIO_VidSet_Pin+0x7e8>)
 8000ba6:	699b      	ldr	r3, [r3, #24]
 8000ba8:	f443 2300 	orr.w	r3, r3, #524288	; 0x80000
 8000bac:	6193      	str	r3, [r2, #24]
 8000bae:	e0cc      	b.n	8000d4a <GPIO_VidSet_Pin+0x796>
					case (Pin_4):if(Copy_u8State==Hi){Set_Bit(GPIO_C->BSRR,GPIO_BSRR_4_Set);}
 8000bb0:	797b      	ldrb	r3, [r7, #5]
 8000bb2:	2b0d      	cmp	r3, #13
 8000bb4:	d106      	bne.n	8000bc4 <GPIO_VidSet_Pin+0x610>
 8000bb6:	4a79      	ldr	r2, [pc, #484]	; (8000d9c <GPIO_VidSet_Pin+0x7e8>)
 8000bb8:	4b78      	ldr	r3, [pc, #480]	; (8000d9c <GPIO_VidSet_Pin+0x7e8>)
 8000bba:	699b      	ldr	r3, [r3, #24]
 8000bbc:	f043 0310 	orr.w	r3, r3, #16
 8000bc0:	6193      	str	r3, [r2, #24]
								 else Set_Bit(GPIO_C->BSRR,GPIO_BSRR_4_Clear);break;
 8000bc2:	e0c2      	b.n	8000d4a <GPIO_VidSet_Pin+0x796>
 8000bc4:	4a75      	ldr	r2, [pc, #468]	; (8000d9c <GPIO_VidSet_Pin+0x7e8>)
 8000bc6:	4b75      	ldr	r3, [pc, #468]	; (8000d9c <GPIO_VidSet_Pin+0x7e8>)
 8000bc8:	699b      	ldr	r3, [r3, #24]
 8000bca:	f443 1380 	orr.w	r3, r3, #1048576	; 0x100000
 8000bce:	6193      	str	r3, [r2, #24]
 8000bd0:	e0bb      	b.n	8000d4a <GPIO_VidSet_Pin+0x796>
					case (Pin_5):if(Copy_u8State==Hi){Set_Bit(GPIO_C->BSRR,GPIO_BSRR_5_Set);}
 8000bd2:	797b      	ldrb	r3, [r7, #5]
 8000bd4:	2b0d      	cmp	r3, #13
 8000bd6:	d106      	bne.n	8000be6 <GPIO_VidSet_Pin+0x632>
 8000bd8:	4a70      	ldr	r2, [pc, #448]	; (8000d9c <GPIO_VidSet_Pin+0x7e8>)
 8000bda:	4b70      	ldr	r3, [pc, #448]	; (8000d9c <GPIO_VidSet_Pin+0x7e8>)
 8000bdc:	699b      	ldr	r3, [r3, #24]
 8000bde:	f043 0320 	orr.w	r3, r3, #32
 8000be2:	6193      	str	r3, [r2, #24]
								 else Set_Bit(GPIO_C->BSRR,GPIO_BSRR_5_Clear);break;
 8000be4:	e0b1      	b.n	8000d4a <GPIO_VidSet_Pin+0x796>
 8000be6:	4a6d      	ldr	r2, [pc, #436]	; (8000d9c <GPIO_VidSet_Pin+0x7e8>)
 8000be8:	4b6c      	ldr	r3, [pc, #432]	; (8000d9c <GPIO_VidSet_Pin+0x7e8>)
 8000bea:	699b      	ldr	r3, [r3, #24]
 8000bec:	f443 1300 	orr.w	r3, r3, #2097152	; 0x200000
 8000bf0:	6193      	str	r3, [r2, #24]
 8000bf2:	e0aa      	b.n	8000d4a <GPIO_VidSet_Pin+0x796>
					case (Pin_6):if(Copy_u8State==Hi){Set_Bit(GPIO_C->BSRR,GPIO_BSRR_6_Set);}
 8000bf4:	797b      	ldrb	r3, [r7, #5]
 8000bf6:	2b0d      	cmp	r3, #13
 8000bf8:	d106      	bne.n	8000c08 <GPIO_VidSet_Pin+0x654>
 8000bfa:	4a68      	ldr	r2, [pc, #416]	; (8000d9c <GPIO_VidSet_Pin+0x7e8>)
 8000bfc:	4b67      	ldr	r3, [pc, #412]	; (8000d9c <GPIO_VidSet_Pin+0x7e8>)
 8000bfe:	699b      	ldr	r3, [r3, #24]
 8000c00:	f043 0340 	orr.w	r3, r3, #64	; 0x40
 8000c04:	6193      	str	r3, [r2, #24]
								 else Set_Bit(GPIO_C->BSRR,GPIO_BSRR_6_Clear);break;
 8000c06:	e0a0      	b.n	8000d4a <GPIO_VidSet_Pin+0x796>
 8000c08:	4a64      	ldr	r2, [pc, #400]	; (8000d9c <GPIO_VidSet_Pin+0x7e8>)
 8000c0a:	4b64      	ldr	r3, [pc, #400]	; (8000d9c <GPIO_VidSet_Pin+0x7e8>)
 8000c0c:	699b      	ldr	r3, [r3, #24]
 8000c0e:	f443 0380 	orr.w	r3, r3, #4194304	; 0x400000
 8000c12:	6193      	str	r3, [r2, #24]
 8000c14:	e099      	b.n	8000d4a <GPIO_VidSet_Pin+0x796>
					case (Pin_7):if(Copy_u8State==Hi){Set_Bit(GPIO_C->BSRR,GPIO_BSRR_7_Set);}
 8000c16:	797b      	ldrb	r3, [r7, #5]
 8000c18:	2b0d      	cmp	r3, #13
 8000c1a:	d106      	bne.n	8000c2a <GPIO_VidSet_Pin+0x676>
 8000c1c:	4a5f      	ldr	r2, [pc, #380]	; (8000d9c <GPIO_VidSet_Pin+0x7e8>)
 8000c1e:	4b5f      	ldr	r3, [pc, #380]	; (8000d9c <GPIO_VidSet_Pin+0x7e8>)
 8000c20:	699b      	ldr	r3, [r3, #24]
 8000c22:	f043 0380 	orr.w	r3, r3, #128	; 0x80
 8000c26:	6193      	str	r3, [r2, #24]
								 else Set_Bit(GPIO_C->BSRR,GPIO_BSRR_7_Clear);break;
 8000c28:	e08f      	b.n	8000d4a <GPIO_VidSet_Pin+0x796>
 8000c2a:	4a5c      	ldr	r2, [pc, #368]	; (8000d9c <GPIO_VidSet_Pin+0x7e8>)
 8000c2c:	4b5b      	ldr	r3, [pc, #364]	; (8000d9c <GPIO_VidSet_Pin+0x7e8>)
 8000c2e:	699b      	ldr	r3, [r3, #24]
 8000c30:	f443 0300 	orr.w	r3, r3, #8388608	; 0x800000
 8000c34:	6193      	str	r3, [r2, #24]
 8000c36:	e088      	b.n	8000d4a <GPIO_VidSet_Pin+0x796>
					case (Pin_8):if(Copy_u8State==Hi){Set_Bit(GPIO_C->BSRR,GPIO_BSRR_8_Set);}
 8000c38:	797b      	ldrb	r3, [r7, #5]
 8000c3a:	2b0d      	cmp	r3, #13
 8000c3c:	d106      	bne.n	8000c4c <GPIO_VidSet_Pin+0x698>
 8000c3e:	4a57      	ldr	r2, [pc, #348]	; (8000d9c <GPIO_VidSet_Pin+0x7e8>)
 8000c40:	4b56      	ldr	r3, [pc, #344]	; (8000d9c <GPIO_VidSet_Pin+0x7e8>)
 8000c42:	699b      	ldr	r3, [r3, #24]
 8000c44:	f443 7380 	orr.w	r3, r3, #256	; 0x100
 8000c48:	6193      	str	r3, [r2, #24]
								 else Set_Bit(GPIO_C->BSRR,GPIO_BSRR_8_Clear);break;
 8000c4a:	e07e      	b.n	8000d4a <GPIO_VidSet_Pin+0x796>
 8000c4c:	4a53      	ldr	r2, [pc, #332]	; (8000d9c <GPIO_VidSet_Pin+0x7e8>)
 8000c4e:	4b53      	ldr	r3, [pc, #332]	; (8000d9c <GPIO_VidSet_Pin+0x7e8>)
 8000c50:	699b      	ldr	r3, [r3, #24]
 8000c52:	f043 7380 	orr.w	r3, r3, #16777216	; 0x1000000
 8000c56:	6193      	str	r3, [r2, #24]
 8000c58:	e077      	b.n	8000d4a <GPIO_VidSet_Pin+0x796>
					case (Pin_9):if(Copy_u8State==Hi){Set_Bit(GPIO_C->BSRR,GPIO_BSRR_9_Set);}
 8000c5a:	797b      	ldrb	r3, [r7, #5]
 8000c5c:	2b0d      	cmp	r3, #13
 8000c5e:	d106      	bne.n	8000c6e <GPIO_VidSet_Pin+0x6ba>
 8000c60:	4a4e      	ldr	r2, [pc, #312]	; (8000d9c <GPIO_VidSet_Pin+0x7e8>)
 8000c62:	4b4e      	ldr	r3, [pc, #312]	; (8000d9c <GPIO_VidSet_Pin+0x7e8>)
 8000c64:	699b      	ldr	r3, [r3, #24]
 8000c66:	f443 7300 	orr.w	r3, r3, #512	; 0x200
 8000c6a:	6193      	str	r3, [r2, #24]
								 else Set_Bit(GPIO_C->BSRR,GPIO_BSRR_9_Clear);break;
 8000c6c:	e06d      	b.n	8000d4a <GPIO_VidSet_Pin+0x796>
 8000c6e:	4a4b      	ldr	r2, [pc, #300]	; (8000d9c <GPIO_VidSet_Pin+0x7e8>)
 8000c70:	4b4a      	ldr	r3, [pc, #296]	; (8000d9c <GPIO_VidSet_Pin+0x7e8>)
 8000c72:	699b      	ldr	r3, [r3, #24]
 8000c74:	f043 7300 	orr.w	r3, r3, #33554432	; 0x2000000
 8000c78:	6193      	str	r3, [r2, #24]
 8000c7a:	e066      	b.n	8000d4a <GPIO_VidSet_Pin+0x796>
					case (Pin_10):if(Copy_u8State==Hi){Set_Bit(GPIO_C->BSRR,GPIO_BSRR_10_Set);}
 8000c7c:	797b      	ldrb	r3, [r7, #5]
 8000c7e:	2b0d      	cmp	r3, #13
 8000c80:	d106      	bne.n	8000c90 <GPIO_VidSet_Pin+0x6dc>
 8000c82:	4a46      	ldr	r2, [pc, #280]	; (8000d9c <GPIO_VidSet_Pin+0x7e8>)
 8000c84:	4b45      	ldr	r3, [pc, #276]	; (8000d9c <GPIO_VidSet_Pin+0x7e8>)
 8000c86:	699b      	ldr	r3, [r3, #24]
 8000c88:	f443 6380 	orr.w	r3, r3, #1024	; 0x400
 8000c8c:	6193      	str	r3, [r2, #24]
								 else Set_Bit(GPIO_C->BSRR,GPIO_BSRR_10_Clear);break;
 8000c8e:	e05c      	b.n	8000d4a <GPIO_VidSet_Pin+0x796>
 8000c90:	4a42      	ldr	r2, [pc, #264]	; (8000d9c <GPIO_VidSet_Pin+0x7e8>)
 8000c92:	4b42      	ldr	r3, [pc, #264]	; (8000d9c <GPIO_VidSet_Pin+0x7e8>)
 8000c94:	699b      	ldr	r3, [r3, #24]
 8000c96:	f043 6380 	orr.w	r3, r3, #67108864	; 0x4000000
 8000c9a:	6193      	str	r3, [r2, #24]
 8000c9c:	e055      	b.n	8000d4a <GPIO_VidSet_Pin+0x796>
					case (Pin_11):if(Copy_u8State==Hi){Set_Bit(GPIO_C->BSRR,GPIO_BSRR_11_Set);}
 8000c9e:	797b      	ldrb	r3, [r7, #5]
 8000ca0:	2b0d      	cmp	r3, #13
 8000ca2:	d106      	bne.n	8000cb2 <GPIO_VidSet_Pin+0x6fe>
 8000ca4:	4a3d      	ldr	r2, [pc, #244]	; (8000d9c <GPIO_VidSet_Pin+0x7e8>)
 8000ca6:	4b3d      	ldr	r3, [pc, #244]	; (8000d9c <GPIO_VidSet_Pin+0x7e8>)
 8000ca8:	699b      	ldr	r3, [r3, #24]
 8000caa:	f443 6300 	orr.w	r3, r3, #2048	; 0x800
 8000cae:	6193      	str	r3, [r2, #24]
								 else Set_Bit(GPIO_C->BSRR,GPIO_BSRR_11_Clear);break;
 8000cb0:	e04b      	b.n	8000d4a <GPIO_VidSet_Pin+0x796>
 8000cb2:	4a3a      	ldr	r2, [pc, #232]	; (8000d9c <GPIO_VidSet_Pin+0x7e8>)
 8000cb4:	4b39      	ldr	r3, [pc, #228]	; (8000d9c <GPIO_VidSet_Pin+0x7e8>)
 8000cb6:	699b      	ldr	r3, [r3, #24]
 8000cb8:	f043 6300 	orr.w	r3, r3, #134217728	; 0x8000000
 8000cbc:	6193      	str	r3, [r2, #24]
 8000cbe:	e044      	b.n	8000d4a <GPIO_VidSet_Pin+0x796>
					case (Pin_12):if(Copy_u8State==Hi){Set_Bit(GPIO_C->BSRR,GPIO_BSRR_12_Set);}
 8000cc0:	797b      	ldrb	r3, [r7, #5]
 8000cc2:	2b0d      	cmp	r3, #13
 8000cc4:	d106      	bne.n	8000cd4 <GPIO_VidSet_Pin+0x720>
 8000cc6:	4a35      	ldr	r2, [pc, #212]	; (8000d9c <GPIO_VidSet_Pin+0x7e8>)
 8000cc8:	4b34      	ldr	r3, [pc, #208]	; (8000d9c <GPIO_VidSet_Pin+0x7e8>)
 8000cca:	699b      	ldr	r3, [r3, #24]
 8000ccc:	f443 5380 	orr.w	r3, r3, #4096	; 0x1000
 8000cd0:	6193      	str	r3, [r2, #24]
								 else Set_Bit(GPIO_C->BSRR,GPIO_BSRR_12_Clear);break;
 8000cd2:	e03a      	b.n	8000d4a <GPIO_VidSet_Pin+0x796>
 8000cd4:	4a31      	ldr	r2, [pc, #196]	; (8000d9c <GPIO_VidSet_Pin+0x7e8>)
 8000cd6:	4b31      	ldr	r3, [pc, #196]	; (8000d9c <GPIO_VidSet_Pin+0x7e8>)
 8000cd8:	699b      	ldr	r3, [r3, #24]
 8000cda:	f043 5380 	orr.w	r3, r3, #268435456	; 0x10000000
 8000cde:	6193      	str	r3, [r2, #24]
 8000ce0:	e033      	b.n	8000d4a <GPIO_VidSet_Pin+0x796>
					case (Pin_13):if(Copy_u8State==Hi){Set_Bit(GPIO_C->BSRR,GPIO_BSRR_13_Set);}
 8000ce2:	797b      	ldrb	r3, [r7, #5]
 8000ce4:	2b0d      	cmp	r3, #13
 8000ce6:	d106      	bne.n	8000cf6 <GPIO_VidSet_Pin+0x742>
 8000ce8:	4a2c      	ldr	r2, [pc, #176]	; (8000d9c <GPIO_VidSet_Pin+0x7e8>)
 8000cea:	4b2c      	ldr	r3, [pc, #176]	; (8000d9c <GPIO_VidSet_Pin+0x7e8>)
 8000cec:	699b      	ldr	r3, [r3, #24]
 8000cee:	f443 5300 	orr.w	r3, r3, #8192	; 0x2000
 8000cf2:	6193      	str	r3, [r2, #24]
								 else Set_Bit(GPIO_C->BSRR,GPIO_BSRR_13_Clear);break;
 8000cf4:	e029      	b.n	8000d4a <GPIO_VidSet_Pin+0x796>
 8000cf6:	4a29      	ldr	r2, [pc, #164]	; (8000d9c <GPIO_VidSet_Pin+0x7e8>)
 8000cf8:	4b28      	ldr	r3, [pc, #160]	; (8000d9c <GPIO_VidSet_Pin+0x7e8>)
 8000cfa:	699b      	ldr	r3, [r3, #24]
 8000cfc:	f043 5300 	orr.w	r3, r3, #536870912	; 0x20000000
 8000d00:	6193      	str	r3, [r2, #24]
 8000d02:	e022      	b.n	8000d4a <GPIO_VidSet_Pin+0x796>
					case (Pin_14):if(Copy_u8State==Hi){Set_Bit(GPIO_C->BSRR,GPIO_BSRR_14_Set);}
 8000d04:	797b      	ldrb	r3, [r7, #5]
 8000d06:	2b0d      	cmp	r3, #13
 8000d08:	d106      	bne.n	8000d18 <GPIO_VidSet_Pin+0x764>
 8000d0a:	4a24      	ldr	r2, [pc, #144]	; (8000d9c <GPIO_VidSet_Pin+0x7e8>)
 8000d0c:	4b23      	ldr	r3, [pc, #140]	; (8000d9c <GPIO_VidSet_Pin+0x7e8>)
 8000d0e:	699b      	ldr	r3, [r3, #24]
 8000d10:	f443 4380 	orr.w	r3, r3, #16384	; 0x4000
 8000d14:	6193      	str	r3, [r2, #24]
								 else Set_Bit(GPIO_C->BSRR,GPIO_BSRR_14_Clear);break;
 8000d16:	e018      	b.n	8000d4a <GPIO_VidSet_Pin+0x796>
 8000d18:	4a20      	ldr	r2, [pc, #128]	; (8000d9c <GPIO_VidSet_Pin+0x7e8>)
 8000d1a:	4b20      	ldr	r3, [pc, #128]	; (8000d9c <GPIO_VidSet_Pin+0x7e8>)
 8000d1c:	699b      	ldr	r3, [r3, #24]
 8000d1e:	f043 4380 	orr.w	r3, r3, #1073741824	; 0x40000000
 8000d22:	6193      	str	r3, [r2, #24]
 8000d24:	e011      	b.n	8000d4a <GPIO_VidSet_Pin+0x796>
					case (Pin_15):if(Copy_u8State==Hi){Set_Bit(GPIO_C->BSRR,GPIO_BSRR_15_Set);}
 8000d26:	797b      	ldrb	r3, [r7, #5]
 8000d28:	2b0d      	cmp	r3, #13
 8000d2a:	d106      	bne.n	8000d3a <GPIO_VidSet_Pin+0x786>
 8000d2c:	4a1b      	ldr	r2, [pc, #108]	; (8000d9c <GPIO_VidSet_Pin+0x7e8>)
 8000d2e:	4b1b      	ldr	r3, [pc, #108]	; (8000d9c <GPIO_VidSet_Pin+0x7e8>)
 8000d30:	699b      	ldr	r3, [r3, #24]
 8000d32:	f443 4300 	orr.w	r3, r3, #32768	; 0x8000
 8000d36:	6193      	str	r3, [r2, #24]
								 else Set_Bit(GPIO_C->BSRR,GPIO_BSRR_15_Clear);break;
 8000d38:	e007      	b.n	8000d4a <GPIO_VidSet_Pin+0x796>
 8000d3a:	4a18      	ldr	r2, [pc, #96]	; (8000d9c <GPIO_VidSet_Pin+0x7e8>)
 8000d3c:	4b17      	ldr	r3, [pc, #92]	; (8000d9c <GPIO_VidSet_Pin+0x7e8>)
 8000d3e:	699b      	ldr	r3, [r3, #24]
 8000d40:	f043 4300 	orr.w	r3, r3, #2147483648	; 0x80000000
 8000d44:	6193      	str	r3, [r2, #24]
 8000d46:	e000      	b.n	8000d4a <GPIO_VidSet_Pin+0x796>
					default:break;
 8000d48:	bf00      	nop
				}
		break;
 8000d4a:	e278      	b.n	800123e <GPIO_VidSet_Pin+0xc8a>
		case(Port_D):
				switch (Copy_u8Pin)
 8000d4c:	79bb      	ldrb	r3, [r7, #6]
 8000d4e:	2b0f      	cmp	r3, #15
 8000d50:	f200 8136 	bhi.w	8000fc0 <GPIO_VidSet_Pin+0xa0c>
 8000d54:	a201      	add	r2, pc, #4	; (adr r2, 8000d5c <GPIO_VidSet_Pin+0x7a8>)
 8000d56:	f852 f023 	ldr.w	pc, [r2, r3, lsl #2]
 8000d5a:	bf00      	nop
 8000d5c:	08000da1 	.word	0x08000da1
 8000d60:	08000dc3 	.word	0x08000dc3
 8000d64:	08000de5 	.word	0x08000de5
 8000d68:	08000e07 	.word	0x08000e07
 8000d6c:	08000e29 	.word	0x08000e29
 8000d70:	08000e4b 	.word	0x08000e4b
 8000d74:	08000e6d 	.word	0x08000e6d
 8000d78:	08000e8f 	.word	0x08000e8f
 8000d7c:	08000eb1 	.word	0x08000eb1
 8000d80:	08000ed3 	.word	0x08000ed3
 8000d84:	08000ef5 	.word	0x08000ef5
 8000d88:	08000f17 	.word	0x08000f17
 8000d8c:	08000f39 	.word	0x08000f39
 8000d90:	08000f5b 	.word	0x08000f5b
 8000d94:	08000f7d 	.word	0x08000f7d
 8000d98:	08000f9f 	.word	0x08000f9f
 8000d9c:	40020800 	.word	0x40020800
				{
					case (Pin_0):if(Copy_u8State==Hi){Set_Bit(GPIO_D->BSRR,GPIO_BSRR_0_Set);}
 8000da0:	797b      	ldrb	r3, [r7, #5]
 8000da2:	2b0d      	cmp	r3, #13
 8000da4:	d106      	bne.n	8000db4 <GPIO_VidSet_Pin+0x800>
 8000da6:	4a9b      	ldr	r2, [pc, #620]	; (8001014 <GPIO_VidSet_Pin+0xa60>)
 8000da8:	4b9a      	ldr	r3, [pc, #616]	; (8001014 <GPIO_VidSet_Pin+0xa60>)
 8000daa:	699b      	ldr	r3, [r3, #24]
 8000dac:	f043 0301 	orr.w	r3, r3, #1
 8000db0:	6193      	str	r3, [r2, #24]
								 else Set_Bit(GPIO_D->BSRR,GPIO_BSRR_0_Clear);break;
 8000db2:	e106      	b.n	8000fc2 <GPIO_VidSet_Pin+0xa0e>
 8000db4:	4a97      	ldr	r2, [pc, #604]	; (8001014 <GPIO_VidSet_Pin+0xa60>)
 8000db6:	4b97      	ldr	r3, [pc, #604]	; (8001014 <GPIO_VidSet_Pin+0xa60>)
 8000db8:	699b      	ldr	r3, [r3, #24]
 8000dba:	f443 3380 	orr.w	r3, r3, #65536	; 0x10000
 8000dbe:	6193      	str	r3, [r2, #24]
 8000dc0:	e0ff      	b.n	8000fc2 <GPIO_VidSet_Pin+0xa0e>
					case (Pin_1):if(Copy_u8State==Hi){Set_Bit(GPIO_D->BSRR,GPIO_BSRR_1_Set);}
 8000dc2:	797b      	ldrb	r3, [r7, #5]
 8000dc4:	2b0d      	cmp	r3, #13
 8000dc6:	d106      	bne.n	8000dd6 <GPIO_VidSet_Pin+0x822>
 8000dc8:	4a92      	ldr	r2, [pc, #584]	; (8001014 <GPIO_VidSet_Pin+0xa60>)
 8000dca:	4b92      	ldr	r3, [pc, #584]	; (8001014 <GPIO_VidSet_Pin+0xa60>)
 8000dcc:	699b      	ldr	r3, [r3, #24]
 8000dce:	f043 0302 	orr.w	r3, r3, #2
 8000dd2:	6193      	str	r3, [r2, #24]
								 else Set_Bit(GPIO_D->BSRR,GPIO_BSRR_1_Clear);break;
 8000dd4:	e0f5      	b.n	8000fc2 <GPIO_VidSet_Pin+0xa0e>
 8000dd6:	4a8f      	ldr	r2, [pc, #572]	; (8001014 <GPIO_VidSet_Pin+0xa60>)
 8000dd8:	4b8e      	ldr	r3, [pc, #568]	; (8001014 <GPIO_VidSet_Pin+0xa60>)
 8000dda:	699b      	ldr	r3, [r3, #24]
 8000ddc:	f443 3300 	orr.w	r3, r3, #131072	; 0x20000
 8000de0:	6193      	str	r3, [r2, #24]
 8000de2:	e0ee      	b.n	8000fc2 <GPIO_VidSet_Pin+0xa0e>
					case (Pin_2):if(Copy_u8State==Hi){Set_Bit(GPIO_D->BSRR,GPIO_BSRR_2_Set);}
 8000de4:	797b      	ldrb	r3, [r7, #5]
 8000de6:	2b0d      	cmp	r3, #13
 8000de8:	d106      	bne.n	8000df8 <GPIO_VidSet_Pin+0x844>
 8000dea:	4a8a      	ldr	r2, [pc, #552]	; (8001014 <GPIO_VidSet_Pin+0xa60>)
 8000dec:	4b89      	ldr	r3, [pc, #548]	; (8001014 <GPIO_VidSet_Pin+0xa60>)
 8000dee:	699b      	ldr	r3, [r3, #24]
 8000df0:	f043 0304 	orr.w	r3, r3, #4
 8000df4:	6193      	str	r3, [r2, #24]
								 else Set_Bit(GPIO_D->BSRR,GPIO_BSRR_2_Clear);break;
 8000df6:	e0e4      	b.n	8000fc2 <GPIO_VidSet_Pin+0xa0e>
 8000df8:	4a86      	ldr	r2, [pc, #536]	; (8001014 <GPIO_VidSet_Pin+0xa60>)
 8000dfa:	4b86      	ldr	r3, [pc, #536]	; (8001014 <GPIO_VidSet_Pin+0xa60>)
 8000dfc:	699b      	ldr	r3, [r3, #24]
 8000dfe:	f443 2380 	orr.w	r3, r3, #262144	; 0x40000
 8000e02:	6193      	str	r3, [r2, #24]
 8000e04:	e0dd      	b.n	8000fc2 <GPIO_VidSet_Pin+0xa0e>
					case (Pin_3):if(Copy_u8State==Hi){Set_Bit(GPIO_D->BSRR,GPIO_BSRR_3_Set);}
 8000e06:	797b      	ldrb	r3, [r7, #5]
 8000e08:	2b0d      	cmp	r3, #13
 8000e0a:	d106      	bne.n	8000e1a <GPIO_VidSet_Pin+0x866>
 8000e0c:	4a81      	ldr	r2, [pc, #516]	; (8001014 <GPIO_VidSet_Pin+0xa60>)
 8000e0e:	4b81      	ldr	r3, [pc, #516]	; (8001014 <GPIO_VidSet_Pin+0xa60>)
 8000e10:	699b      	ldr	r3, [r3, #24]
 8000e12:	f043 0308 	orr.w	r3, r3, #8
 8000e16:	6193      	str	r3, [r2, #24]
								 else Set_Bit(GPIO_D->BSRR,GPIO_BSRR_3_Clear);break;
 8000e18:	e0d3      	b.n	8000fc2 <GPIO_VidSet_Pin+0xa0e>
 8000e1a:	4a7e      	ldr	r2, [pc, #504]	; (8001014 <GPIO_VidSet_Pin+0xa60>)
 8000e1c:	4b7d      	ldr	r3, [pc, #500]	; (8001014 <GPIO_VidSet_Pin+0xa60>)
 8000e1e:	699b      	ldr	r3, [r3, #24]
 8000e20:	f443 2300 	orr.w	r3, r3, #524288	; 0x80000
 8000e24:	6193      	str	r3, [r2, #24]
 8000e26:	e0cc      	b.n	8000fc2 <GPIO_VidSet_Pin+0xa0e>
					case (Pin_4):if(Copy_u8State==Hi){Set_Bit(GPIO_D->BSRR,GPIO_BSRR_4_Set);}
 8000e28:	797b      	ldrb	r3, [r7, #5]
 8000e2a:	2b0d      	cmp	r3, #13
 8000e2c:	d106      	bne.n	8000e3c <GPIO_VidSet_Pin+0x888>
 8000e2e:	4a79      	ldr	r2, [pc, #484]	; (8001014 <GPIO_VidSet_Pin+0xa60>)
 8000e30:	4b78      	ldr	r3, [pc, #480]	; (8001014 <GPIO_VidSet_Pin+0xa60>)
 8000e32:	699b      	ldr	r3, [r3, #24]
 8000e34:	f043 0310 	orr.w	r3, r3, #16
 8000e38:	6193      	str	r3, [r2, #24]
								 else Set_Bit(GPIO_D->BSRR,GPIO_BSRR_4_Clear);break;
 8000e3a:	e0c2      	b.n	8000fc2 <GPIO_VidSet_Pin+0xa0e>
 8000e3c:	4a75      	ldr	r2, [pc, #468]	; (8001014 <GPIO_VidSet_Pin+0xa60>)
 8000e3e:	4b75      	ldr	r3, [pc, #468]	; (8001014 <GPIO_VidSet_Pin+0xa60>)
 8000e40:	699b      	ldr	r3, [r3, #24]
 8000e42:	f443 1380 	orr.w	r3, r3, #1048576	; 0x100000
 8000e46:	6193      	str	r3, [r2, #24]
 8000e48:	e0bb      	b.n	8000fc2 <GPIO_VidSet_Pin+0xa0e>
					case (Pin_5):if(Copy_u8State==Hi){Set_Bit(GPIO_D->BSRR,GPIO_BSRR_5_Set);}
 8000e4a:	797b      	ldrb	r3, [r7, #5]
 8000e4c:	2b0d      	cmp	r3, #13
 8000e4e:	d106      	bne.n	8000e5e <GPIO_VidSet_Pin+0x8aa>
 8000e50:	4a70      	ldr	r2, [pc, #448]	; (8001014 <GPIO_VidSet_Pin+0xa60>)
 8000e52:	4b70      	ldr	r3, [pc, #448]	; (8001014 <GPIO_VidSet_Pin+0xa60>)
 8000e54:	699b      	ldr	r3, [r3, #24]
 8000e56:	f043 0320 	orr.w	r3, r3, #32
 8000e5a:	6193      	str	r3, [r2, #24]
								 else Set_Bit(GPIO_D->BSRR,GPIO_BSRR_5_Clear);break;
 8000e5c:	e0b1      	b.n	8000fc2 <GPIO_VidSet_Pin+0xa0e>
 8000e5e:	4a6d      	ldr	r2, [pc, #436]	; (8001014 <GPIO_VidSet_Pin+0xa60>)
 8000e60:	4b6c      	ldr	r3, [pc, #432]	; (8001014 <GPIO_VidSet_Pin+0xa60>)
 8000e62:	699b      	ldr	r3, [r3, #24]
 8000e64:	f443 1300 	orr.w	r3, r3, #2097152	; 0x200000
 8000e68:	6193      	str	r3, [r2, #24]
 8000e6a:	e0aa      	b.n	8000fc2 <GPIO_VidSet_Pin+0xa0e>
					case (Pin_6):if(Copy_u8State==Hi){Set_Bit(GPIO_D->BSRR,GPIO_BSRR_6_Set);}
 8000e6c:	797b      	ldrb	r3, [r7, #5]
 8000e6e:	2b0d      	cmp	r3, #13
 8000e70:	d106      	bne.n	8000e80 <GPIO_VidSet_Pin+0x8cc>
 8000e72:	4a68      	ldr	r2, [pc, #416]	; (8001014 <GPIO_VidSet_Pin+0xa60>)
 8000e74:	4b67      	ldr	r3, [pc, #412]	; (8001014 <GPIO_VidSet_Pin+0xa60>)
 8000e76:	699b      	ldr	r3, [r3, #24]
 8000e78:	f043 0340 	orr.w	r3, r3, #64	; 0x40
 8000e7c:	6193      	str	r3, [r2, #24]
								 else Set_Bit(GPIO_D->BSRR,GPIO_BSRR_6_Clear);break;
 8000e7e:	e0a0      	b.n	8000fc2 <GPIO_VidSet_Pin+0xa0e>
 8000e80:	4a64      	ldr	r2, [pc, #400]	; (8001014 <GPIO_VidSet_Pin+0xa60>)
 8000e82:	4b64      	ldr	r3, [pc, #400]	; (8001014 <GPIO_VidSet_Pin+0xa60>)
 8000e84:	699b      	ldr	r3, [r3, #24]
 8000e86:	f443 0380 	orr.w	r3, r3, #4194304	; 0x400000
 8000e8a:	6193      	str	r3, [r2, #24]
 8000e8c:	e099      	b.n	8000fc2 <GPIO_VidSet_Pin+0xa0e>
					case (Pin_7):if(Copy_u8State==Hi){Set_Bit(GPIO_D->BSRR,GPIO_BSRR_7_Set);}
 8000e8e:	797b      	ldrb	r3, [r7, #5]
 8000e90:	2b0d      	cmp	r3, #13
 8000e92:	d106      	bne.n	8000ea2 <GPIO_VidSet_Pin+0x8ee>
 8000e94:	4a5f      	ldr	r2, [pc, #380]	; (8001014 <GPIO_VidSet_Pin+0xa60>)
 8000e96:	4b5f      	ldr	r3, [pc, #380]	; (8001014 <GPIO_VidSet_Pin+0xa60>)
 8000e98:	699b      	ldr	r3, [r3, #24]
 8000e9a:	f043 0380 	orr.w	r3, r3, #128	; 0x80
 8000e9e:	6193      	str	r3, [r2, #24]
								 else Set_Bit(GPIO_D->BSRR,GPIO_BSRR_7_Clear);break;
 8000ea0:	e08f      	b.n	8000fc2 <GPIO_VidSet_Pin+0xa0e>
 8000ea2:	4a5c      	ldr	r2, [pc, #368]	; (8001014 <GPIO_VidSet_Pin+0xa60>)
 8000ea4:	4b5b      	ldr	r3, [pc, #364]	; (8001014 <GPIO_VidSet_Pin+0xa60>)
 8000ea6:	699b      	ldr	r3, [r3, #24]
 8000ea8:	f443 0300 	orr.w	r3, r3, #8388608	; 0x800000
 8000eac:	6193      	str	r3, [r2, #24]
 8000eae:	e088      	b.n	8000fc2 <GPIO_VidSet_Pin+0xa0e>
					case (Pin_8):if(Copy_u8State==Hi){Set_Bit(GPIO_D->BSRR,GPIO_BSRR_8_Set);}
 8000eb0:	797b      	ldrb	r3, [r7, #5]
 8000eb2:	2b0d      	cmp	r3, #13
 8000eb4:	d106      	bne.n	8000ec4 <GPIO_VidSet_Pin+0x910>
 8000eb6:	4a57      	ldr	r2, [pc, #348]	; (8001014 <GPIO_VidSet_Pin+0xa60>)
 8000eb8:	4b56      	ldr	r3, [pc, #344]	; (8001014 <GPIO_VidSet_Pin+0xa60>)
 8000eba:	699b      	ldr	r3, [r3, #24]
 8000ebc:	f443 7380 	orr.w	r3, r3, #256	; 0x100
 8000ec0:	6193      	str	r3, [r2, #24]
								 else Set_Bit(GPIO_D->BSRR,GPIO_BSRR_8_Clear);break;
 8000ec2:	e07e      	b.n	8000fc2 <GPIO_VidSet_Pin+0xa0e>
 8000ec4:	4a53      	ldr	r2, [pc, #332]	; (8001014 <GPIO_VidSet_Pin+0xa60>)
 8000ec6:	4b53      	ldr	r3, [pc, #332]	; (8001014 <GPIO_VidSet_Pin+0xa60>)
 8000ec8:	699b      	ldr	r3, [r3, #24]
 8000eca:	f043 7380 	orr.w	r3, r3, #16777216	; 0x1000000
 8000ece:	6193      	str	r3, [r2, #24]
 8000ed0:	e077      	b.n	8000fc2 <GPIO_VidSet_Pin+0xa0e>
					case (Pin_9):if(Copy_u8State==Hi){Set_Bit(GPIO_D->BSRR,GPIO_BSRR_9_Set);}
 8000ed2:	797b      	ldrb	r3, [r7, #5]
 8000ed4:	2b0d      	cmp	r3, #13
 8000ed6:	d106      	bne.n	8000ee6 <GPIO_VidSet_Pin+0x932>
 8000ed8:	4a4e      	ldr	r2, [pc, #312]	; (8001014 <GPIO_VidSet_Pin+0xa60>)
 8000eda:	4b4e      	ldr	r3, [pc, #312]	; (8001014 <GPIO_VidSet_Pin+0xa60>)
 8000edc:	699b      	ldr	r3, [r3, #24]
 8000ede:	f443 7300 	orr.w	r3, r3, #512	; 0x200
 8000ee2:	6193      	str	r3, [r2, #24]
								 else Set_Bit(GPIO_D->BSRR,GPIO_BSRR_9_Clear);break;
 8000ee4:	e06d      	b.n	8000fc2 <GPIO_VidSet_Pin+0xa0e>
 8000ee6:	4a4b      	ldr	r2, [pc, #300]	; (8001014 <GPIO_VidSet_Pin+0xa60>)
 8000ee8:	4b4a      	ldr	r3, [pc, #296]	; (8001014 <GPIO_VidSet_Pin+0xa60>)
 8000eea:	699b      	ldr	r3, [r3, #24]
 8000eec:	f043 7300 	orr.w	r3, r3, #33554432	; 0x2000000
 8000ef0:	6193      	str	r3, [r2, #24]
 8000ef2:	e066      	b.n	8000fc2 <GPIO_VidSet_Pin+0xa0e>
					case (Pin_10):if(Copy_u8State==Hi){Set_Bit(GPIO_D->BSRR,GPIO_BSRR_10_Set);}
 8000ef4:	797b      	ldrb	r3, [r7, #5]
 8000ef6:	2b0d      	cmp	r3, #13
 8000ef8:	d106      	bne.n	8000f08 <GPIO_VidSet_Pin+0x954>
 8000efa:	4a46      	ldr	r2, [pc, #280]	; (8001014 <GPIO_VidSet_Pin+0xa60>)
 8000efc:	4b45      	ldr	r3, [pc, #276]	; (8001014 <GPIO_VidSet_Pin+0xa60>)
 8000efe:	699b      	ldr	r3, [r3, #24]
 8000f00:	f443 6380 	orr.w	r3, r3, #1024	; 0x400
 8000f04:	6193      	str	r3, [r2, #24]
								 else Set_Bit(GPIO_D->BSRR,GPIO_BSRR_10_Clear);break;
 8000f06:	e05c      	b.n	8000fc2 <GPIO_VidSet_Pin+0xa0e>
 8000f08:	4a42      	ldr	r2, [pc, #264]	; (8001014 <GPIO_VidSet_Pin+0xa60>)
 8000f0a:	4b42      	ldr	r3, [pc, #264]	; (8001014 <GPIO_VidSet_Pin+0xa60>)
 8000f0c:	699b      	ldr	r3, [r3, #24]
 8000f0e:	f043 6380 	orr.w	r3, r3, #67108864	; 0x4000000
 8000f12:	6193      	str	r3, [r2, #24]
 8000f14:	e055      	b.n	8000fc2 <GPIO_VidSet_Pin+0xa0e>
					case (Pin_11):if(Copy_u8State==Hi){Set_Bit(GPIO_D->BSRR,GPIO_BSRR_11_Set);}
 8000f16:	797b      	ldrb	r3, [r7, #5]
 8000f18:	2b0d      	cmp	r3, #13
 8000f1a:	d106      	bne.n	8000f2a <GPIO_VidSet_Pin+0x976>
 8000f1c:	4a3d      	ldr	r2, [pc, #244]	; (8001014 <GPIO_VidSet_Pin+0xa60>)
 8000f1e:	4b3d      	ldr	r3, [pc, #244]	; (8001014 <GPIO_VidSet_Pin+0xa60>)
 8000f20:	699b      	ldr	r3, [r3, #24]
 8000f22:	f443 6300 	orr.w	r3, r3, #2048	; 0x800
 8000f26:	6193      	str	r3, [r2, #24]
								 else Set_Bit(GPIO_D->BSRR,GPIO_BSRR_11_Clear);break;
 8000f28:	e04b      	b.n	8000fc2 <GPIO_VidSet_Pin+0xa0e>
 8000f2a:	4a3a      	ldr	r2, [pc, #232]	; (8001014 <GPIO_VidSet_Pin+0xa60>)
 8000f2c:	4b39      	ldr	r3, [pc, #228]	; (8001014 <GPIO_VidSet_Pin+0xa60>)
 8000f2e:	699b      	ldr	r3, [r3, #24]
 8000f30:	f043 6300 	orr.w	r3, r3, #134217728	; 0x8000000
 8000f34:	6193      	str	r3, [r2, #24]
 8000f36:	e044      	b.n	8000fc2 <GPIO_VidSet_Pin+0xa0e>
					case (Pin_12):if(Copy_u8State==Hi){Set_Bit(GPIO_D->BSRR,GPIO_BSRR_12_Set);}
 8000f38:	797b      	ldrb	r3, [r7, #5]
 8000f3a:	2b0d      	cmp	r3, #13
 8000f3c:	d106      	bne.n	8000f4c <GPIO_VidSet_Pin+0x998>
 8000f3e:	4a35      	ldr	r2, [pc, #212]	; (8001014 <GPIO_VidSet_Pin+0xa60>)
 8000f40:	4b34      	ldr	r3, [pc, #208]	; (8001014 <GPIO_VidSet_Pin+0xa60>)
 8000f42:	699b      	ldr	r3, [r3, #24]
 8000f44:	f443 5380 	orr.w	r3, r3, #4096	; 0x1000
 8000f48:	6193      	str	r3, [r2, #24]
								 else Set_Bit(GPIO_D->BSRR,GPIO_BSRR_12_Clear);break;
 8000f4a:	e03a      	b.n	8000fc2 <GPIO_VidSet_Pin+0xa0e>
 8000f4c:	4a31      	ldr	r2, [pc, #196]	; (8001014 <GPIO_VidSet_Pin+0xa60>)
 8000f4e:	4b31      	ldr	r3, [pc, #196]	; (8001014 <GPIO_VidSet_Pin+0xa60>)
 8000f50:	699b      	ldr	r3, [r3, #24]
 8000f52:	f043 5380 	orr.w	r3, r3, #268435456	; 0x10000000
 8000f56:	6193      	str	r3, [r2, #24]
 8000f58:	e033      	b.n	8000fc2 <GPIO_VidSet_Pin+0xa0e>
					case (Pin_13):if(Copy_u8State==Hi){Set_Bit(GPIO_D->BSRR,GPIO_BSRR_13_Set);}
 8000f5a:	797b      	ldrb	r3, [r7, #5]
 8000f5c:	2b0d      	cmp	r3, #13
 8000f5e:	d106      	bne.n	8000f6e <GPIO_VidSet_Pin+0x9ba>
 8000f60:	4a2c      	ldr	r2, [pc, #176]	; (8001014 <GPIO_VidSet_Pin+0xa60>)
 8000f62:	4b2c      	ldr	r3, [pc, #176]	; (8001014 <GPIO_VidSet_Pin+0xa60>)
 8000f64:	699b      	ldr	r3, [r3, #24]
 8000f66:	f443 5300 	orr.w	r3, r3, #8192	; 0x2000
 8000f6a:	6193      	str	r3, [r2, #24]
								 else Set_Bit(GPIO_D->BSRR,GPIO_BSRR_13_Clear);break;
 8000f6c:	e029      	b.n	8000fc2 <GPIO_VidSet_Pin+0xa0e>
 8000f6e:	4a29      	ldr	r2, [pc, #164]	; (8001014 <GPIO_VidSet_Pin+0xa60>)
 8000f70:	4b28      	ldr	r3, [pc, #160]	; (8001014 <GPIO_VidSet_Pin+0xa60>)
 8000f72:	699b      	ldr	r3, [r3, #24]
 8000f74:	f043 5300 	orr.w	r3, r3, #536870912	; 0x20000000
 8000f78:	6193      	str	r3, [r2, #24]
 8000f7a:	e022      	b.n	8000fc2 <GPIO_VidSet_Pin+0xa0e>
					case (Pin_14):if(Copy_u8State==Hi){Set_Bit(GPIO_D->BSRR,GPIO_BSRR_14_Set);}
 8000f7c:	797b      	ldrb	r3, [r7, #5]
 8000f7e:	2b0d      	cmp	r3, #13
 8000f80:	d106      	bne.n	8000f90 <GPIO_VidSet_Pin+0x9dc>
 8000f82:	4a24      	ldr	r2, [pc, #144]	; (8001014 <GPIO_VidSet_Pin+0xa60>)
 8000f84:	4b23      	ldr	r3, [pc, #140]	; (8001014 <GPIO_VidSet_Pin+0xa60>)
 8000f86:	699b      	ldr	r3, [r3, #24]
 8000f88:	f443 4380 	orr.w	r3, r3, #16384	; 0x4000
 8000f8c:	6193      	str	r3, [r2, #24]
								 else Set_Bit(GPIO_D->BSRR,GPIO_BSRR_14_Clear);break;
 8000f8e:	e018      	b.n	8000fc2 <GPIO_VidSet_Pin+0xa0e>
 8000f90:	4a20      	ldr	r2, [pc, #128]	; (8001014 <GPIO_VidSet_Pin+0xa60>)
 8000f92:	4b20      	ldr	r3, [pc, #128]	; (8001014 <GPIO_VidSet_Pin+0xa60>)
 8000f94:	699b      	ldr	r3, [r3, #24]
 8000f96:	f043 4380 	orr.w	r3, r3, #1073741824	; 0x40000000
 8000f9a:	6193      	str	r3, [r2, #24]
 8000f9c:	e011      	b.n	8000fc2 <GPIO_VidSet_Pin+0xa0e>
					case (Pin_15):if(Copy_u8State==Hi){Set_Bit(GPIO_D->BSRR,GPIO_BSRR_15_Set);}
 8000f9e:	797b      	ldrb	r3, [r7, #5]
 8000fa0:	2b0d      	cmp	r3, #13
 8000fa2:	d106      	bne.n	8000fb2 <GPIO_VidSet_Pin+0x9fe>
 8000fa4:	4a1b      	ldr	r2, [pc, #108]	; (8001014 <GPIO_VidSet_Pin+0xa60>)
 8000fa6:	4b1b      	ldr	r3, [pc, #108]	; (8001014 <GPIO_VidSet_Pin+0xa60>)
 8000fa8:	699b      	ldr	r3, [r3, #24]
 8000faa:	f443 4300 	orr.w	r3, r3, #32768	; 0x8000
 8000fae:	6193      	str	r3, [r2, #24]
								 else Set_Bit(GPIO_D->BSRR,GPIO_BSRR_15_Clear);break;
 8000fb0:	e007      	b.n	8000fc2 <GPIO_VidSet_Pin+0xa0e>
 8000fb2:	4a18      	ldr	r2, [pc, #96]	; (8001014 <GPIO_VidSet_Pin+0xa60>)
 8000fb4:	4b17      	ldr	r3, [pc, #92]	; (8001014 <GPIO_VidSet_Pin+0xa60>)
 8000fb6:	699b      	ldr	r3, [r3, #24]
 8000fb8:	f043 4300 	orr.w	r3, r3, #2147483648	; 0x80000000
 8000fbc:	6193      	str	r3, [r2, #24]
 8000fbe:	e000      	b.n	8000fc2 <GPIO_VidSet_Pin+0xa0e>
					default:break;
 8000fc0:	bf00      	nop
				}
		break;
 8000fc2:	e13c      	b.n	800123e <GPIO_VidSet_Pin+0xc8a>
		case(Port_E):
				switch (Copy_u8Pin)
 8000fc4:	79bb      	ldrb	r3, [r7, #6]
 8000fc6:	2b0f      	cmp	r3, #15
 8000fc8:	f200 8136 	bhi.w	8001238 <GPIO_VidSet_Pin+0xc84>
 8000fcc:	a201      	add	r2, pc, #4	; (adr r2, 8000fd4 <GPIO_VidSet_Pin+0xa20>)
 8000fce:	f852 f023 	ldr.w	pc, [r2, r3, lsl #2]
 8000fd2:	bf00      	nop
 8000fd4:	08001019 	.word	0x08001019
 8000fd8:	0800103b 	.word	0x0800103b
 8000fdc:	0800105d 	.word	0x0800105d
 8000fe0:	0800107f 	.word	0x0800107f
 8000fe4:	080010a1 	.word	0x080010a1
 8000fe8:	080010c3 	.word	0x080010c3
 8000fec:	080010e5 	.word	0x080010e5
 8000ff0:	08001107 	.word	0x08001107
 8000ff4:	08001129 	.word	0x08001129
 8000ff8:	0800114b 	.word	0x0800114b
 8000ffc:	0800116d 	.word	0x0800116d
 8001000:	0800118f 	.word	0x0800118f
 8001004:	080011b1 	.word	0x080011b1
 8001008:	080011d3 	.word	0x080011d3
 800100c:	080011f5 	.word	0x080011f5
 8001010:	08001217 	.word	0x08001217
 8001014:	40020c00 	.word	0x40020c00
				{
					case (Pin_0):if(Copy_u8State==Hi){Set_Bit(GPIO_E->BSRR,GPIO_BSRR_0_Set);}
 8001018:	797b      	ldrb	r3, [r7, #5]
 800101a:	2b0d      	cmp	r3, #13
 800101c:	d106      	bne.n	800102c <GPIO_VidSet_Pin+0xa78>
 800101e:	4a8b      	ldr	r2, [pc, #556]	; (800124c <GPIO_VidSet_Pin+0xc98>)
 8001020:	4b8a      	ldr	r3, [pc, #552]	; (800124c <GPIO_VidSet_Pin+0xc98>)
 8001022:	699b      	ldr	r3, [r3, #24]
 8001024:	f043 0301 	orr.w	r3, r3, #1
 8001028:	6193      	str	r3, [r2, #24]
								 else Set_Bit(GPIO_E->BSRR,GPIO_BSRR_0_Clear);break;
 800102a:	e106      	b.n	800123a <GPIO_VidSet_Pin+0xc86>
 800102c:	4a87      	ldr	r2, [pc, #540]	; (800124c <GPIO_VidSet_Pin+0xc98>)
 800102e:	4b87      	ldr	r3, [pc, #540]	; (800124c <GPIO_VidSet_Pin+0xc98>)
 8001030:	699b      	ldr	r3, [r3, #24]
 8001032:	f443 3380 	orr.w	r3, r3, #65536	; 0x10000
 8001036:	6193      	str	r3, [r2, #24]
 8001038:	e0ff      	b.n	800123a <GPIO_VidSet_Pin+0xc86>
					case (Pin_1):if(Copy_u8State==Hi){Set_Bit(GPIO_E->BSRR,GPIO_BSRR_1_Set);}
 800103a:	797b      	ldrb	r3, [r7, #5]
 800103c:	2b0d      	cmp	r3, #13
 800103e:	d106      	bne.n	800104e <GPIO_VidSet_Pin+0xa9a>
 8001040:	4a82      	ldr	r2, [pc, #520]	; (800124c <GPIO_VidSet_Pin+0xc98>)
 8001042:	4b82      	ldr	r3, [pc, #520]	; (800124c <GPIO_VidSet_Pin+0xc98>)
 8001044:	699b      	ldr	r3, [r3, #24]
 8001046:	f043 0302 	orr.w	r3, r3, #2
 800104a:	6193      	str	r3, [r2, #24]
								 else Set_Bit(GPIO_E->BSRR,GPIO_BSRR_1_Clear);break;
 800104c:	e0f5      	b.n	800123a <GPIO_VidSet_Pin+0xc86>
 800104e:	4a7f      	ldr	r2, [pc, #508]	; (800124c <GPIO_VidSet_Pin+0xc98>)
 8001050:	4b7e      	ldr	r3, [pc, #504]	; (800124c <GPIO_VidSet_Pin+0xc98>)
 8001052:	699b      	ldr	r3, [r3, #24]
 8001054:	f443 3300 	orr.w	r3, r3, #131072	; 0x20000
 8001058:	6193      	str	r3, [r2, #24]
 800105a:	e0ee      	b.n	800123a <GPIO_VidSet_Pin+0xc86>
					case (Pin_2):if(Copy_u8State==Hi){Set_Bit(GPIO_E->BSRR,GPIO_BSRR_2_Set);}
 800105c:	797b      	ldrb	r3, [r7, #5]
 800105e:	2b0d      	cmp	r3, #13
 8001060:	d106      	bne.n	8001070 <GPIO_VidSet_Pin+0xabc>
 8001062:	4a7a      	ldr	r2, [pc, #488]	; (800124c <GPIO_VidSet_Pin+0xc98>)
 8001064:	4b79      	ldr	r3, [pc, #484]	; (800124c <GPIO_VidSet_Pin+0xc98>)
 8001066:	699b      	ldr	r3, [r3, #24]
 8001068:	f043 0304 	orr.w	r3, r3, #4
 800106c:	6193      	str	r3, [r2, #24]
								 else Set_Bit(GPIO_E->BSRR,GPIO_BSRR_2_Clear);break;
 800106e:	e0e4      	b.n	800123a <GPIO_VidSet_Pin+0xc86>
 8001070:	4a76      	ldr	r2, [pc, #472]	; (800124c <GPIO_VidSet_Pin+0xc98>)
 8001072:	4b76      	ldr	r3, [pc, #472]	; (800124c <GPIO_VidSet_Pin+0xc98>)
 8001074:	699b      	ldr	r3, [r3, #24]
 8001076:	f443 2380 	orr.w	r3, r3, #262144	; 0x40000
 800107a:	6193      	str	r3, [r2, #24]
 800107c:	e0dd      	b.n	800123a <GPIO_VidSet_Pin+0xc86>
					case (Pin_3):if(Copy_u8State==Hi){Set_Bit(GPIO_E->BSRR,GPIO_BSRR_3_Set);}
 800107e:	797b      	ldrb	r3, [r7, #5]
 8001080:	2b0d      	cmp	r3, #13
 8001082:	d106      	bne.n	8001092 <GPIO_VidSet_Pin+0xade>
 8001084:	4a71      	ldr	r2, [pc, #452]	; (800124c <GPIO_VidSet_Pin+0xc98>)
 8001086:	4b71      	ldr	r3, [pc, #452]	; (800124c <GPIO_VidSet_Pin+0xc98>)
 8001088:	699b      	ldr	r3, [r3, #24]
 800108a:	f043 0308 	orr.w	r3, r3, #8
 800108e:	6193      	str	r3, [r2, #24]
								 else Set_Bit(GPIO_E->BSRR,GPIO_BSRR_3_Clear);break;
 8001090:	e0d3      	b.n	800123a <GPIO_VidSet_Pin+0xc86>
 8001092:	4a6e      	ldr	r2, [pc, #440]	; (800124c <GPIO_VidSet_Pin+0xc98>)
 8001094:	4b6d      	ldr	r3, [pc, #436]	; (800124c <GPIO_VidSet_Pin+0xc98>)
 8001096:	699b      	ldr	r3, [r3, #24]
 8001098:	f443 2300 	orr.w	r3, r3, #524288	; 0x80000
 800109c:	6193      	str	r3, [r2, #24]
 800109e:	e0cc      	b.n	800123a <GPIO_VidSet_Pin+0xc86>
					case (Pin_4):if(Copy_u8State==Hi){Set_Bit(GPIO_E->BSRR,GPIO_BSRR_4_Set);}
 80010a0:	797b      	ldrb	r3, [r7, #5]
 80010a2:	2b0d      	cmp	r3, #13
 80010a4:	d106      	bne.n	80010b4 <GPIO_VidSet_Pin+0xb00>
 80010a6:	4a69      	ldr	r2, [pc, #420]	; (800124c <GPIO_VidSet_Pin+0xc98>)
 80010a8:	4b68      	ldr	r3, [pc, #416]	; (800124c <GPIO_VidSet_Pin+0xc98>)
 80010aa:	699b      	ldr	r3, [r3, #24]
 80010ac:	f043 0310 	orr.w	r3, r3, #16
 80010b0:	6193      	str	r3, [r2, #24]
								 else Set_Bit(GPIO_E->BSRR,GPIO_BSRR_4_Clear);break;
 80010b2:	e0c2      	b.n	800123a <GPIO_VidSet_Pin+0xc86>
 80010b4:	4a65      	ldr	r2, [pc, #404]	; (800124c <GPIO_VidSet_Pin+0xc98>)
 80010b6:	4b65      	ldr	r3, [pc, #404]	; (800124c <GPIO_VidSet_Pin+0xc98>)
 80010b8:	699b      	ldr	r3, [r3, #24]
 80010ba:	f443 1380 	orr.w	r3, r3, #1048576	; 0x100000
 80010be:	6193      	str	r3, [r2, #24]
 80010c0:	e0bb      	b.n	800123a <GPIO_VidSet_Pin+0xc86>
					case (Pin_5):if(Copy_u8State==Hi){Set_Bit(GPIO_E->BSRR,GPIO_BSRR_5_Set);}
 80010c2:	797b      	ldrb	r3, [r7, #5]
 80010c4:	2b0d      	cmp	r3, #13
 80010c6:	d106      	bne.n	80010d6 <GPIO_VidSet_Pin+0xb22>
 80010c8:	4a60      	ldr	r2, [pc, #384]	; (800124c <GPIO_VidSet_Pin+0xc98>)
 80010ca:	4b60      	ldr	r3, [pc, #384]	; (800124c <GPIO_VidSet_Pin+0xc98>)
 80010cc:	699b      	ldr	r3, [r3, #24]
 80010ce:	f043 0320 	orr.w	r3, r3, #32
 80010d2:	6193      	str	r3, [r2, #24]
								 else Set_Bit(GPIO_E->BSRR,GPIO_BSRR_5_Clear);break;
 80010d4:	e0b1      	b.n	800123a <GPIO_VidSet_Pin+0xc86>
 80010d6:	4a5d      	ldr	r2, [pc, #372]	; (800124c <GPIO_VidSet_Pin+0xc98>)
 80010d8:	4b5c      	ldr	r3, [pc, #368]	; (800124c <GPIO_VidSet_Pin+0xc98>)
 80010da:	699b      	ldr	r3, [r3, #24]
 80010dc:	f443 1300 	orr.w	r3, r3, #2097152	; 0x200000
 80010e0:	6193      	str	r3, [r2, #24]
 80010e2:	e0aa      	b.n	800123a <GPIO_VidSet_Pin+0xc86>
					case (Pin_6):if(Copy_u8State==Hi){Set_Bit(GPIO_E->BSRR,GPIO_BSRR_6_Set);}
 80010e4:	797b      	ldrb	r3, [r7, #5]
 80010e6:	2b0d      	cmp	r3, #13
 80010e8:	d106      	bne.n	80010f8 <GPIO_VidSet_Pin+0xb44>
 80010ea:	4a58      	ldr	r2, [pc, #352]	; (800124c <GPIO_VidSet_Pin+0xc98>)
 80010ec:	4b57      	ldr	r3, [pc, #348]	; (800124c <GPIO_VidSet_Pin+0xc98>)
 80010ee:	699b      	ldr	r3, [r3, #24]
 80010f0:	f043 0340 	orr.w	r3, r3, #64	; 0x40
 80010f4:	6193      	str	r3, [r2, #24]
								 else Set_Bit(GPIO_E->BSRR,GPIO_BSRR_6_Clear);break;
 80010f6:	e0a0      	b.n	800123a <GPIO_VidSet_Pin+0xc86>
 80010f8:	4a54      	ldr	r2, [pc, #336]	; (800124c <GPIO_VidSet_Pin+0xc98>)
 80010fa:	4b54      	ldr	r3, [pc, #336]	; (800124c <GPIO_VidSet_Pin+0xc98>)
 80010fc:	699b      	ldr	r3, [r3, #24]
 80010fe:	f443 0380 	orr.w	r3, r3, #4194304	; 0x400000
 8001102:	6193      	str	r3, [r2, #24]
 8001104:	e099      	b.n	800123a <GPIO_VidSet_Pin+0xc86>
					case (Pin_7):if(Copy_u8State==Hi){Set_Bit(GPIO_E->BSRR,GPIO_BSRR_7_Set);}
 8001106:	797b      	ldrb	r3, [r7, #5]
 8001108:	2b0d      	cmp	r3, #13
 800110a:	d106      	bne.n	800111a <GPIO_VidSet_Pin+0xb66>
 800110c:	4a4f      	ldr	r2, [pc, #316]	; (800124c <GPIO_VidSet_Pin+0xc98>)
 800110e:	4b4f      	ldr	r3, [pc, #316]	; (800124c <GPIO_VidSet_Pin+0xc98>)
 8001110:	699b      	ldr	r3, [r3, #24]
 8001112:	f043 0380 	orr.w	r3, r3, #128	; 0x80
 8001116:	6193      	str	r3, [r2, #24]
								 else Set_Bit(GPIO_E->BSRR,GPIO_BSRR_7_Clear);break;
 8001118:	e08f      	b.n	800123a <GPIO_VidSet_Pin+0xc86>
 800111a:	4a4c      	ldr	r2, [pc, #304]	; (800124c <GPIO_VidSet_Pin+0xc98>)
 800111c:	4b4b      	ldr	r3, [pc, #300]	; (800124c <GPIO_VidSet_Pin+0xc98>)
 800111e:	699b      	ldr	r3, [r3, #24]
 8001120:	f443 0300 	orr.w	r3, r3, #8388608	; 0x800000
 8001124:	6193      	str	r3, [r2, #24]
 8001126:	e088      	b.n	800123a <GPIO_VidSet_Pin+0xc86>
					case (Pin_8):if(Copy_u8State==Hi){Set_Bit(GPIO_E->BSRR,GPIO_BSRR_8_Set);}
 8001128:	797b      	ldrb	r3, [r7, #5]
 800112a:	2b0d      	cmp	r3, #13
 800112c:	d106      	bne.n	800113c <GPIO_VidSet_Pin+0xb88>
 800112e:	4a47      	ldr	r2, [pc, #284]	; (800124c <GPIO_VidSet_Pin+0xc98>)
 8001130:	4b46      	ldr	r3, [pc, #280]	; (800124c <GPIO_VidSet_Pin+0xc98>)
 8001132:	699b      	ldr	r3, [r3, #24]
 8001134:	f443 7380 	orr.w	r3, r3, #256	; 0x100
 8001138:	6193      	str	r3, [r2, #24]
								 else Set_Bit(GPIO_E->BSRR,GPIO_BSRR_8_Clear);break;
 800113a:	e07e      	b.n	800123a <GPIO_VidSet_Pin+0xc86>
 800113c:	4a43      	ldr	r2, [pc, #268]	; (800124c <GPIO_VidSet_Pin+0xc98>)
 800113e:	4b43      	ldr	r3, [pc, #268]	; (800124c <GPIO_VidSet_Pin+0xc98>)
 8001140:	699b      	ldr	r3, [r3, #24]
 8001142:	f043 7380 	orr.w	r3, r3, #16777216	; 0x1000000
 8001146:	6193      	str	r3, [r2, #24]
 8001148:	e077      	b.n	800123a <GPIO_VidSet_Pin+0xc86>
					case (Pin_9):if(Copy_u8State==Hi){Set_Bit(GPIO_E->BSRR,GPIO_BSRR_9_Set);}
 800114a:	797b      	ldrb	r3, [r7, #5]
 800114c:	2b0d      	cmp	r3, #13
 800114e:	d106      	bne.n	800115e <GPIO_VidSet_Pin+0xbaa>
 8001150:	4a3e      	ldr	r2, [pc, #248]	; (800124c <GPIO_VidSet_Pin+0xc98>)
 8001152:	4b3e      	ldr	r3, [pc, #248]	; (800124c <GPIO_VidSet_Pin+0xc98>)
 8001154:	699b      	ldr	r3, [r3, #24]
 8001156:	f443 7300 	orr.w	r3, r3, #512	; 0x200
 800115a:	6193      	str	r3, [r2, #24]
								 else Set_Bit(GPIO_E->BSRR,GPIO_BSRR_9_Clear);break;
 800115c:	e06d      	b.n	800123a <GPIO_VidSet_Pin+0xc86>
 800115e:	4a3b      	ldr	r2, [pc, #236]	; (800124c <GPIO_VidSet_Pin+0xc98>)
 8001160:	4b3a      	ldr	r3, [pc, #232]	; (800124c <GPIO_VidSet_Pin+0xc98>)
 8001162:	699b      	ldr	r3, [r3, #24]
 8001164:	f043 7300 	orr.w	r3, r3, #33554432	; 0x2000000
 8001168:	6193      	str	r3, [r2, #24]
 800116a:	e066      	b.n	800123a <GPIO_VidSet_Pin+0xc86>
					case (Pin_10):if(Copy_u8State==Hi){Set_Bit(GPIO_E->BSRR,GPIO_BSRR_10_Set);}
 800116c:	797b      	ldrb	r3, [r7, #5]
 800116e:	2b0d      	cmp	r3, #13
 8001170:	d106      	bne.n	8001180 <GPIO_VidSet_Pin+0xbcc>
 8001172:	4a36      	ldr	r2, [pc, #216]	; (800124c <GPIO_VidSet_Pin+0xc98>)
 8001174:	4b35      	ldr	r3, [pc, #212]	; (800124c <GPIO_VidSet_Pin+0xc98>)
 8001176:	699b      	ldr	r3, [r3, #24]
 8001178:	f443 6380 	orr.w	r3, r3, #1024	; 0x400
 800117c:	6193      	str	r3, [r2, #24]
								 else Set_Bit(GPIO_E->BSRR,GPIO_BSRR_10_Clear);break;
 800117e:	e05c      	b.n	800123a <GPIO_VidSet_Pin+0xc86>
 8001180:	4a32      	ldr	r2, [pc, #200]	; (800124c <GPIO_VidSet_Pin+0xc98>)
 8001182:	4b32      	ldr	r3, [pc, #200]	; (800124c <GPIO_VidSet_Pin+0xc98>)
 8001184:	699b      	ldr	r3, [r3, #24]
 8001186:	f043 6380 	orr.w	r3, r3, #67108864	; 0x4000000
 800118a:	6193      	str	r3, [r2, #24]
 800118c:	e055      	b.n	800123a <GPIO_VidSet_Pin+0xc86>
					case (Pin_11):if(Copy_u8State==Hi){Set_Bit(GPIO_E->BSRR,GPIO_BSRR_11_Set);}
 800118e:	797b      	ldrb	r3, [r7, #5]
 8001190:	2b0d      	cmp	r3, #13
 8001192:	d106      	bne.n	80011a2 <GPIO_VidSet_Pin+0xbee>
 8001194:	4a2d      	ldr	r2, [pc, #180]	; (800124c <GPIO_VidSet_Pin+0xc98>)
 8001196:	4b2d      	ldr	r3, [pc, #180]	; (800124c <GPIO_VidSet_Pin+0xc98>)
 8001198:	699b      	ldr	r3, [r3, #24]
 800119a:	f443 6300 	orr.w	r3, r3, #2048	; 0x800
 800119e:	6193      	str	r3, [r2, #24]
								 else Set_Bit(GPIO_E->BSRR,GPIO_BSRR_11_Clear);break;
 80011a0:	e04b      	b.n	800123a <GPIO_VidSet_Pin+0xc86>
 80011a2:	4a2a      	ldr	r2, [pc, #168]	; (800124c <GPIO_VidSet_Pin+0xc98>)
 80011a4:	4b29      	ldr	r3, [pc, #164]	; (800124c <GPIO_VidSet_Pin+0xc98>)
 80011a6:	699b      	ldr	r3, [r3, #24]
 80011a8:	f043 6300 	orr.w	r3, r3, #134217728	; 0x8000000
 80011ac:	6193      	str	r3, [r2, #24]
 80011ae:	e044      	b.n	800123a <GPIO_VidSet_Pin+0xc86>
					case (Pin_12):if(Copy_u8State==Hi){Set_Bit(GPIO_E->BSRR,GPIO_BSRR_12_Set);}
 80011b0:	797b      	ldrb	r3, [r7, #5]
 80011b2:	2b0d      	cmp	r3, #13
 80011b4:	d106      	bne.n	80011c4 <GPIO_VidSet_Pin+0xc10>
 80011b6:	4a25      	ldr	r2, [pc, #148]	; (800124c <GPIO_VidSet_Pin+0xc98>)
 80011b8:	4b24      	ldr	r3, [pc, #144]	; (800124c <GPIO_VidSet_Pin+0xc98>)
 80011ba:	699b      	ldr	r3, [r3, #24]
 80011bc:	f443 5380 	orr.w	r3, r3, #4096	; 0x1000
 80011c0:	6193      	str	r3, [r2, #24]
								 else Set_Bit(GPIO_E->BSRR,GPIO_BSRR_12_Clear);break;
 80011c2:	e03a      	b.n	800123a <GPIO_VidSet_Pin+0xc86>
 80011c4:	4a21      	ldr	r2, [pc, #132]	; (800124c <GPIO_VidSet_Pin+0xc98>)
 80011c6:	4b21      	ldr	r3, [pc, #132]	; (800124c <GPIO_VidSet_Pin+0xc98>)
 80011c8:	699b      	ldr	r3, [r3, #24]
 80011ca:	f043 5380 	orr.w	r3, r3, #268435456	; 0x10000000
 80011ce:	6193      	str	r3, [r2, #24]
 80011d0:	e033      	b.n	800123a <GPIO_VidSet_Pin+0xc86>
					case (Pin_13):if(Copy_u8State==Hi){Set_Bit(GPIO_E->BSRR,GPIO_BSRR_13_Set);}
 80011d2:	797b      	ldrb	r3, [r7, #5]
 80011d4:	2b0d      	cmp	r3, #13
 80011d6:	d106      	bne.n	80011e6 <GPIO_VidSet_Pin+0xc32>
 80011d8:	4a1c      	ldr	r2, [pc, #112]	; (800124c <GPIO_VidSet_Pin+0xc98>)
 80011da:	4b1c      	ldr	r3, [pc, #112]	; (800124c <GPIO_VidSet_Pin+0xc98>)
 80011dc:	699b      	ldr	r3, [r3, #24]
 80011de:	f443 5300 	orr.w	r3, r3, #8192	; 0x2000
 80011e2:	6193      	str	r3, [r2, #24]
								 else Set_Bit(GPIO_E->BSRR,GPIO_BSRR_13_Clear);break;
 80011e4:	e029      	b.n	800123a <GPIO_VidSet_Pin+0xc86>
 80011e6:	4a19      	ldr	r2, [pc, #100]	; (800124c <GPIO_VidSet_Pin+0xc98>)
 80011e8:	4b18      	ldr	r3, [pc, #96]	; (800124c <GPIO_VidSet_Pin+0xc98>)
 80011ea:	699b      	ldr	r3, [r3, #24]
 80011ec:	f043 5300 	orr.w	r3, r3, #536870912	; 0x20000000
 80011f0:	6193      	str	r3, [r2, #24]
 80011f2:	e022      	b.n	800123a <GPIO_VidSet_Pin+0xc86>
					case (Pin_14):if(Copy_u8State==Hi){Set_Bit(GPIO_E->BSRR,GPIO_BSRR_14_Set);}
 80011f4:	797b      	ldrb	r3, [r7, #5]
 80011f6:	2b0d      	cmp	r3, #13
 80011f8:	d106      	bne.n	8001208 <GPIO_VidSet_Pin+0xc54>
 80011fa:	4a14      	ldr	r2, [pc, #80]	; (800124c <GPIO_VidSet_Pin+0xc98>)
 80011fc:	4b13      	ldr	r3, [pc, #76]	; (800124c <GPIO_VidSet_Pin+0xc98>)
 80011fe:	699b      	ldr	r3, [r3, #24]
 8001200:	f443 4380 	orr.w	r3, r3, #16384	; 0x4000
 8001204:	6193      	str	r3, [r2, #24]
								 else Set_Bit(GPIO_E->BSRR,GPIO_BSRR_14_Clear);break;
 8001206:	e018      	b.n	800123a <GPIO_VidSet_Pin+0xc86>
 8001208:	4a10      	ldr	r2, [pc, #64]	; (800124c <GPIO_VidSet_Pin+0xc98>)
 800120a:	4b10      	ldr	r3, [pc, #64]	; (800124c <GPIO_VidSet_Pin+0xc98>)
 800120c:	699b      	ldr	r3, [r3, #24]
 800120e:	f043 4380 	orr.w	r3, r3, #1073741824	; 0x40000000
 8001212:	6193      	str	r3, [r2, #24]
 8001214:	e011      	b.n	800123a <GPIO_VidSet_Pin+0xc86>
					case (Pin_15):if(Copy_u8State==Hi){Set_Bit(GPIO_E->BSRR,GPIO_BSRR_15_Set);}
 8001216:	797b      	ldrb	r3, [r7, #5]
 8001218:	2b0d      	cmp	r3, #13
 800121a:	d106      	bne.n	800122a <GPIO_VidSet_Pin+0xc76>
 800121c:	4a0b      	ldr	r2, [pc, #44]	; (800124c <GPIO_VidSet_Pin+0xc98>)
 800121e:	4b0b      	ldr	r3, [pc, #44]	; (800124c <GPIO_VidSet_Pin+0xc98>)
 8001220:	699b      	ldr	r3, [r3, #24]
 8001222:	f443 4300 	orr.w	r3, r3, #32768	; 0x8000
 8001226:	6193      	str	r3, [r2, #24]
								 else Set_Bit(GPIO_E->BSRR,GPIO_BSRR_15_Clear);break;
 8001228:	e007      	b.n	800123a <GPIO_VidSet_Pin+0xc86>
 800122a:	4a08      	ldr	r2, [pc, #32]	; (800124c <GPIO_VidSet_Pin+0xc98>)
 800122c:	4b07      	ldr	r3, [pc, #28]	; (800124c <GPIO_VidSet_Pin+0xc98>)
 800122e:	699b      	ldr	r3, [r3, #24]
 8001230:	f043 4300 	orr.w	r3, r3, #2147483648	; 0x80000000
 8001234:	6193      	str	r3, [r2, #24]
 8001236:	e000      	b.n	800123a <GPIO_VidSet_Pin+0xc86>
					default:break;
 8001238:	bf00      	nop
				}
		break;
 800123a:	e000      	b.n	800123e <GPIO_VidSet_Pin+0xc8a>
		default:break;
 800123c:	bf00      	nop
	}
}
 800123e:	bf00      	nop
 8001240:	370c      	adds	r7, #12
 8001242:	46bd      	mov	sp, r7
 8001244:	f85d 7b04 	ldr.w	r7, [sp], #4
 8001248:	4770      	bx	lr
 800124a:	bf00      	nop
 800124c:	40021000 	.word	0x40021000

08001250 <GPIO_VidPin_Mode_Output>:
/*------------------------- Set Pin Output Configurations -------------------------*/
void GPIO_VidPin_Mode_Output(u8 Copy_u8Port,u8 Copy_u8Pin,u8 Copy_u8Type,u8 Copy_u8Speed)
{
 8001250:	b590      	push	{r4, r7, lr}
 8001252:	b083      	sub	sp, #12
 8001254:	af00      	add	r7, sp, #0
 8001256:	4604      	mov	r4, r0
 8001258:	4608      	mov	r0, r1
 800125a:	4611      	mov	r1, r2
 800125c:	461a      	mov	r2, r3
 800125e:	4623      	mov	r3, r4
 8001260:	71fb      	strb	r3, [r7, #7]
 8001262:	4603      	mov	r3, r0
 8001264:	71bb      	strb	r3, [r7, #6]
 8001266:	460b      	mov	r3, r1
 8001268:	717b      	strb	r3, [r7, #5]
 800126a:	4613      	mov	r3, r2
 800126c:	713b      	strb	r3, [r7, #4]
	GPIO_VidPin_Mode(Copy_u8Port,Copy_u8Pin,GPIO_Output);
 800126e:	79b9      	ldrb	r1, [r7, #6]
 8001270:	79fb      	ldrb	r3, [r7, #7]
 8001272:	2201      	movs	r2, #1
 8001274:	4618      	mov	r0, r3
 8001276:	f002 fea1 	bl	8003fbc <GPIO_VidPin_Mode>
	switch(Copy_u8Port)
 800127a:	79fb      	ldrb	r3, [r7, #7]
 800127c:	2b04      	cmp	r3, #4
 800127e:	f202 8696 	bhi.w	8003fae <GPIO_VidPin_Mode_Output+0x2d5e>
 8001282:	a201      	add	r2, pc, #4	; (adr r2, 8001288 <GPIO_VidPin_Mode_Output+0x38>)
 8001284:	f852 f023 	ldr.w	pc, [r2, r3, lsl #2]
 8001288:	0800129d 	.word	0x0800129d
 800128c:	08001ba1 	.word	0x08001ba1
 8001290:	080024b1 	.word	0x080024b1
 8001294:	08002dbf 	.word	0x08002dbf
 8001298:	080036cd 	.word	0x080036cd
	{
		case(Port_A):
				switch (Copy_u8Pin)
 800129c:	79bb      	ldrb	r3, [r7, #6]
 800129e:	2b0f      	cmp	r3, #15
 80012a0:	f200 844b 	bhi.w	8001b3a <GPIO_VidPin_Mode_Output+0x8ea>
 80012a4:	a201      	add	r2, pc, #4	; (adr r2, 80012ac <GPIO_VidPin_Mode_Output+0x5c>)
 80012a6:	f852 f023 	ldr.w	pc, [r2, r3, lsl #2]
 80012aa:	bf00      	nop
 80012ac:	080012ed 	.word	0x080012ed
 80012b0:	08001373 	.word	0x08001373
 80012b4:	080013f7 	.word	0x080013f7
 80012b8:	0800147b 	.word	0x0800147b
 80012bc:	080014ff 	.word	0x080014ff
 80012c0:	08001587 	.word	0x08001587
 80012c4:	0800160b 	.word	0x0800160b
 80012c8:	0800168f 	.word	0x0800168f
 80012cc:	08001713 	.word	0x08001713
 80012d0:	08001797 	.word	0x08001797
 80012d4:	08001821 	.word	0x08001821
 80012d8:	080018a5 	.word	0x080018a5
 80012dc:	08001929 	.word	0x08001929
 80012e0:	080019ad 	.word	0x080019ad
 80012e4:	08001a37 	.word	0x08001a37
 80012e8:	08001ab9 	.word	0x08001ab9
				{
					case (Pin_0):
							/*Select Output Type*/
							if(Copy_u8Type==Push_Pull){Clear_Bit(GPIO_A->OTYPER,GPIO_OTYPER_0);}
 80012ec:	797b      	ldrb	r3, [r7, #5]
 80012ee:	2b08      	cmp	r3, #8
 80012f0:	d106      	bne.n	8001300 <GPIO_VidPin_Mode_Output+0xb0>
 80012f2:	4a94      	ldr	r2, [pc, #592]	; (8001544 <GPIO_VidPin_Mode_Output+0x2f4>)
 80012f4:	4b93      	ldr	r3, [pc, #588]	; (8001544 <GPIO_VidPin_Mode_Output+0x2f4>)
 80012f6:	685b      	ldr	r3, [r3, #4]
 80012f8:	f023 0301 	bic.w	r3, r3, #1
 80012fc:	6053      	str	r3, [r2, #4]
 80012fe:	e00e      	b.n	800131e <GPIO_VidPin_Mode_Output+0xce>
							else if (Copy_u8Type==Open_Drain)
 8001300:	797b      	ldrb	r3, [r7, #5]
 8001302:	2b09      	cmp	r3, #9
 8001304:	d10b      	bne.n	800131e <GPIO_VidPin_Mode_Output+0xce>
							{
								Set_Bit(GPIO_A->OTYPER,GPIO_OTYPER_0);
 8001306:	4a8f      	ldr	r2, [pc, #572]	; (8001544 <GPIO_VidPin_Mode_Output+0x2f4>)
 8001308:	4b8e      	ldr	r3, [pc, #568]	; (8001544 <GPIO_VidPin_Mode_Output+0x2f4>)
 800130a:	685b      	ldr	r3, [r3, #4]
 800130c:	f043 0301 	orr.w	r3, r3, #1
 8001310:	6053      	str	r3, [r2, #4]
							#if Open_Drain_Pull == Pull_Up
								Set_Bit(GPIO_A->PUPDR,GPIO_PUPDR_0_Pull_Up);
 8001312:	4a8c      	ldr	r2, [pc, #560]	; (8001544 <GPIO_VidPin_Mode_Output+0x2f4>)
 8001314:	4b8b      	ldr	r3, [pc, #556]	; (8001544 <GPIO_VidPin_Mode_Output+0x2f4>)
 8001316:	68db      	ldr	r3, [r3, #12]
 8001318:	f043 0301 	orr.w	r3, r3, #1
 800131c:	60d3      	str	r3, [r2, #12]
							#elif Open_Drain_Pull == Pull_Down
								Set_Bit(Copy_u8PortAddress->PUPDR,GPIO_PUPDR_0_Pull_Down);
							#endif
							}
							/*Select Operating Speed*/
							if(Copy_u8Speed==Low_Speed){Clear_Bit(GPIO_A->OSPEEDR,GPIO_OSPEEDR_0_HI);}
 800131e:	793b      	ldrb	r3, [r7, #4]
 8001320:	2b04      	cmp	r3, #4
 8001322:	d107      	bne.n	8001334 <GPIO_VidPin_Mode_Output+0xe4>
 8001324:	4a87      	ldr	r2, [pc, #540]	; (8001544 <GPIO_VidPin_Mode_Output+0x2f4>)
 8001326:	4b87      	ldr	r3, [pc, #540]	; (8001544 <GPIO_VidPin_Mode_Output+0x2f4>)
 8001328:	689b      	ldr	r3, [r3, #8]
 800132a:	f023 0303 	bic.w	r3, r3, #3
 800132e:	6093      	str	r3, [r2, #8]
							else if(Copy_u8Speed==Medium_Speed){Set_Bit(GPIO_A->OSPEEDR,GPIO_OSPEEDR_0_Medium);}
							else if(Copy_u8Speed==Fast_Speed){/*Enable Compensation Cell*/Set_Bit(GPIO_A->OSPEEDR,GPIO_OSPEEDR_0_Fast);}
							else if(Copy_u8Speed==High_Speed){/*Enable Compensation Cell*/Set_Bit(GPIO_A->OSPEEDR,GPIO_OSPEEDR_0_HI);}
					break;
 8001330:	f000 bc06 	b.w	8001b40 <GPIO_VidPin_Mode_Output+0x8f0>
							else if(Copy_u8Speed==Medium_Speed){Set_Bit(GPIO_A->OSPEEDR,GPIO_OSPEEDR_0_Medium);}
 8001334:	793b      	ldrb	r3, [r7, #4]
 8001336:	2b05      	cmp	r3, #5
 8001338:	d106      	bne.n	8001348 <GPIO_VidPin_Mode_Output+0xf8>
 800133a:	4a82      	ldr	r2, [pc, #520]	; (8001544 <GPIO_VidPin_Mode_Output+0x2f4>)
 800133c:	4b81      	ldr	r3, [pc, #516]	; (8001544 <GPIO_VidPin_Mode_Output+0x2f4>)
 800133e:	689b      	ldr	r3, [r3, #8]
 8001340:	f043 0301 	orr.w	r3, r3, #1
 8001344:	6093      	str	r3, [r2, #8]
					break;
 8001346:	e3fb      	b.n	8001b40 <GPIO_VidPin_Mode_Output+0x8f0>
							else if(Copy_u8Speed==Fast_Speed){/*Enable Compensation Cell*/Set_Bit(GPIO_A->OSPEEDR,GPIO_OSPEEDR_0_Fast);}
 8001348:	793b      	ldrb	r3, [r7, #4]
 800134a:	2b06      	cmp	r3, #6
 800134c:	d106      	bne.n	800135c <GPIO_VidPin_Mode_Output+0x10c>
 800134e:	4a7d      	ldr	r2, [pc, #500]	; (8001544 <GPIO_VidPin_Mode_Output+0x2f4>)
 8001350:	4b7c      	ldr	r3, [pc, #496]	; (8001544 <GPIO_VidPin_Mode_Output+0x2f4>)
 8001352:	689b      	ldr	r3, [r3, #8]
 8001354:	f043 0302 	orr.w	r3, r3, #2
 8001358:	6093      	str	r3, [r2, #8]
					break;
 800135a:	e3f1      	b.n	8001b40 <GPIO_VidPin_Mode_Output+0x8f0>
							else if(Copy_u8Speed==High_Speed){/*Enable Compensation Cell*/Set_Bit(GPIO_A->OSPEEDR,GPIO_OSPEEDR_0_HI);}
 800135c:	793b      	ldrb	r3, [r7, #4]
 800135e:	2b07      	cmp	r3, #7
 8001360:	f040 83ee 	bne.w	8001b40 <GPIO_VidPin_Mode_Output+0x8f0>
 8001364:	4a77      	ldr	r2, [pc, #476]	; (8001544 <GPIO_VidPin_Mode_Output+0x2f4>)
 8001366:	4b77      	ldr	r3, [pc, #476]	; (8001544 <GPIO_VidPin_Mode_Output+0x2f4>)
 8001368:	689b      	ldr	r3, [r3, #8]
 800136a:	f043 0303 	orr.w	r3, r3, #3
 800136e:	6093      	str	r3, [r2, #8]
					break;
 8001370:	e3e6      	b.n	8001b40 <GPIO_VidPin_Mode_Output+0x8f0>
					case (Pin_1):
							/*Select Output Type*/
							if(Copy_u8Type==Push_Pull){Clear_Bit(GPIO_A->OTYPER,GPIO_OTYPER_1);}
 8001372:	797b      	ldrb	r3, [r7, #5]
 8001374:	2b08      	cmp	r3, #8
 8001376:	d106      	bne.n	8001386 <GPIO_VidPin_Mode_Output+0x136>
 8001378:	4a72      	ldr	r2, [pc, #456]	; (8001544 <GPIO_VidPin_Mode_Output+0x2f4>)
 800137a:	4b72      	ldr	r3, [pc, #456]	; (8001544 <GPIO_VidPin_Mode_Output+0x2f4>)
 800137c:	685b      	ldr	r3, [r3, #4]
 800137e:	f023 0302 	bic.w	r3, r3, #2
 8001382:	6053      	str	r3, [r2, #4]
 8001384:	e00e      	b.n	80013a4 <GPIO_VidPin_Mode_Output+0x154>
							else if (Copy_u8Type==Open_Drain)
 8001386:	797b      	ldrb	r3, [r7, #5]
 8001388:	2b09      	cmp	r3, #9
 800138a:	d10b      	bne.n	80013a4 <GPIO_VidPin_Mode_Output+0x154>
							{
								Set_Bit(GPIO_A->OTYPER,GPIO_OTYPER_1);
 800138c:	4a6d      	ldr	r2, [pc, #436]	; (8001544 <GPIO_VidPin_Mode_Output+0x2f4>)
 800138e:	4b6d      	ldr	r3, [pc, #436]	; (8001544 <GPIO_VidPin_Mode_Output+0x2f4>)
 8001390:	685b      	ldr	r3, [r3, #4]
 8001392:	f043 0302 	orr.w	r3, r3, #2
 8001396:	6053      	str	r3, [r2, #4]
							#if Open_Drain_Pull == Pull_Up
								Set_Bit(GPIO_A->PUPDR,GPIO_PUPDR_1_Pull_Up);
 8001398:	4a6a      	ldr	r2, [pc, #424]	; (8001544 <GPIO_VidPin_Mode_Output+0x2f4>)
 800139a:	4b6a      	ldr	r3, [pc, #424]	; (8001544 <GPIO_VidPin_Mode_Output+0x2f4>)
 800139c:	68db      	ldr	r3, [r3, #12]
 800139e:	f043 0304 	orr.w	r3, r3, #4
 80013a2:	60d3      	str	r3, [r2, #12]
							#elif Open_Drain_Pull == Pull_Down
								Set_Bit(GPIO_A->PUPDR,GPIO_PUPDR_1_Pull_Down);
							#endif
							}
							/*Select Operating Speed*/
							if(Copy_u8Speed==Low_Speed){Clear_Bit(GPIO_A->OSPEEDR,GPIO_OSPEEDR_1_HI);}
 80013a4:	793b      	ldrb	r3, [r7, #4]
 80013a6:	2b04      	cmp	r3, #4
 80013a8:	d106      	bne.n	80013b8 <GPIO_VidPin_Mode_Output+0x168>
 80013aa:	4a66      	ldr	r2, [pc, #408]	; (8001544 <GPIO_VidPin_Mode_Output+0x2f4>)
 80013ac:	4b65      	ldr	r3, [pc, #404]	; (8001544 <GPIO_VidPin_Mode_Output+0x2f4>)
 80013ae:	689b      	ldr	r3, [r3, #8]
 80013b0:	f023 030c 	bic.w	r3, r3, #12
 80013b4:	6093      	str	r3, [r2, #8]
							else if(Copy_u8Speed==Medium_Speed){Set_Bit(GPIO_A->OSPEEDR,GPIO_OSPEEDR_1_Medium);}
							else if(Copy_u8Speed==Fast_Speed){/*Enable Compensation Cell*/Set_Bit(GPIO_A->OSPEEDR,GPIO_OSPEEDR_1_Fast);}
							else if(Copy_u8Speed==High_Speed){/*Enable Compensation Cell*/Set_Bit(GPIO_A->OSPEEDR,GPIO_OSPEEDR_1_HI);}
					break;
 80013b6:	e3c6      	b.n	8001b46 <GPIO_VidPin_Mode_Output+0x8f6>
							else if(Copy_u8Speed==Medium_Speed){Set_Bit(GPIO_A->OSPEEDR,GPIO_OSPEEDR_1_Medium);}
 80013b8:	793b      	ldrb	r3, [r7, #4]
 80013ba:	2b05      	cmp	r3, #5
 80013bc:	d106      	bne.n	80013cc <GPIO_VidPin_Mode_Output+0x17c>
 80013be:	4a61      	ldr	r2, [pc, #388]	; (8001544 <GPIO_VidPin_Mode_Output+0x2f4>)
 80013c0:	4b60      	ldr	r3, [pc, #384]	; (8001544 <GPIO_VidPin_Mode_Output+0x2f4>)
 80013c2:	689b      	ldr	r3, [r3, #8]
 80013c4:	f043 0304 	orr.w	r3, r3, #4
 80013c8:	6093      	str	r3, [r2, #8]
					break;
 80013ca:	e3bc      	b.n	8001b46 <GPIO_VidPin_Mode_Output+0x8f6>
							else if(Copy_u8Speed==Fast_Speed){/*Enable Compensation Cell*/Set_Bit(GPIO_A->OSPEEDR,GPIO_OSPEEDR_1_Fast);}
 80013cc:	793b      	ldrb	r3, [r7, #4]
 80013ce:	2b06      	cmp	r3, #6
 80013d0:	d106      	bne.n	80013e0 <GPIO_VidPin_Mode_Output+0x190>
 80013d2:	4a5c      	ldr	r2, [pc, #368]	; (8001544 <GPIO_VidPin_Mode_Output+0x2f4>)
 80013d4:	4b5b      	ldr	r3, [pc, #364]	; (8001544 <GPIO_VidPin_Mode_Output+0x2f4>)
 80013d6:	689b      	ldr	r3, [r3, #8]
 80013d8:	f043 0308 	orr.w	r3, r3, #8
 80013dc:	6093      	str	r3, [r2, #8]
					break;
 80013de:	e3b2      	b.n	8001b46 <GPIO_VidPin_Mode_Output+0x8f6>
							else if(Copy_u8Speed==High_Speed){/*Enable Compensation Cell*/Set_Bit(GPIO_A->OSPEEDR,GPIO_OSPEEDR_1_HI);}
 80013e0:	793b      	ldrb	r3, [r7, #4]
 80013e2:	2b07      	cmp	r3, #7
 80013e4:	f040 83af 	bne.w	8001b46 <GPIO_VidPin_Mode_Output+0x8f6>
 80013e8:	4a56      	ldr	r2, [pc, #344]	; (8001544 <GPIO_VidPin_Mode_Output+0x2f4>)
 80013ea:	4b56      	ldr	r3, [pc, #344]	; (8001544 <GPIO_VidPin_Mode_Output+0x2f4>)
 80013ec:	689b      	ldr	r3, [r3, #8]
 80013ee:	f043 030c 	orr.w	r3, r3, #12
 80013f2:	6093      	str	r3, [r2, #8]
					break;
 80013f4:	e3a7      	b.n	8001b46 <GPIO_VidPin_Mode_Output+0x8f6>
					case (Pin_2):
							/*Select Output Type*/
							if(Copy_u8Type==Push_Pull){Clear_Bit(GPIO_A->OTYPER,GPIO_OTYPER_2);}
 80013f6:	797b      	ldrb	r3, [r7, #5]
 80013f8:	2b08      	cmp	r3, #8
 80013fa:	d106      	bne.n	800140a <GPIO_VidPin_Mode_Output+0x1ba>
 80013fc:	4a51      	ldr	r2, [pc, #324]	; (8001544 <GPIO_VidPin_Mode_Output+0x2f4>)
 80013fe:	4b51      	ldr	r3, [pc, #324]	; (8001544 <GPIO_VidPin_Mode_Output+0x2f4>)
 8001400:	685b      	ldr	r3, [r3, #4]
 8001402:	f023 0304 	bic.w	r3, r3, #4
 8001406:	6053      	str	r3, [r2, #4]
 8001408:	e00e      	b.n	8001428 <GPIO_VidPin_Mode_Output+0x1d8>
							else if (Copy_u8Type==Open_Drain)
 800140a:	797b      	ldrb	r3, [r7, #5]
 800140c:	2b09      	cmp	r3, #9
 800140e:	d10b      	bne.n	8001428 <GPIO_VidPin_Mode_Output+0x1d8>
							{
								Set_Bit(GPIO_A->OTYPER,GPIO_OTYPER_2);
 8001410:	4a4c      	ldr	r2, [pc, #304]	; (8001544 <GPIO_VidPin_Mode_Output+0x2f4>)
 8001412:	4b4c      	ldr	r3, [pc, #304]	; (8001544 <GPIO_VidPin_Mode_Output+0x2f4>)
 8001414:	685b      	ldr	r3, [r3, #4]
 8001416:	f043 0304 	orr.w	r3, r3, #4
 800141a:	6053      	str	r3, [r2, #4]
							#if Open_Drain_Pull == Pull_Up
								Set_Bit(GPIO_A->PUPDR,GPIO_PUPDR_2_Pull_Up);
 800141c:	4a49      	ldr	r2, [pc, #292]	; (8001544 <GPIO_VidPin_Mode_Output+0x2f4>)
 800141e:	4b49      	ldr	r3, [pc, #292]	; (8001544 <GPIO_VidPin_Mode_Output+0x2f4>)
 8001420:	68db      	ldr	r3, [r3, #12]
 8001422:	f043 0310 	orr.w	r3, r3, #16
 8001426:	60d3      	str	r3, [r2, #12]
							#elif Open_Drain_Pull == Pull_Down
								Set_Bit(GPIO_A->PUPDR,GPIO_PUPDR_2_Pull_Down);
							#endif
							}
							/*Select Operating Speed*/
							if(Copy_u8Speed==Low_Speed){Clear_Bit(GPIO_A->OSPEEDR,GPIO_OSPEEDR_2_HI);}
 8001428:	793b      	ldrb	r3, [r7, #4]
 800142a:	2b04      	cmp	r3, #4
 800142c:	d106      	bne.n	800143c <GPIO_VidPin_Mode_Output+0x1ec>
 800142e:	4a45      	ldr	r2, [pc, #276]	; (8001544 <GPIO_VidPin_Mode_Output+0x2f4>)
 8001430:	4b44      	ldr	r3, [pc, #272]	; (8001544 <GPIO_VidPin_Mode_Output+0x2f4>)
 8001432:	689b      	ldr	r3, [r3, #8]
 8001434:	f023 0330 	bic.w	r3, r3, #48	; 0x30
 8001438:	6093      	str	r3, [r2, #8]
							else if(Copy_u8Speed==Medium_Speed){Set_Bit(GPIO_A->OSPEEDR,GPIO_OSPEEDR_2_Medium);}
							else if(Copy_u8Speed==Fast_Speed){/*Enable Compensation Cell*/Set_Bit(GPIO_A->OSPEEDR,GPIO_OSPEEDR_2_Fast);}
							else if(Copy_u8Speed==High_Speed){/*Enable Compensation Cell*/Set_Bit(GPIO_A->OSPEEDR,GPIO_OSPEEDR_2_HI);}
					break;
 800143a:	e387      	b.n	8001b4c <GPIO_VidPin_Mode_Output+0x8fc>
							else if(Copy_u8Speed==Medium_Speed){Set_Bit(GPIO_A->OSPEEDR,GPIO_OSPEEDR_2_Medium);}
 800143c:	793b      	ldrb	r3, [r7, #4]
 800143e:	2b05      	cmp	r3, #5
 8001440:	d106      	bne.n	8001450 <GPIO_VidPin_Mode_Output+0x200>
 8001442:	4a40      	ldr	r2, [pc, #256]	; (8001544 <GPIO_VidPin_Mode_Output+0x2f4>)
 8001444:	4b3f      	ldr	r3, [pc, #252]	; (8001544 <GPIO_VidPin_Mode_Output+0x2f4>)
 8001446:	689b      	ldr	r3, [r3, #8]
 8001448:	f043 0310 	orr.w	r3, r3, #16
 800144c:	6093      	str	r3, [r2, #8]
					break;
 800144e:	e37d      	b.n	8001b4c <GPIO_VidPin_Mode_Output+0x8fc>
							else if(Copy_u8Speed==Fast_Speed){/*Enable Compensation Cell*/Set_Bit(GPIO_A->OSPEEDR,GPIO_OSPEEDR_2_Fast);}
 8001450:	793b      	ldrb	r3, [r7, #4]
 8001452:	2b06      	cmp	r3, #6
 8001454:	d106      	bne.n	8001464 <GPIO_VidPin_Mode_Output+0x214>
 8001456:	4a3b      	ldr	r2, [pc, #236]	; (8001544 <GPIO_VidPin_Mode_Output+0x2f4>)
 8001458:	4b3a      	ldr	r3, [pc, #232]	; (8001544 <GPIO_VidPin_Mode_Output+0x2f4>)
 800145a:	689b      	ldr	r3, [r3, #8]
 800145c:	f043 0320 	orr.w	r3, r3, #32
 8001460:	6093      	str	r3, [r2, #8]
					break;
 8001462:	e373      	b.n	8001b4c <GPIO_VidPin_Mode_Output+0x8fc>
							else if(Copy_u8Speed==High_Speed){/*Enable Compensation Cell*/Set_Bit(GPIO_A->OSPEEDR,GPIO_OSPEEDR_2_HI);}
 8001464:	793b      	ldrb	r3, [r7, #4]
 8001466:	2b07      	cmp	r3, #7
 8001468:	f040 8370 	bne.w	8001b4c <GPIO_VidPin_Mode_Output+0x8fc>
 800146c:	4a35      	ldr	r2, [pc, #212]	; (8001544 <GPIO_VidPin_Mode_Output+0x2f4>)
 800146e:	4b35      	ldr	r3, [pc, #212]	; (8001544 <GPIO_VidPin_Mode_Output+0x2f4>)
 8001470:	689b      	ldr	r3, [r3, #8]
 8001472:	f043 0330 	orr.w	r3, r3, #48	; 0x30
 8001476:	6093      	str	r3, [r2, #8]
					break;
 8001478:	e368      	b.n	8001b4c <GPIO_VidPin_Mode_Output+0x8fc>
					case (Pin_3):
							/*Select Output Type*/
							if(Copy_u8Type==Push_Pull){Clear_Bit(GPIO_A->OTYPER,GPIO_OTYPER_3);}
 800147a:	797b      	ldrb	r3, [r7, #5]
 800147c:	2b08      	cmp	r3, #8
 800147e:	d106      	bne.n	800148e <GPIO_VidPin_Mode_Output+0x23e>
 8001480:	4a30      	ldr	r2, [pc, #192]	; (8001544 <GPIO_VidPin_Mode_Output+0x2f4>)
 8001482:	4b30      	ldr	r3, [pc, #192]	; (8001544 <GPIO_VidPin_Mode_Output+0x2f4>)
 8001484:	685b      	ldr	r3, [r3, #4]
 8001486:	f023 0308 	bic.w	r3, r3, #8
 800148a:	6053      	str	r3, [r2, #4]
 800148c:	e00e      	b.n	80014ac <GPIO_VidPin_Mode_Output+0x25c>
							else if (Copy_u8Type==Open_Drain)
 800148e:	797b      	ldrb	r3, [r7, #5]
 8001490:	2b09      	cmp	r3, #9
 8001492:	d10b      	bne.n	80014ac <GPIO_VidPin_Mode_Output+0x25c>
							{
								Set_Bit(GPIO_A->OTYPER,GPIO_OTYPER_3);
 8001494:	4a2b      	ldr	r2, [pc, #172]	; (8001544 <GPIO_VidPin_Mode_Output+0x2f4>)
 8001496:	4b2b      	ldr	r3, [pc, #172]	; (8001544 <GPIO_VidPin_Mode_Output+0x2f4>)
 8001498:	685b      	ldr	r3, [r3, #4]
 800149a:	f043 0308 	orr.w	r3, r3, #8
 800149e:	6053      	str	r3, [r2, #4]
							#if Open_Drain_Pull == Pull_Up
								Set_Bit(GPIO_A->PUPDR,GPIO_PUPDR_3_Pull_Up);
 80014a0:	4a28      	ldr	r2, [pc, #160]	; (8001544 <GPIO_VidPin_Mode_Output+0x2f4>)
 80014a2:	4b28      	ldr	r3, [pc, #160]	; (8001544 <GPIO_VidPin_Mode_Output+0x2f4>)
 80014a4:	68db      	ldr	r3, [r3, #12]
 80014a6:	f043 0340 	orr.w	r3, r3, #64	; 0x40
 80014aa:	60d3      	str	r3, [r2, #12]
							#elif Open_Drain_Pull == Pull_Down
								Set_Bit(GPIO_A->PUPDR,GPIO_PUPDR_3_Pull_Down);
							#endif
							}
							/*Select Operating Speed*/
							if(Copy_u8Speed==Low_Speed){Clear_Bit(GPIO_A->OSPEEDR,GPIO_OSPEEDR_3_HI);}
 80014ac:	793b      	ldrb	r3, [r7, #4]
 80014ae:	2b04      	cmp	r3, #4
 80014b0:	d106      	bne.n	80014c0 <GPIO_VidPin_Mode_Output+0x270>
 80014b2:	4a24      	ldr	r2, [pc, #144]	; (8001544 <GPIO_VidPin_Mode_Output+0x2f4>)
 80014b4:	4b23      	ldr	r3, [pc, #140]	; (8001544 <GPIO_VidPin_Mode_Output+0x2f4>)
 80014b6:	689b      	ldr	r3, [r3, #8]
 80014b8:	f023 03c0 	bic.w	r3, r3, #192	; 0xc0
 80014bc:	6093      	str	r3, [r2, #8]
							else if(Copy_u8Speed==Medium_Speed){Set_Bit(GPIO_A->OSPEEDR,GPIO_OSPEEDR_3_Medium);}
							else if(Copy_u8Speed==Fast_Speed){/*Enable Compensation Cell*/Set_Bit(GPIO_A->OSPEEDR,GPIO_OSPEEDR_3_Fast);}
							else if(Copy_u8Speed==High_Speed){/*Enable Compensation Cell*/Set_Bit(GPIO_A->OSPEEDR,GPIO_OSPEEDR_3_HI);}
					break;
 80014be:	e348      	b.n	8001b52 <GPIO_VidPin_Mode_Output+0x902>
							else if(Copy_u8Speed==Medium_Speed){Set_Bit(GPIO_A->OSPEEDR,GPIO_OSPEEDR_3_Medium);}
 80014c0:	793b      	ldrb	r3, [r7, #4]
 80014c2:	2b05      	cmp	r3, #5
 80014c4:	d106      	bne.n	80014d4 <GPIO_VidPin_Mode_Output+0x284>
 80014c6:	4a1f      	ldr	r2, [pc, #124]	; (8001544 <GPIO_VidPin_Mode_Output+0x2f4>)
 80014c8:	4b1e      	ldr	r3, [pc, #120]	; (8001544 <GPIO_VidPin_Mode_Output+0x2f4>)
 80014ca:	689b      	ldr	r3, [r3, #8]
 80014cc:	f043 0340 	orr.w	r3, r3, #64	; 0x40
 80014d0:	6093      	str	r3, [r2, #8]
					break;
 80014d2:	e33e      	b.n	8001b52 <GPIO_VidPin_Mode_Output+0x902>
							else if(Copy_u8Speed==Fast_Speed){/*Enable Compensation Cell*/Set_Bit(GPIO_A->OSPEEDR,GPIO_OSPEEDR_3_Fast);}
 80014d4:	793b      	ldrb	r3, [r7, #4]
 80014d6:	2b06      	cmp	r3, #6
 80014d8:	d106      	bne.n	80014e8 <GPIO_VidPin_Mode_Output+0x298>
 80014da:	4a1a      	ldr	r2, [pc, #104]	; (8001544 <GPIO_VidPin_Mode_Output+0x2f4>)
 80014dc:	4b19      	ldr	r3, [pc, #100]	; (8001544 <GPIO_VidPin_Mode_Output+0x2f4>)
 80014de:	689b      	ldr	r3, [r3, #8]
 80014e0:	f043 0380 	orr.w	r3, r3, #128	; 0x80
 80014e4:	6093      	str	r3, [r2, #8]
					break;
 80014e6:	e334      	b.n	8001b52 <GPIO_VidPin_Mode_Output+0x902>
							else if(Copy_u8Speed==High_Speed){/*Enable Compensation Cell*/Set_Bit(GPIO_A->OSPEEDR,GPIO_OSPEEDR_3_HI);}
 80014e8:	793b      	ldrb	r3, [r7, #4]
 80014ea:	2b07      	cmp	r3, #7
 80014ec:	f040 8331 	bne.w	8001b52 <GPIO_VidPin_Mode_Output+0x902>
 80014f0:	4a14      	ldr	r2, [pc, #80]	; (8001544 <GPIO_VidPin_Mode_Output+0x2f4>)
 80014f2:	4b14      	ldr	r3, [pc, #80]	; (8001544 <GPIO_VidPin_Mode_Output+0x2f4>)
 80014f4:	689b      	ldr	r3, [r3, #8]
 80014f6:	f043 03c0 	orr.w	r3, r3, #192	; 0xc0
 80014fa:	6093      	str	r3, [r2, #8]
					break;
 80014fc:	e329      	b.n	8001b52 <GPIO_VidPin_Mode_Output+0x902>
					case (Pin_4):
							/*Select Output Type*/
							if(Copy_u8Type==Push_Pull){Clear_Bit(GPIO_A->OTYPER,GPIO_OTYPER_4);}
 80014fe:	797b      	ldrb	r3, [r7, #5]
 8001500:	2b08      	cmp	r3, #8
 8001502:	d106      	bne.n	8001512 <GPIO_VidPin_Mode_Output+0x2c2>
 8001504:	4a0f      	ldr	r2, [pc, #60]	; (8001544 <GPIO_VidPin_Mode_Output+0x2f4>)
 8001506:	4b0f      	ldr	r3, [pc, #60]	; (8001544 <GPIO_VidPin_Mode_Output+0x2f4>)
 8001508:	685b      	ldr	r3, [r3, #4]
 800150a:	f023 0310 	bic.w	r3, r3, #16
 800150e:	6053      	str	r3, [r2, #4]
 8001510:	e00e      	b.n	8001530 <GPIO_VidPin_Mode_Output+0x2e0>
							else if (Copy_u8Type==Open_Drain)
 8001512:	797b      	ldrb	r3, [r7, #5]
 8001514:	2b09      	cmp	r3, #9
 8001516:	d10b      	bne.n	8001530 <GPIO_VidPin_Mode_Output+0x2e0>
							{
								Set_Bit(GPIO_A->OTYPER,GPIO_OTYPER_4);
 8001518:	4a0a      	ldr	r2, [pc, #40]	; (8001544 <GPIO_VidPin_Mode_Output+0x2f4>)
 800151a:	4b0a      	ldr	r3, [pc, #40]	; (8001544 <GPIO_VidPin_Mode_Output+0x2f4>)
 800151c:	685b      	ldr	r3, [r3, #4]
 800151e:	f043 0310 	orr.w	r3, r3, #16
 8001522:	6053      	str	r3, [r2, #4]
							#if Open_Drain_Pull == Pull_Up
								Set_Bit(GPIO_A->PUPDR,GPIO_PUPDR_4_Pull_Up);
 8001524:	4a07      	ldr	r2, [pc, #28]	; (8001544 <GPIO_VidPin_Mode_Output+0x2f4>)
 8001526:	4b07      	ldr	r3, [pc, #28]	; (8001544 <GPIO_VidPin_Mode_Output+0x2f4>)
 8001528:	68db      	ldr	r3, [r3, #12]
 800152a:	f443 7380 	orr.w	r3, r3, #256	; 0x100
 800152e:	60d3      	str	r3, [r2, #12]
							#elif Open_Drain_Pull == Pull_Down
								Set_Bit(GPIO_A->PUPDR,GPIO_PUPDR_4_Pull_Down);
							#endif
							}
							/*Select Operating Speed*/
							if(Copy_u8Speed==Low_Speed){Clear_Bit(GPIO_A->OSPEEDR,GPIO_OSPEEDR_4_HI);}
 8001530:	793b      	ldrb	r3, [r7, #4]
 8001532:	2b04      	cmp	r3, #4
 8001534:	d108      	bne.n	8001548 <GPIO_VidPin_Mode_Output+0x2f8>
 8001536:	4a03      	ldr	r2, [pc, #12]	; (8001544 <GPIO_VidPin_Mode_Output+0x2f4>)
 8001538:	4b02      	ldr	r3, [pc, #8]	; (8001544 <GPIO_VidPin_Mode_Output+0x2f4>)
 800153a:	689b      	ldr	r3, [r3, #8]
 800153c:	f423 7340 	bic.w	r3, r3, #768	; 0x300
 8001540:	6093      	str	r3, [r2, #8]
							else if(Copy_u8Speed==Medium_Speed){Set_Bit(GPIO_A->OSPEEDR,GPIO_OSPEEDR_4_Medium);}
							else if(Copy_u8Speed==Fast_Speed){/*Enable Compensation Cell*/Set_Bit(GPIO_A->OSPEEDR,GPIO_OSPEEDR_4_Fast);}
							else if(Copy_u8Speed==High_Speed){/*Enable Compensation Cell*/Set_Bit(GPIO_A->OSPEEDR,GPIO_OSPEEDR_4_HI);}
					break;
 8001542:	e309      	b.n	8001b58 <GPIO_VidPin_Mode_Output+0x908>
 8001544:	40020000 	.word	0x40020000
							else if(Copy_u8Speed==Medium_Speed){Set_Bit(GPIO_A->OSPEEDR,GPIO_OSPEEDR_4_Medium);}
 8001548:	793b      	ldrb	r3, [r7, #4]
 800154a:	2b05      	cmp	r3, #5
 800154c:	d106      	bne.n	800155c <GPIO_VidPin_Mode_Output+0x30c>
 800154e:	4a97      	ldr	r2, [pc, #604]	; (80017ac <GPIO_VidPin_Mode_Output+0x55c>)
 8001550:	4b96      	ldr	r3, [pc, #600]	; (80017ac <GPIO_VidPin_Mode_Output+0x55c>)
 8001552:	689b      	ldr	r3, [r3, #8]
 8001554:	f443 7380 	orr.w	r3, r3, #256	; 0x100
 8001558:	6093      	str	r3, [r2, #8]
					break;
 800155a:	e2fd      	b.n	8001b58 <GPIO_VidPin_Mode_Output+0x908>
							else if(Copy_u8Speed==Fast_Speed){/*Enable Compensation Cell*/Set_Bit(GPIO_A->OSPEEDR,GPIO_OSPEEDR_4_Fast);}
 800155c:	793b      	ldrb	r3, [r7, #4]
 800155e:	2b06      	cmp	r3, #6
 8001560:	d106      	bne.n	8001570 <GPIO_VidPin_Mode_Output+0x320>
 8001562:	4a92      	ldr	r2, [pc, #584]	; (80017ac <GPIO_VidPin_Mode_Output+0x55c>)
 8001564:	4b91      	ldr	r3, [pc, #580]	; (80017ac <GPIO_VidPin_Mode_Output+0x55c>)
 8001566:	689b      	ldr	r3, [r3, #8]
 8001568:	f443 7300 	orr.w	r3, r3, #512	; 0x200
 800156c:	6093      	str	r3, [r2, #8]
					break;
 800156e:	e2f3      	b.n	8001b58 <GPIO_VidPin_Mode_Output+0x908>
							else if(Copy_u8Speed==High_Speed){/*Enable Compensation Cell*/Set_Bit(GPIO_A->OSPEEDR,GPIO_OSPEEDR_4_HI);}
 8001570:	793b      	ldrb	r3, [r7, #4]
 8001572:	2b07      	cmp	r3, #7
 8001574:	f040 82f0 	bne.w	8001b58 <GPIO_VidPin_Mode_Output+0x908>
 8001578:	4a8c      	ldr	r2, [pc, #560]	; (80017ac <GPIO_VidPin_Mode_Output+0x55c>)
 800157a:	4b8c      	ldr	r3, [pc, #560]	; (80017ac <GPIO_VidPin_Mode_Output+0x55c>)
 800157c:	689b      	ldr	r3, [r3, #8]
 800157e:	f443 7340 	orr.w	r3, r3, #768	; 0x300
 8001582:	6093      	str	r3, [r2, #8]
					break;
 8001584:	e2e8      	b.n	8001b58 <GPIO_VidPin_Mode_Output+0x908>
					case (Pin_5):
							/*Select Output Type*/
							if(Copy_u8Type==Push_Pull){Clear_Bit(GPIO_A->OTYPER,GPIO_OTYPER_5);}
 8001586:	797b      	ldrb	r3, [r7, #5]
 8001588:	2b08      	cmp	r3, #8
 800158a:	d106      	bne.n	800159a <GPIO_VidPin_Mode_Output+0x34a>
 800158c:	4a87      	ldr	r2, [pc, #540]	; (80017ac <GPIO_VidPin_Mode_Output+0x55c>)
 800158e:	4b87      	ldr	r3, [pc, #540]	; (80017ac <GPIO_VidPin_Mode_Output+0x55c>)
 8001590:	685b      	ldr	r3, [r3, #4]
 8001592:	f023 0320 	bic.w	r3, r3, #32
 8001596:	6053      	str	r3, [r2, #4]
 8001598:	e00e      	b.n	80015b8 <GPIO_VidPin_Mode_Output+0x368>
							else if (Copy_u8Type==Open_Drain)
 800159a:	797b      	ldrb	r3, [r7, #5]
 800159c:	2b09      	cmp	r3, #9
 800159e:	d10b      	bne.n	80015b8 <GPIO_VidPin_Mode_Output+0x368>
							{
								Set_Bit(GPIO_A->OTYPER,GPIO_OTYPER_5);
 80015a0:	4a82      	ldr	r2, [pc, #520]	; (80017ac <GPIO_VidPin_Mode_Output+0x55c>)
 80015a2:	4b82      	ldr	r3, [pc, #520]	; (80017ac <GPIO_VidPin_Mode_Output+0x55c>)
 80015a4:	685b      	ldr	r3, [r3, #4]
 80015a6:	f043 0320 	orr.w	r3, r3, #32
 80015aa:	6053      	str	r3, [r2, #4]
							#if Open_Drain_Pull == Pull_Up
								Set_Bit(GPIO_A->PUPDR,GPIO_PUPDR_5_Pull_Up);
 80015ac:	4a7f      	ldr	r2, [pc, #508]	; (80017ac <GPIO_VidPin_Mode_Output+0x55c>)
 80015ae:	4b7f      	ldr	r3, [pc, #508]	; (80017ac <GPIO_VidPin_Mode_Output+0x55c>)
 80015b0:	68db      	ldr	r3, [r3, #12]
 80015b2:	f443 6380 	orr.w	r3, r3, #1024	; 0x400
 80015b6:	60d3      	str	r3, [r2, #12]
							#elif Open_Drain_Pull == Pull_Down
								Set_Bit(GPIO_A->PUPDR,GPIO_PUPDR_5_Pull_Down);
							#endif
							}
							/*Select Operating Speed*/
							if(Copy_u8Speed==Low_Speed){Clear_Bit(GPIO_A->OSPEEDR,GPIO_OSPEEDR_5_HI);}
 80015b8:	793b      	ldrb	r3, [r7, #4]
 80015ba:	2b04      	cmp	r3, #4
 80015bc:	d106      	bne.n	80015cc <GPIO_VidPin_Mode_Output+0x37c>
 80015be:	4a7b      	ldr	r2, [pc, #492]	; (80017ac <GPIO_VidPin_Mode_Output+0x55c>)
 80015c0:	4b7a      	ldr	r3, [pc, #488]	; (80017ac <GPIO_VidPin_Mode_Output+0x55c>)
 80015c2:	689b      	ldr	r3, [r3, #8]
 80015c4:	f423 6340 	bic.w	r3, r3, #3072	; 0xc00
 80015c8:	6093      	str	r3, [r2, #8]
							else if(Copy_u8Speed==Medium_Speed){Set_Bit(GPIO_A->OSPEEDR,GPIO_OSPEEDR_5_Medium);}
							else if(Copy_u8Speed==Fast_Speed){/*Enable Compensation Cell*/Set_Bit(GPIO_A->OSPEEDR,GPIO_OSPEEDR_5_Fast);}
							else if(Copy_u8Speed==High_Speed){/*Enable Compensation Cell*/Set_Bit(GPIO_A->OSPEEDR,GPIO_OSPEEDR_5_HI);}
					break;
 80015ca:	e2c8      	b.n	8001b5e <GPIO_VidPin_Mode_Output+0x90e>
							else if(Copy_u8Speed==Medium_Speed){Set_Bit(GPIO_A->OSPEEDR,GPIO_OSPEEDR_5_Medium);}
 80015cc:	793b      	ldrb	r3, [r7, #4]
 80015ce:	2b05      	cmp	r3, #5
 80015d0:	d106      	bne.n	80015e0 <GPIO_VidPin_Mode_Output+0x390>
 80015d2:	4a76      	ldr	r2, [pc, #472]	; (80017ac <GPIO_VidPin_Mode_Output+0x55c>)
 80015d4:	4b75      	ldr	r3, [pc, #468]	; (80017ac <GPIO_VidPin_Mode_Output+0x55c>)
 80015d6:	689b      	ldr	r3, [r3, #8]
 80015d8:	f443 6380 	orr.w	r3, r3, #1024	; 0x400
 80015dc:	6093      	str	r3, [r2, #8]
					break;
 80015de:	e2be      	b.n	8001b5e <GPIO_VidPin_Mode_Output+0x90e>
							else if(Copy_u8Speed==Fast_Speed){/*Enable Compensation Cell*/Set_Bit(GPIO_A->OSPEEDR,GPIO_OSPEEDR_5_Fast);}
 80015e0:	793b      	ldrb	r3, [r7, #4]
 80015e2:	2b06      	cmp	r3, #6
 80015e4:	d106      	bne.n	80015f4 <GPIO_VidPin_Mode_Output+0x3a4>
 80015e6:	4a71      	ldr	r2, [pc, #452]	; (80017ac <GPIO_VidPin_Mode_Output+0x55c>)
 80015e8:	4b70      	ldr	r3, [pc, #448]	; (80017ac <GPIO_VidPin_Mode_Output+0x55c>)
 80015ea:	689b      	ldr	r3, [r3, #8]
 80015ec:	f443 6300 	orr.w	r3, r3, #2048	; 0x800
 80015f0:	6093      	str	r3, [r2, #8]
					break;
 80015f2:	e2b4      	b.n	8001b5e <GPIO_VidPin_Mode_Output+0x90e>
							else if(Copy_u8Speed==High_Speed){/*Enable Compensation Cell*/Set_Bit(GPIO_A->OSPEEDR,GPIO_OSPEEDR_5_HI);}
 80015f4:	793b      	ldrb	r3, [r7, #4]
 80015f6:	2b07      	cmp	r3, #7
 80015f8:	f040 82b1 	bne.w	8001b5e <GPIO_VidPin_Mode_Output+0x90e>
 80015fc:	4a6b      	ldr	r2, [pc, #428]	; (80017ac <GPIO_VidPin_Mode_Output+0x55c>)
 80015fe:	4b6b      	ldr	r3, [pc, #428]	; (80017ac <GPIO_VidPin_Mode_Output+0x55c>)
 8001600:	689b      	ldr	r3, [r3, #8]
 8001602:	f443 6340 	orr.w	r3, r3, #3072	; 0xc00
 8001606:	6093      	str	r3, [r2, #8]
					break;
 8001608:	e2a9      	b.n	8001b5e <GPIO_VidPin_Mode_Output+0x90e>
					case (Pin_6):
							/*Select Output Type*/
							if(Copy_u8Type==Push_Pull){Clear_Bit(GPIO_A->OTYPER,GPIO_OTYPER_6);}
 800160a:	797b      	ldrb	r3, [r7, #5]
 800160c:	2b08      	cmp	r3, #8
 800160e:	d106      	bne.n	800161e <GPIO_VidPin_Mode_Output+0x3ce>
 8001610:	4a66      	ldr	r2, [pc, #408]	; (80017ac <GPIO_VidPin_Mode_Output+0x55c>)
 8001612:	4b66      	ldr	r3, [pc, #408]	; (80017ac <GPIO_VidPin_Mode_Output+0x55c>)
 8001614:	685b      	ldr	r3, [r3, #4]
 8001616:	f023 0340 	bic.w	r3, r3, #64	; 0x40
 800161a:	6053      	str	r3, [r2, #4]
 800161c:	e00e      	b.n	800163c <GPIO_VidPin_Mode_Output+0x3ec>
							else if (Copy_u8Type==Open_Drain)
 800161e:	797b      	ldrb	r3, [r7, #5]
 8001620:	2b09      	cmp	r3, #9
 8001622:	d10b      	bne.n	800163c <GPIO_VidPin_Mode_Output+0x3ec>
							{
								Set_Bit(GPIO_A->OTYPER,GPIO_OTYPER_6);
 8001624:	4a61      	ldr	r2, [pc, #388]	; (80017ac <GPIO_VidPin_Mode_Output+0x55c>)
 8001626:	4b61      	ldr	r3, [pc, #388]	; (80017ac <GPIO_VidPin_Mode_Output+0x55c>)
 8001628:	685b      	ldr	r3, [r3, #4]
 800162a:	f043 0340 	orr.w	r3, r3, #64	; 0x40
 800162e:	6053      	str	r3, [r2, #4]
							#if Open_Drain_Pull == Pull_Up
								Set_Bit(GPIO_A->PUPDR,GPIO_PUPDR_6_Pull_Up);
 8001630:	4a5e      	ldr	r2, [pc, #376]	; (80017ac <GPIO_VidPin_Mode_Output+0x55c>)
 8001632:	4b5e      	ldr	r3, [pc, #376]	; (80017ac <GPIO_VidPin_Mode_Output+0x55c>)
 8001634:	68db      	ldr	r3, [r3, #12]
 8001636:	f443 5380 	orr.w	r3, r3, #4096	; 0x1000
 800163a:	60d3      	str	r3, [r2, #12]
							#elif Open_Drain_Pull == Pull_Down
								Set_Bit(GPIO_A->PUPDR,GPIO_PUPDR_6_Pull_Down);
							#endif
							}
							/*Select Operating Speed*/
							if(Copy_u8Speed==Low_Speed){Clear_Bit(GPIO_A->OSPEEDR,GPIO_OSPEEDR_6_HI);}
 800163c:	793b      	ldrb	r3, [r7, #4]
 800163e:	2b04      	cmp	r3, #4
 8001640:	d106      	bne.n	8001650 <GPIO_VidPin_Mode_Output+0x400>
 8001642:	4a5a      	ldr	r2, [pc, #360]	; (80017ac <GPIO_VidPin_Mode_Output+0x55c>)
 8001644:	4b59      	ldr	r3, [pc, #356]	; (80017ac <GPIO_VidPin_Mode_Output+0x55c>)
 8001646:	689b      	ldr	r3, [r3, #8]
 8001648:	f423 5340 	bic.w	r3, r3, #12288	; 0x3000
 800164c:	6093      	str	r3, [r2, #8]
							else if(Copy_u8Speed==Medium_Speed){Set_Bit(GPIO_A->OSPEEDR,GPIO_OSPEEDR_6_Medium);}
							else if(Copy_u8Speed==Fast_Speed){/*Enable Compensation Cell*/Set_Bit(GPIO_A->OSPEEDR,GPIO_OSPEEDR_6_Fast);}
							else if(Copy_u8Speed==High_Speed){/*Enable Compensation Cell*/Set_Bit(GPIO_A->OSPEEDR,GPIO_OSPEEDR_6_HI);}
					break;
 800164e:	e289      	b.n	8001b64 <GPIO_VidPin_Mode_Output+0x914>
							else if(Copy_u8Speed==Medium_Speed){Set_Bit(GPIO_A->OSPEEDR,GPIO_OSPEEDR_6_Medium);}
 8001650:	793b      	ldrb	r3, [r7, #4]
 8001652:	2b05      	cmp	r3, #5
 8001654:	d106      	bne.n	8001664 <GPIO_VidPin_Mode_Output+0x414>
 8001656:	4a55      	ldr	r2, [pc, #340]	; (80017ac <GPIO_VidPin_Mode_Output+0x55c>)
 8001658:	4b54      	ldr	r3, [pc, #336]	; (80017ac <GPIO_VidPin_Mode_Output+0x55c>)
 800165a:	689b      	ldr	r3, [r3, #8]
 800165c:	f443 5380 	orr.w	r3, r3, #4096	; 0x1000
 8001660:	6093      	str	r3, [r2, #8]
					break;
 8001662:	e27f      	b.n	8001b64 <GPIO_VidPin_Mode_Output+0x914>
							else if(Copy_u8Speed==Fast_Speed){/*Enable Compensation Cell*/Set_Bit(GPIO_A->OSPEEDR,GPIO_OSPEEDR_6_Fast);}
 8001664:	793b      	ldrb	r3, [r7, #4]
 8001666:	2b06      	cmp	r3, #6
 8001668:	d106      	bne.n	8001678 <GPIO_VidPin_Mode_Output+0x428>
 800166a:	4a50      	ldr	r2, [pc, #320]	; (80017ac <GPIO_VidPin_Mode_Output+0x55c>)
 800166c:	4b4f      	ldr	r3, [pc, #316]	; (80017ac <GPIO_VidPin_Mode_Output+0x55c>)
 800166e:	689b      	ldr	r3, [r3, #8]
 8001670:	f443 5300 	orr.w	r3, r3, #8192	; 0x2000
 8001674:	6093      	str	r3, [r2, #8]
					break;
 8001676:	e275      	b.n	8001b64 <GPIO_VidPin_Mode_Output+0x914>
							else if(Copy_u8Speed==High_Speed){/*Enable Compensation Cell*/Set_Bit(GPIO_A->OSPEEDR,GPIO_OSPEEDR_6_HI);}
 8001678:	793b      	ldrb	r3, [r7, #4]
 800167a:	2b07      	cmp	r3, #7
 800167c:	f040 8272 	bne.w	8001b64 <GPIO_VidPin_Mode_Output+0x914>
 8001680:	4a4a      	ldr	r2, [pc, #296]	; (80017ac <GPIO_VidPin_Mode_Output+0x55c>)
 8001682:	4b4a      	ldr	r3, [pc, #296]	; (80017ac <GPIO_VidPin_Mode_Output+0x55c>)
 8001684:	689b      	ldr	r3, [r3, #8]
 8001686:	f443 5340 	orr.w	r3, r3, #12288	; 0x3000
 800168a:	6093      	str	r3, [r2, #8]
					break;
 800168c:	e26a      	b.n	8001b64 <GPIO_VidPin_Mode_Output+0x914>
					case (Pin_7):
							/*Select Output Type*/
							if(Copy_u8Type==Push_Pull){Clear_Bit(GPIO_A->OTYPER,GPIO_OTYPER_7);}
 800168e:	797b      	ldrb	r3, [r7, #5]
 8001690:	2b08      	cmp	r3, #8
 8001692:	d106      	bne.n	80016a2 <GPIO_VidPin_Mode_Output+0x452>
 8001694:	4a45      	ldr	r2, [pc, #276]	; (80017ac <GPIO_VidPin_Mode_Output+0x55c>)
 8001696:	4b45      	ldr	r3, [pc, #276]	; (80017ac <GPIO_VidPin_Mode_Output+0x55c>)
 8001698:	685b      	ldr	r3, [r3, #4]
 800169a:	f023 0380 	bic.w	r3, r3, #128	; 0x80
 800169e:	6053      	str	r3, [r2, #4]
 80016a0:	e00e      	b.n	80016c0 <GPIO_VidPin_Mode_Output+0x470>
							else if (Copy_u8Type==Open_Drain)
 80016a2:	797b      	ldrb	r3, [r7, #5]
 80016a4:	2b09      	cmp	r3, #9
 80016a6:	d10b      	bne.n	80016c0 <GPIO_VidPin_Mode_Output+0x470>
							{
								Set_Bit(GPIO_A->OTYPER,GPIO_OTYPER_7);
 80016a8:	4a40      	ldr	r2, [pc, #256]	; (80017ac <GPIO_VidPin_Mode_Output+0x55c>)
 80016aa:	4b40      	ldr	r3, [pc, #256]	; (80017ac <GPIO_VidPin_Mode_Output+0x55c>)
 80016ac:	685b      	ldr	r3, [r3, #4]
 80016ae:	f043 0380 	orr.w	r3, r3, #128	; 0x80
 80016b2:	6053      	str	r3, [r2, #4]
							#if Open_Drain_Pull == Pull_Up
								Set_Bit(GPIO_A->PUPDR,GPIO_PUPDR_7_Pull_Up);
 80016b4:	4a3d      	ldr	r2, [pc, #244]	; (80017ac <GPIO_VidPin_Mode_Output+0x55c>)
 80016b6:	4b3d      	ldr	r3, [pc, #244]	; (80017ac <GPIO_VidPin_Mode_Output+0x55c>)
 80016b8:	68db      	ldr	r3, [r3, #12]
 80016ba:	f443 4380 	orr.w	r3, r3, #16384	; 0x4000
 80016be:	60d3      	str	r3, [r2, #12]
							#elif Open_Drain_Pull == Pull_Down
								Set_Bit(GPIO_A->PUPDR,GPIO_PUPDR_7_Pull_Down);
							#endif
							}
							/*Select Operating Speed*/
							if(Copy_u8Speed==Low_Speed){Clear_Bit(GPIO_A->OSPEEDR,GPIO_OSPEEDR_7_HI);}
 80016c0:	793b      	ldrb	r3, [r7, #4]
 80016c2:	2b04      	cmp	r3, #4
 80016c4:	d106      	bne.n	80016d4 <GPIO_VidPin_Mode_Output+0x484>
 80016c6:	4a39      	ldr	r2, [pc, #228]	; (80017ac <GPIO_VidPin_Mode_Output+0x55c>)
 80016c8:	4b38      	ldr	r3, [pc, #224]	; (80017ac <GPIO_VidPin_Mode_Output+0x55c>)
 80016ca:	689b      	ldr	r3, [r3, #8]
 80016cc:	f423 4340 	bic.w	r3, r3, #49152	; 0xc000
 80016d0:	6093      	str	r3, [r2, #8]
							else if(Copy_u8Speed==Medium_Speed){Set_Bit(GPIO_A->OSPEEDR,GPIO_OSPEEDR_7_Medium);}
							else if(Copy_u8Speed==Fast_Speed){/*Enable Compensation Cell*/Set_Bit(GPIO_A->OSPEEDR,GPIO_OSPEEDR_7_Fast);}
							else if(Copy_u8Speed==High_Speed){/*Enable Compensation Cell*/Set_Bit(GPIO_A->OSPEEDR,GPIO_OSPEEDR_7_HI);}
					break;
 80016d2:	e24a      	b.n	8001b6a <GPIO_VidPin_Mode_Output+0x91a>
							else if(Copy_u8Speed==Medium_Speed){Set_Bit(GPIO_A->OSPEEDR,GPIO_OSPEEDR_7_Medium);}
 80016d4:	793b      	ldrb	r3, [r7, #4]
 80016d6:	2b05      	cmp	r3, #5
 80016d8:	d106      	bne.n	80016e8 <GPIO_VidPin_Mode_Output+0x498>
 80016da:	4a34      	ldr	r2, [pc, #208]	; (80017ac <GPIO_VidPin_Mode_Output+0x55c>)
 80016dc:	4b33      	ldr	r3, [pc, #204]	; (80017ac <GPIO_VidPin_Mode_Output+0x55c>)
 80016de:	689b      	ldr	r3, [r3, #8]
 80016e0:	f443 4380 	orr.w	r3, r3, #16384	; 0x4000
 80016e4:	6093      	str	r3, [r2, #8]
					break;
 80016e6:	e240      	b.n	8001b6a <GPIO_VidPin_Mode_Output+0x91a>
							else if(Copy_u8Speed==Fast_Speed){/*Enable Compensation Cell*/Set_Bit(GPIO_A->OSPEEDR,GPIO_OSPEEDR_7_Fast);}
 80016e8:	793b      	ldrb	r3, [r7, #4]
 80016ea:	2b06      	cmp	r3, #6
 80016ec:	d106      	bne.n	80016fc <GPIO_VidPin_Mode_Output+0x4ac>
 80016ee:	4a2f      	ldr	r2, [pc, #188]	; (80017ac <GPIO_VidPin_Mode_Output+0x55c>)
 80016f0:	4b2e      	ldr	r3, [pc, #184]	; (80017ac <GPIO_VidPin_Mode_Output+0x55c>)
 80016f2:	689b      	ldr	r3, [r3, #8]
 80016f4:	f443 4300 	orr.w	r3, r3, #32768	; 0x8000
 80016f8:	6093      	str	r3, [r2, #8]
					break;
 80016fa:	e236      	b.n	8001b6a <GPIO_VidPin_Mode_Output+0x91a>
							else if(Copy_u8Speed==High_Speed){/*Enable Compensation Cell*/Set_Bit(GPIO_A->OSPEEDR,GPIO_OSPEEDR_7_HI);}
 80016fc:	793b      	ldrb	r3, [r7, #4]
 80016fe:	2b07      	cmp	r3, #7
 8001700:	f040 8233 	bne.w	8001b6a <GPIO_VidPin_Mode_Output+0x91a>
 8001704:	4a29      	ldr	r2, [pc, #164]	; (80017ac <GPIO_VidPin_Mode_Output+0x55c>)
 8001706:	4b29      	ldr	r3, [pc, #164]	; (80017ac <GPIO_VidPin_Mode_Output+0x55c>)
 8001708:	689b      	ldr	r3, [r3, #8]
 800170a:	f443 4340 	orr.w	r3, r3, #49152	; 0xc000
 800170e:	6093      	str	r3, [r2, #8]
					break;
 8001710:	e22b      	b.n	8001b6a <GPIO_VidPin_Mode_Output+0x91a>
					case (Pin_8):
							/*Select Output Type*/
							if(Copy_u8Type==Push_Pull){Clear_Bit(GPIO_A->OTYPER,GPIO_OTYPER_8);}
 8001712:	797b      	ldrb	r3, [r7, #5]
 8001714:	2b08      	cmp	r3, #8
 8001716:	d106      	bne.n	8001726 <GPIO_VidPin_Mode_Output+0x4d6>
 8001718:	4a24      	ldr	r2, [pc, #144]	; (80017ac <GPIO_VidPin_Mode_Output+0x55c>)
 800171a:	4b24      	ldr	r3, [pc, #144]	; (80017ac <GPIO_VidPin_Mode_Output+0x55c>)
 800171c:	685b      	ldr	r3, [r3, #4]
 800171e:	f423 7380 	bic.w	r3, r3, #256	; 0x100
 8001722:	6053      	str	r3, [r2, #4]
 8001724:	e00e      	b.n	8001744 <GPIO_VidPin_Mode_Output+0x4f4>
							else if (Copy_u8Type==Open_Drain)
 8001726:	797b      	ldrb	r3, [r7, #5]
 8001728:	2b09      	cmp	r3, #9
 800172a:	d10b      	bne.n	8001744 <GPIO_VidPin_Mode_Output+0x4f4>
							{
								Set_Bit(GPIO_A->OTYPER,GPIO_OTYPER_8);
 800172c:	4a1f      	ldr	r2, [pc, #124]	; (80017ac <GPIO_VidPin_Mode_Output+0x55c>)
 800172e:	4b1f      	ldr	r3, [pc, #124]	; (80017ac <GPIO_VidPin_Mode_Output+0x55c>)
 8001730:	685b      	ldr	r3, [r3, #4]
 8001732:	f443 7380 	orr.w	r3, r3, #256	; 0x100
 8001736:	6053      	str	r3, [r2, #4]
							#if Open_Drain_Pull == Pull_Up
								Set_Bit(GPIO_A->PUPDR,GPIO_PUPDR_8_Pull_Up);
 8001738:	4a1c      	ldr	r2, [pc, #112]	; (80017ac <GPIO_VidPin_Mode_Output+0x55c>)
 800173a:	4b1c      	ldr	r3, [pc, #112]	; (80017ac <GPIO_VidPin_Mode_Output+0x55c>)
 800173c:	68db      	ldr	r3, [r3, #12]
 800173e:	f443 3380 	orr.w	r3, r3, #65536	; 0x10000
 8001742:	60d3      	str	r3, [r2, #12]
							#elif Open_Drain_Pull == Pull_Down
								Set_Bit(GPIO_A->PUPDR,GPIO_PUPDR_8_Pull_Down);
							#endif
							}
							/*Select Operating Speed*/
							if(Copy_u8Speed==Low_Speed){Clear_Bit(GPIO_A->OSPEEDR,GPIO_OSPEEDR_8_HI);}
 8001744:	793b      	ldrb	r3, [r7, #4]
 8001746:	2b04      	cmp	r3, #4
 8001748:	d106      	bne.n	8001758 <GPIO_VidPin_Mode_Output+0x508>
 800174a:	4a18      	ldr	r2, [pc, #96]	; (80017ac <GPIO_VidPin_Mode_Output+0x55c>)
 800174c:	4b17      	ldr	r3, [pc, #92]	; (80017ac <GPIO_VidPin_Mode_Output+0x55c>)
 800174e:	689b      	ldr	r3, [r3, #8]
 8001750:	f423 3340 	bic.w	r3, r3, #196608	; 0x30000
 8001754:	6093      	str	r3, [r2, #8]
							else if(Copy_u8Speed==Medium_Speed){Set_Bit(GPIO_A->OSPEEDR,GPIO_OSPEEDR_8_Medium);}
							else if(Copy_u8Speed==Fast_Speed){/*Enable Compensation Cell*/Set_Bit(GPIO_A->OSPEEDR,GPIO_OSPEEDR_8_Fast);}
							else if(Copy_u8Speed==High_Speed){/*Enable Compensation Cell*/Set_Bit(GPIO_A->OSPEEDR,GPIO_OSPEEDR_8_HI);}
					break;
 8001756:	e20b      	b.n	8001b70 <GPIO_VidPin_Mode_Output+0x920>
							else if(Copy_u8Speed==Medium_Speed){Set_Bit(GPIO_A->OSPEEDR,GPIO_OSPEEDR_8_Medium);}
 8001758:	793b      	ldrb	r3, [r7, #4]
 800175a:	2b05      	cmp	r3, #5
 800175c:	d106      	bne.n	800176c <GPIO_VidPin_Mode_Output+0x51c>
 800175e:	4a13      	ldr	r2, [pc, #76]	; (80017ac <GPIO_VidPin_Mode_Output+0x55c>)
 8001760:	4b12      	ldr	r3, [pc, #72]	; (80017ac <GPIO_VidPin_Mode_Output+0x55c>)
 8001762:	689b      	ldr	r3, [r3, #8]
 8001764:	f443 3380 	orr.w	r3, r3, #65536	; 0x10000
 8001768:	6093      	str	r3, [r2, #8]
					break;
 800176a:	e201      	b.n	8001b70 <GPIO_VidPin_Mode_Output+0x920>
							else if(Copy_u8Speed==Fast_Speed){/*Enable Compensation Cell*/Set_Bit(GPIO_A->OSPEEDR,GPIO_OSPEEDR_8_Fast);}
 800176c:	793b      	ldrb	r3, [r7, #4]
 800176e:	2b06      	cmp	r3, #6
 8001770:	d106      	bne.n	8001780 <GPIO_VidPin_Mode_Output+0x530>
 8001772:	4a0e      	ldr	r2, [pc, #56]	; (80017ac <GPIO_VidPin_Mode_Output+0x55c>)
 8001774:	4b0d      	ldr	r3, [pc, #52]	; (80017ac <GPIO_VidPin_Mode_Output+0x55c>)
 8001776:	689b      	ldr	r3, [r3, #8]
 8001778:	f443 3300 	orr.w	r3, r3, #131072	; 0x20000
 800177c:	6093      	str	r3, [r2, #8]
					break;
 800177e:	e1f7      	b.n	8001b70 <GPIO_VidPin_Mode_Output+0x920>
							else if(Copy_u8Speed==High_Speed){/*Enable Compensation Cell*/Set_Bit(GPIO_A->OSPEEDR,GPIO_OSPEEDR_8_HI);}
 8001780:	793b      	ldrb	r3, [r7, #4]
 8001782:	2b07      	cmp	r3, #7
 8001784:	f040 81f4 	bne.w	8001b70 <GPIO_VidPin_Mode_Output+0x920>
 8001788:	4a08      	ldr	r2, [pc, #32]	; (80017ac <GPIO_VidPin_Mode_Output+0x55c>)
 800178a:	4b08      	ldr	r3, [pc, #32]	; (80017ac <GPIO_VidPin_Mode_Output+0x55c>)
 800178c:	689b      	ldr	r3, [r3, #8]
 800178e:	f443 3340 	orr.w	r3, r3, #196608	; 0x30000
 8001792:	6093      	str	r3, [r2, #8]
					break;
 8001794:	e1ec      	b.n	8001b70 <GPIO_VidPin_Mode_Output+0x920>
					case (Pin_9):
							/*Select Output Type*/
							if(Copy_u8Type==Push_Pull){Clear_Bit(GPIO_A->OTYPER,GPIO_OTYPER_9);}
 8001796:	797b      	ldrb	r3, [r7, #5]
 8001798:	2b08      	cmp	r3, #8
 800179a:	d109      	bne.n	80017b0 <GPIO_VidPin_Mode_Output+0x560>
 800179c:	4a03      	ldr	r2, [pc, #12]	; (80017ac <GPIO_VidPin_Mode_Output+0x55c>)
 800179e:	4b03      	ldr	r3, [pc, #12]	; (80017ac <GPIO_VidPin_Mode_Output+0x55c>)
 80017a0:	685b      	ldr	r3, [r3, #4]
 80017a2:	f423 7300 	bic.w	r3, r3, #512	; 0x200
 80017a6:	6053      	str	r3, [r2, #4]
 80017a8:	e011      	b.n	80017ce <GPIO_VidPin_Mode_Output+0x57e>
 80017aa:	bf00      	nop
 80017ac:	40020000 	.word	0x40020000
							else if (Copy_u8Type==Open_Drain)
 80017b0:	797b      	ldrb	r3, [r7, #5]
 80017b2:	2b09      	cmp	r3, #9
 80017b4:	d10b      	bne.n	80017ce <GPIO_VidPin_Mode_Output+0x57e>
							{
								Set_Bit(GPIO_A->OTYPER,GPIO_OTYPER_9);
 80017b6:	4a94      	ldr	r2, [pc, #592]	; (8001a08 <GPIO_VidPin_Mode_Output+0x7b8>)
 80017b8:	4b93      	ldr	r3, [pc, #588]	; (8001a08 <GPIO_VidPin_Mode_Output+0x7b8>)
 80017ba:	685b      	ldr	r3, [r3, #4]
 80017bc:	f443 7300 	orr.w	r3, r3, #512	; 0x200
 80017c0:	6053      	str	r3, [r2, #4]
							#if Open_Drain_Pull == Pull_Up
								Set_Bit(GPIO_A->PUPDR,GPIO_PUPDR_9_Pull_Up);
 80017c2:	4a91      	ldr	r2, [pc, #580]	; (8001a08 <GPIO_VidPin_Mode_Output+0x7b8>)
 80017c4:	4b90      	ldr	r3, [pc, #576]	; (8001a08 <GPIO_VidPin_Mode_Output+0x7b8>)
 80017c6:	68db      	ldr	r3, [r3, #12]
 80017c8:	f443 2380 	orr.w	r3, r3, #262144	; 0x40000
 80017cc:	60d3      	str	r3, [r2, #12]
							#elif Open_Drain_Pull == Pull_Down
								Set_Bit(GPIO_A->PUPDR,GPIO_PUPDR_9_Pull_Down);
							#endif
							}
							/*Select Operating Speed*/
							if(Copy_u8Speed==Low_Speed){Clear_Bit(GPIO_A->OSPEEDR,GPIO_OSPEEDR_9_HI);}
 80017ce:	793b      	ldrb	r3, [r7, #4]
 80017d0:	2b04      	cmp	r3, #4
 80017d2:	d106      	bne.n	80017e2 <GPIO_VidPin_Mode_Output+0x592>
 80017d4:	4a8c      	ldr	r2, [pc, #560]	; (8001a08 <GPIO_VidPin_Mode_Output+0x7b8>)
 80017d6:	4b8c      	ldr	r3, [pc, #560]	; (8001a08 <GPIO_VidPin_Mode_Output+0x7b8>)
 80017d8:	689b      	ldr	r3, [r3, #8]
 80017da:	f423 2340 	bic.w	r3, r3, #786432	; 0xc0000
 80017de:	6093      	str	r3, [r2, #8]
							else if(Copy_u8Speed==Medium_Speed){Set_Bit(GPIO_A->OSPEEDR,GPIO_OSPEEDR_9_Medium);}
							else if(Copy_u8Speed==Fast_Speed){/*Enable Compensation Cell*/Set_Bit(GPIO_A->OSPEEDR,GPIO_OSPEEDR_9_Fast);}
							else if(Copy_u8Speed==High_Speed){/*Enable Compensation Cell*/Set_Bit(GPIO_A->OSPEEDR,GPIO_OSPEEDR_9_HI);}
					break;
 80017e0:	e1c9      	b.n	8001b76 <GPIO_VidPin_Mode_Output+0x926>
							else if(Copy_u8Speed==Medium_Speed){Set_Bit(GPIO_A->OSPEEDR,GPIO_OSPEEDR_9_Medium);}
 80017e2:	793b      	ldrb	r3, [r7, #4]
 80017e4:	2b05      	cmp	r3, #5
 80017e6:	d106      	bne.n	80017f6 <GPIO_VidPin_Mode_Output+0x5a6>
 80017e8:	4a87      	ldr	r2, [pc, #540]	; (8001a08 <GPIO_VidPin_Mode_Output+0x7b8>)
 80017ea:	4b87      	ldr	r3, [pc, #540]	; (8001a08 <GPIO_VidPin_Mode_Output+0x7b8>)
 80017ec:	689b      	ldr	r3, [r3, #8]
 80017ee:	f443 2380 	orr.w	r3, r3, #262144	; 0x40000
 80017f2:	6093      	str	r3, [r2, #8]
					break;
 80017f4:	e1bf      	b.n	8001b76 <GPIO_VidPin_Mode_Output+0x926>
							else if(Copy_u8Speed==Fast_Speed){/*Enable Compensation Cell*/Set_Bit(GPIO_A->OSPEEDR,GPIO_OSPEEDR_9_Fast);}
 80017f6:	793b      	ldrb	r3, [r7, #4]
 80017f8:	2b06      	cmp	r3, #6
 80017fa:	d106      	bne.n	800180a <GPIO_VidPin_Mode_Output+0x5ba>
 80017fc:	4a82      	ldr	r2, [pc, #520]	; (8001a08 <GPIO_VidPin_Mode_Output+0x7b8>)
 80017fe:	4b82      	ldr	r3, [pc, #520]	; (8001a08 <GPIO_VidPin_Mode_Output+0x7b8>)
 8001800:	689b      	ldr	r3, [r3, #8]
 8001802:	f443 2300 	orr.w	r3, r3, #524288	; 0x80000
 8001806:	6093      	str	r3, [r2, #8]
					break;
 8001808:	e1b5      	b.n	8001b76 <GPIO_VidPin_Mode_Output+0x926>
							else if(Copy_u8Speed==High_Speed){/*Enable Compensation Cell*/Set_Bit(GPIO_A->OSPEEDR,GPIO_OSPEEDR_9_HI);}
 800180a:	793b      	ldrb	r3, [r7, #4]
 800180c:	2b07      	cmp	r3, #7
 800180e:	f040 81b2 	bne.w	8001b76 <GPIO_VidPin_Mode_Output+0x926>
 8001812:	4a7d      	ldr	r2, [pc, #500]	; (8001a08 <GPIO_VidPin_Mode_Output+0x7b8>)
 8001814:	4b7c      	ldr	r3, [pc, #496]	; (8001a08 <GPIO_VidPin_Mode_Output+0x7b8>)
 8001816:	689b      	ldr	r3, [r3, #8]
 8001818:	f443 2340 	orr.w	r3, r3, #786432	; 0xc0000
 800181c:	6093      	str	r3, [r2, #8]
					break;
 800181e:	e1aa      	b.n	8001b76 <GPIO_VidPin_Mode_Output+0x926>
					case (Pin_10):
							/*Select Output Type*/
							if(Copy_u8Type==Push_Pull){Clear_Bit(GPIO_A->OTYPER,GPIO_OTYPER_10);}
 8001820:	797b      	ldrb	r3, [r7, #5]
 8001822:	2b08      	cmp	r3, #8
 8001824:	d106      	bne.n	8001834 <GPIO_VidPin_Mode_Output+0x5e4>
 8001826:	4a78      	ldr	r2, [pc, #480]	; (8001a08 <GPIO_VidPin_Mode_Output+0x7b8>)
 8001828:	4b77      	ldr	r3, [pc, #476]	; (8001a08 <GPIO_VidPin_Mode_Output+0x7b8>)
 800182a:	685b      	ldr	r3, [r3, #4]
 800182c:	f423 6380 	bic.w	r3, r3, #1024	; 0x400
 8001830:	6053      	str	r3, [r2, #4]
 8001832:	e00e      	b.n	8001852 <GPIO_VidPin_Mode_Output+0x602>
							else if (Copy_u8Type==Open_Drain)
 8001834:	797b      	ldrb	r3, [r7, #5]
 8001836:	2b09      	cmp	r3, #9
 8001838:	d10b      	bne.n	8001852 <GPIO_VidPin_Mode_Output+0x602>
							{
								Set_Bit(GPIO_A->OTYPER,GPIO_OTYPER_10);
 800183a:	4a73      	ldr	r2, [pc, #460]	; (8001a08 <GPIO_VidPin_Mode_Output+0x7b8>)
 800183c:	4b72      	ldr	r3, [pc, #456]	; (8001a08 <GPIO_VidPin_Mode_Output+0x7b8>)
 800183e:	685b      	ldr	r3, [r3, #4]
 8001840:	f443 6380 	orr.w	r3, r3, #1024	; 0x400
 8001844:	6053      	str	r3, [r2, #4]
							#if Open_Drain_Pull == Pull_Up
								Set_Bit(GPIO_A->PUPDR,GPIO_PUPDR_10_Pull_Up);
 8001846:	4a70      	ldr	r2, [pc, #448]	; (8001a08 <GPIO_VidPin_Mode_Output+0x7b8>)
 8001848:	4b6f      	ldr	r3, [pc, #444]	; (8001a08 <GPIO_VidPin_Mode_Output+0x7b8>)
 800184a:	68db      	ldr	r3, [r3, #12]
 800184c:	f443 1380 	orr.w	r3, r3, #1048576	; 0x100000
 8001850:	60d3      	str	r3, [r2, #12]
							#elif Open_Drain_Pull == Pull_Down
								Set_Bit(GPIO_A->PUPDR,GPIO_PUPDR_10_Pull_Down);
							#endif
							}
							/*Select Operating Speed*/
							if(Copy_u8Speed==Low_Speed){Clear_Bit(GPIO_A->OSPEEDR,GPIO_OSPEEDR_10_HI);}
 8001852:	793b      	ldrb	r3, [r7, #4]
 8001854:	2b04      	cmp	r3, #4
 8001856:	d106      	bne.n	8001866 <GPIO_VidPin_Mode_Output+0x616>
 8001858:	4a6b      	ldr	r2, [pc, #428]	; (8001a08 <GPIO_VidPin_Mode_Output+0x7b8>)
 800185a:	4b6b      	ldr	r3, [pc, #428]	; (8001a08 <GPIO_VidPin_Mode_Output+0x7b8>)
 800185c:	689b      	ldr	r3, [r3, #8]
 800185e:	f423 1340 	bic.w	r3, r3, #3145728	; 0x300000
 8001862:	6093      	str	r3, [r2, #8]
							else if(Copy_u8Speed==Medium_Speed){Set_Bit(GPIO_A->OSPEEDR,GPIO_OSPEEDR_10_Medium);}
							else if(Copy_u8Speed==Fast_Speed){/*Enable Compensation Cell*/Set_Bit(GPIO_A->OSPEEDR,GPIO_OSPEEDR_10_Fast);}
							else if(Copy_u8Speed==High_Speed){/*Enable Compensation Cell*/Set_Bit(GPIO_A->OSPEEDR,GPIO_OSPEEDR_10_HI);}
					break;
 8001864:	e18a      	b.n	8001b7c <GPIO_VidPin_Mode_Output+0x92c>
							else if(Copy_u8Speed==Medium_Speed){Set_Bit(GPIO_A->OSPEEDR,GPIO_OSPEEDR_10_Medium);}
 8001866:	793b      	ldrb	r3, [r7, #4]
 8001868:	2b05      	cmp	r3, #5
 800186a:	d106      	bne.n	800187a <GPIO_VidPin_Mode_Output+0x62a>
 800186c:	4a66      	ldr	r2, [pc, #408]	; (8001a08 <GPIO_VidPin_Mode_Output+0x7b8>)
 800186e:	4b66      	ldr	r3, [pc, #408]	; (8001a08 <GPIO_VidPin_Mode_Output+0x7b8>)
 8001870:	689b      	ldr	r3, [r3, #8]
 8001872:	f443 1380 	orr.w	r3, r3, #1048576	; 0x100000
 8001876:	6093      	str	r3, [r2, #8]
					break;
 8001878:	e180      	b.n	8001b7c <GPIO_VidPin_Mode_Output+0x92c>
							else if(Copy_u8Speed==Fast_Speed){/*Enable Compensation Cell*/Set_Bit(GPIO_A->OSPEEDR,GPIO_OSPEEDR_10_Fast);}
 800187a:	793b      	ldrb	r3, [r7, #4]
 800187c:	2b06      	cmp	r3, #6
 800187e:	d106      	bne.n	800188e <GPIO_VidPin_Mode_Output+0x63e>
 8001880:	4a61      	ldr	r2, [pc, #388]	; (8001a08 <GPIO_VidPin_Mode_Output+0x7b8>)
 8001882:	4b61      	ldr	r3, [pc, #388]	; (8001a08 <GPIO_VidPin_Mode_Output+0x7b8>)
 8001884:	689b      	ldr	r3, [r3, #8]
 8001886:	f443 1300 	orr.w	r3, r3, #2097152	; 0x200000
 800188a:	6093      	str	r3, [r2, #8]
					break;
 800188c:	e176      	b.n	8001b7c <GPIO_VidPin_Mode_Output+0x92c>
							else if(Copy_u8Speed==High_Speed){/*Enable Compensation Cell*/Set_Bit(GPIO_A->OSPEEDR,GPIO_OSPEEDR_10_HI);}
 800188e:	793b      	ldrb	r3, [r7, #4]
 8001890:	2b07      	cmp	r3, #7
 8001892:	f040 8173 	bne.w	8001b7c <GPIO_VidPin_Mode_Output+0x92c>
 8001896:	4a5c      	ldr	r2, [pc, #368]	; (8001a08 <GPIO_VidPin_Mode_Output+0x7b8>)
 8001898:	4b5b      	ldr	r3, [pc, #364]	; (8001a08 <GPIO_VidPin_Mode_Output+0x7b8>)
 800189a:	689b      	ldr	r3, [r3, #8]
 800189c:	f443 1340 	orr.w	r3, r3, #3145728	; 0x300000
 80018a0:	6093      	str	r3, [r2, #8]
					break;
 80018a2:	e16b      	b.n	8001b7c <GPIO_VidPin_Mode_Output+0x92c>
					case (Pin_11):
							/*Select Output Type*/
							if(Copy_u8Type==Push_Pull){Clear_Bit(GPIO_A->OTYPER,GPIO_OTYPER_11);}
 80018a4:	797b      	ldrb	r3, [r7, #5]
 80018a6:	2b08      	cmp	r3, #8
 80018a8:	d106      	bne.n	80018b8 <GPIO_VidPin_Mode_Output+0x668>
 80018aa:	4a57      	ldr	r2, [pc, #348]	; (8001a08 <GPIO_VidPin_Mode_Output+0x7b8>)
 80018ac:	4b56      	ldr	r3, [pc, #344]	; (8001a08 <GPIO_VidPin_Mode_Output+0x7b8>)
 80018ae:	685b      	ldr	r3, [r3, #4]
 80018b0:	f423 6300 	bic.w	r3, r3, #2048	; 0x800
 80018b4:	6053      	str	r3, [r2, #4]
 80018b6:	e00e      	b.n	80018d6 <GPIO_VidPin_Mode_Output+0x686>
							else if (Copy_u8Type==Open_Drain)
 80018b8:	797b      	ldrb	r3, [r7, #5]
 80018ba:	2b09      	cmp	r3, #9
 80018bc:	d10b      	bne.n	80018d6 <GPIO_VidPin_Mode_Output+0x686>
							{
								Set_Bit(GPIO_A->OTYPER,GPIO_OTYPER_11);
 80018be:	4a52      	ldr	r2, [pc, #328]	; (8001a08 <GPIO_VidPin_Mode_Output+0x7b8>)
 80018c0:	4b51      	ldr	r3, [pc, #324]	; (8001a08 <GPIO_VidPin_Mode_Output+0x7b8>)
 80018c2:	685b      	ldr	r3, [r3, #4]
 80018c4:	f443 6300 	orr.w	r3, r3, #2048	; 0x800
 80018c8:	6053      	str	r3, [r2, #4]
							#if Open_Drain_Pull == Pull_Up
								Set_Bit(GPIO_A->PUPDR,GPIO_PUPDR_11_Pull_Up);
 80018ca:	4a4f      	ldr	r2, [pc, #316]	; (8001a08 <GPIO_VidPin_Mode_Output+0x7b8>)
 80018cc:	4b4e      	ldr	r3, [pc, #312]	; (8001a08 <GPIO_VidPin_Mode_Output+0x7b8>)
 80018ce:	68db      	ldr	r3, [r3, #12]
 80018d0:	f443 0380 	orr.w	r3, r3, #4194304	; 0x400000
 80018d4:	60d3      	str	r3, [r2, #12]
							#elif Open_Drain_Pull == Pull_Down
								Set_Bit(GPIO_A->PUPDR,GPIO_PUPDR_11_Pull_Down);
							#endif
							}
							/*Select Operating Speed*/
							if(Copy_u8Speed==Low_Speed){Clear_Bit(GPIO_A->OSPEEDR,GPIO_OSPEEDR_11_HI);}
 80018d6:	793b      	ldrb	r3, [r7, #4]
 80018d8:	2b04      	cmp	r3, #4
 80018da:	d106      	bne.n	80018ea <GPIO_VidPin_Mode_Output+0x69a>
 80018dc:	4a4a      	ldr	r2, [pc, #296]	; (8001a08 <GPIO_VidPin_Mode_Output+0x7b8>)
 80018de:	4b4a      	ldr	r3, [pc, #296]	; (8001a08 <GPIO_VidPin_Mode_Output+0x7b8>)
 80018e0:	689b      	ldr	r3, [r3, #8]
 80018e2:	f423 0340 	bic.w	r3, r3, #12582912	; 0xc00000
 80018e6:	6093      	str	r3, [r2, #8]
							else if(Copy_u8Speed==Medium_Speed){Set_Bit(GPIO_A->OSPEEDR,GPIO_OSPEEDR_11_Medium);}
							else if(Copy_u8Speed==Fast_Speed){/*Enable Compensation Cell*/Set_Bit(GPIO_A->OSPEEDR,GPIO_OSPEEDR_11_Fast);}
							else if(Copy_u8Speed==High_Speed){/*Enable Compensation Cell*/Set_Bit(GPIO_A->OSPEEDR,GPIO_OSPEEDR_11_HI);}
					break;
 80018e8:	e14b      	b.n	8001b82 <GPIO_VidPin_Mode_Output+0x932>
							else if(Copy_u8Speed==Medium_Speed){Set_Bit(GPIO_A->OSPEEDR,GPIO_OSPEEDR_11_Medium);}
 80018ea:	793b      	ldrb	r3, [r7, #4]
 80018ec:	2b05      	cmp	r3, #5
 80018ee:	d106      	bne.n	80018fe <GPIO_VidPin_Mode_Output+0x6ae>
 80018f0:	4a45      	ldr	r2, [pc, #276]	; (8001a08 <GPIO_VidPin_Mode_Output+0x7b8>)
 80018f2:	4b45      	ldr	r3, [pc, #276]	; (8001a08 <GPIO_VidPin_Mode_Output+0x7b8>)
 80018f4:	689b      	ldr	r3, [r3, #8]
 80018f6:	f443 0380 	orr.w	r3, r3, #4194304	; 0x400000
 80018fa:	6093      	str	r3, [r2, #8]
					break;
 80018fc:	e141      	b.n	8001b82 <GPIO_VidPin_Mode_Output+0x932>
							else if(Copy_u8Speed==Fast_Speed){/*Enable Compensation Cell*/Set_Bit(GPIO_A->OSPEEDR,GPIO_OSPEEDR_11_Fast);}
 80018fe:	793b      	ldrb	r3, [r7, #4]
 8001900:	2b06      	cmp	r3, #6
 8001902:	d106      	bne.n	8001912 <GPIO_VidPin_Mode_Output+0x6c2>
 8001904:	4a40      	ldr	r2, [pc, #256]	; (8001a08 <GPIO_VidPin_Mode_Output+0x7b8>)
 8001906:	4b40      	ldr	r3, [pc, #256]	; (8001a08 <GPIO_VidPin_Mode_Output+0x7b8>)
 8001908:	689b      	ldr	r3, [r3, #8]
 800190a:	f443 0300 	orr.w	r3, r3, #8388608	; 0x800000
 800190e:	6093      	str	r3, [r2, #8]
					break;
 8001910:	e137      	b.n	8001b82 <GPIO_VidPin_Mode_Output+0x932>
							else if(Copy_u8Speed==High_Speed){/*Enable Compensation Cell*/Set_Bit(GPIO_A->OSPEEDR,GPIO_OSPEEDR_11_HI);}
 8001912:	793b      	ldrb	r3, [r7, #4]
 8001914:	2b07      	cmp	r3, #7
 8001916:	f040 8134 	bne.w	8001b82 <GPIO_VidPin_Mode_Output+0x932>
 800191a:	4a3b      	ldr	r2, [pc, #236]	; (8001a08 <GPIO_VidPin_Mode_Output+0x7b8>)
 800191c:	4b3a      	ldr	r3, [pc, #232]	; (8001a08 <GPIO_VidPin_Mode_Output+0x7b8>)
 800191e:	689b      	ldr	r3, [r3, #8]
 8001920:	f443 0340 	orr.w	r3, r3, #12582912	; 0xc00000
 8001924:	6093      	str	r3, [r2, #8]
					break;
 8001926:	e12c      	b.n	8001b82 <GPIO_VidPin_Mode_Output+0x932>
					case (Pin_12):
							/*Select Output Type*/
							if(Copy_u8Type==Push_Pull){Clear_Bit(GPIO_A->OTYPER,GPIO_OTYPER_12);}
 8001928:	797b      	ldrb	r3, [r7, #5]
 800192a:	2b08      	cmp	r3, #8
 800192c:	d106      	bne.n	800193c <GPIO_VidPin_Mode_Output+0x6ec>
 800192e:	4a36      	ldr	r2, [pc, #216]	; (8001a08 <GPIO_VidPin_Mode_Output+0x7b8>)
 8001930:	4b35      	ldr	r3, [pc, #212]	; (8001a08 <GPIO_VidPin_Mode_Output+0x7b8>)
 8001932:	685b      	ldr	r3, [r3, #4]
 8001934:	f423 5380 	bic.w	r3, r3, #4096	; 0x1000
 8001938:	6053      	str	r3, [r2, #4]
 800193a:	e00e      	b.n	800195a <GPIO_VidPin_Mode_Output+0x70a>
							else if (Copy_u8Type==Open_Drain)
 800193c:	797b      	ldrb	r3, [r7, #5]
 800193e:	2b09      	cmp	r3, #9
 8001940:	d10b      	bne.n	800195a <GPIO_VidPin_Mode_Output+0x70a>
							{
								Set_Bit(GPIO_A->OTYPER,GPIO_OTYPER_12);
 8001942:	4a31      	ldr	r2, [pc, #196]	; (8001a08 <GPIO_VidPin_Mode_Output+0x7b8>)
 8001944:	4b30      	ldr	r3, [pc, #192]	; (8001a08 <GPIO_VidPin_Mode_Output+0x7b8>)
 8001946:	685b      	ldr	r3, [r3, #4]
 8001948:	f443 5380 	orr.w	r3, r3, #4096	; 0x1000
 800194c:	6053      	str	r3, [r2, #4]
							#if Open_Drain_Pull == Pull_Up
								Set_Bit(GPIO_A->PUPDR,GPIO_PUPDR_12_Pull_Up);
 800194e:	4a2e      	ldr	r2, [pc, #184]	; (8001a08 <GPIO_VidPin_Mode_Output+0x7b8>)
 8001950:	4b2d      	ldr	r3, [pc, #180]	; (8001a08 <GPIO_VidPin_Mode_Output+0x7b8>)
 8001952:	68db      	ldr	r3, [r3, #12]
 8001954:	f043 7380 	orr.w	r3, r3, #16777216	; 0x1000000
 8001958:	60d3      	str	r3, [r2, #12]
							#elif Open_Drain_Pull == Pull_Down
								Set_Bit(GPIO_A->PUPDR,GPIO_PUPDR_12_Pull_Down);
							#endif
							}
							/*Select Operating Speed*/
							if(Copy_u8Speed==Low_Speed){Clear_Bit(GPIO_A->OSPEEDR,GPIO_OSPEEDR_12_HI);}
 800195a:	793b      	ldrb	r3, [r7, #4]
 800195c:	2b04      	cmp	r3, #4
 800195e:	d106      	bne.n	800196e <GPIO_VidPin_Mode_Output+0x71e>
 8001960:	4a29      	ldr	r2, [pc, #164]	; (8001a08 <GPIO_VidPin_Mode_Output+0x7b8>)
 8001962:	4b29      	ldr	r3, [pc, #164]	; (8001a08 <GPIO_VidPin_Mode_Output+0x7b8>)
 8001964:	689b      	ldr	r3, [r3, #8]
 8001966:	f023 7340 	bic.w	r3, r3, #50331648	; 0x3000000
 800196a:	6093      	str	r3, [r2, #8]
							else if(Copy_u8Speed==Medium_Speed){Set_Bit(GPIO_A->OSPEEDR,GPIO_OSPEEDR_12_Medium);}
							else if(Copy_u8Speed==Fast_Speed){/*Enable Compensation Cell*/Set_Bit(GPIO_A->OSPEEDR,GPIO_OSPEEDR_12_Fast);}
							else if(Copy_u8Speed==High_Speed){/*Enable Compensation Cell*/Set_Bit(GPIO_A->OSPEEDR,GPIO_OSPEEDR_12_HI);}
					break;
 800196c:	e10c      	b.n	8001b88 <GPIO_VidPin_Mode_Output+0x938>
							else if(Copy_u8Speed==Medium_Speed){Set_Bit(GPIO_A->OSPEEDR,GPIO_OSPEEDR_12_Medium);}
 800196e:	793b      	ldrb	r3, [r7, #4]
 8001970:	2b05      	cmp	r3, #5
 8001972:	d106      	bne.n	8001982 <GPIO_VidPin_Mode_Output+0x732>
 8001974:	4a24      	ldr	r2, [pc, #144]	; (8001a08 <GPIO_VidPin_Mode_Output+0x7b8>)
 8001976:	4b24      	ldr	r3, [pc, #144]	; (8001a08 <GPIO_VidPin_Mode_Output+0x7b8>)
 8001978:	689b      	ldr	r3, [r3, #8]
 800197a:	f043 7380 	orr.w	r3, r3, #16777216	; 0x1000000
 800197e:	6093      	str	r3, [r2, #8]
					break;
 8001980:	e102      	b.n	8001b88 <GPIO_VidPin_Mode_Output+0x938>
							else if(Copy_u8Speed==Fast_Speed){/*Enable Compensation Cell*/Set_Bit(GPIO_A->OSPEEDR,GPIO_OSPEEDR_12_Fast);}
 8001982:	793b      	ldrb	r3, [r7, #4]
 8001984:	2b06      	cmp	r3, #6
 8001986:	d106      	bne.n	8001996 <GPIO_VidPin_Mode_Output+0x746>
 8001988:	4a1f      	ldr	r2, [pc, #124]	; (8001a08 <GPIO_VidPin_Mode_Output+0x7b8>)
 800198a:	4b1f      	ldr	r3, [pc, #124]	; (8001a08 <GPIO_VidPin_Mode_Output+0x7b8>)
 800198c:	689b      	ldr	r3, [r3, #8]
 800198e:	f043 7300 	orr.w	r3, r3, #33554432	; 0x2000000
 8001992:	6093      	str	r3, [r2, #8]
					break;
 8001994:	e0f8      	b.n	8001b88 <GPIO_VidPin_Mode_Output+0x938>
							else if(Copy_u8Speed==High_Speed){/*Enable Compensation Cell*/Set_Bit(GPIO_A->OSPEEDR,GPIO_OSPEEDR_12_HI);}
 8001996:	793b      	ldrb	r3, [r7, #4]
 8001998:	2b07      	cmp	r3, #7
 800199a:	f040 80f5 	bne.w	8001b88 <GPIO_VidPin_Mode_Output+0x938>
 800199e:	4a1a      	ldr	r2, [pc, #104]	; (8001a08 <GPIO_VidPin_Mode_Output+0x7b8>)
 80019a0:	4b19      	ldr	r3, [pc, #100]	; (8001a08 <GPIO_VidPin_Mode_Output+0x7b8>)
 80019a2:	689b      	ldr	r3, [r3, #8]
 80019a4:	f043 7340 	orr.w	r3, r3, #50331648	; 0x3000000
 80019a8:	6093      	str	r3, [r2, #8]
					break;
 80019aa:	e0ed      	b.n	8001b88 <GPIO_VidPin_Mode_Output+0x938>
					case (Pin_13):
							/*Select Output Type*/
							if(Copy_u8Type==Push_Pull){Clear_Bit(GPIO_A->OTYPER,GPIO_OTYPER_13);}
 80019ac:	797b      	ldrb	r3, [r7, #5]
 80019ae:	2b08      	cmp	r3, #8
 80019b0:	d106      	bne.n	80019c0 <GPIO_VidPin_Mode_Output+0x770>
 80019b2:	4a15      	ldr	r2, [pc, #84]	; (8001a08 <GPIO_VidPin_Mode_Output+0x7b8>)
 80019b4:	4b14      	ldr	r3, [pc, #80]	; (8001a08 <GPIO_VidPin_Mode_Output+0x7b8>)
 80019b6:	685b      	ldr	r3, [r3, #4]
 80019b8:	f423 5300 	bic.w	r3, r3, #8192	; 0x2000
 80019bc:	6053      	str	r3, [r2, #4]
 80019be:	e00e      	b.n	80019de <GPIO_VidPin_Mode_Output+0x78e>
							else if (Copy_u8Type==Open_Drain)
 80019c0:	797b      	ldrb	r3, [r7, #5]
 80019c2:	2b09      	cmp	r3, #9
 80019c4:	d10b      	bne.n	80019de <GPIO_VidPin_Mode_Output+0x78e>
							{
								Set_Bit(GPIO_A->OTYPER,GPIO_OTYPER_13);
 80019c6:	4a10      	ldr	r2, [pc, #64]	; (8001a08 <GPIO_VidPin_Mode_Output+0x7b8>)
 80019c8:	4b0f      	ldr	r3, [pc, #60]	; (8001a08 <GPIO_VidPin_Mode_Output+0x7b8>)
 80019ca:	685b      	ldr	r3, [r3, #4]
 80019cc:	f443 5300 	orr.w	r3, r3, #8192	; 0x2000
 80019d0:	6053      	str	r3, [r2, #4]
							#if Open_Drain_Pull == Pull_Up
								Set_Bit(GPIO_A->PUPDR,GPIO_PUPDR_13_Pull_Up);
 80019d2:	4a0d      	ldr	r2, [pc, #52]	; (8001a08 <GPIO_VidPin_Mode_Output+0x7b8>)
 80019d4:	4b0c      	ldr	r3, [pc, #48]	; (8001a08 <GPIO_VidPin_Mode_Output+0x7b8>)
 80019d6:	68db      	ldr	r3, [r3, #12]
 80019d8:	f043 6380 	orr.w	r3, r3, #67108864	; 0x4000000
 80019dc:	60d3      	str	r3, [r2, #12]
							#elif Open_Drain_Pull == Pull_Down
								Set_Bit(GPIO_A->PUPDR,GPIO_PUPDR_13_Pull_Down);
							#endif
							}
							/*Select Operating Speed*/
							if(Copy_u8Speed==Low_Speed){Clear_Bit(GPIO_A->OSPEEDR,GPIO_OSPEEDR_13_HI);}
 80019de:	793b      	ldrb	r3, [r7, #4]
 80019e0:	2b04      	cmp	r3, #4
 80019e2:	d106      	bne.n	80019f2 <GPIO_VidPin_Mode_Output+0x7a2>
 80019e4:	4a08      	ldr	r2, [pc, #32]	; (8001a08 <GPIO_VidPin_Mode_Output+0x7b8>)
 80019e6:	4b08      	ldr	r3, [pc, #32]	; (8001a08 <GPIO_VidPin_Mode_Output+0x7b8>)
 80019e8:	689b      	ldr	r3, [r3, #8]
 80019ea:	f023 6340 	bic.w	r3, r3, #201326592	; 0xc000000
 80019ee:	6093      	str	r3, [r2, #8]
							else if(Copy_u8Speed==Medium_Speed){Set_Bit(GPIO_A->OSPEEDR,GPIO_OSPEEDR_13_Medium);}
							else if(Copy_u8Speed==Fast_Speed){/*Enable Compensation Cell*/Set_Bit(GPIO_A->OSPEEDR,GPIO_OSPEEDR_13_Fast);}
							else if(Copy_u8Speed==High_Speed){/*Enable Compensation Cell*/Set_Bit(GPIO_A->OSPEEDR,GPIO_OSPEEDR_13_HI);}
					break;
 80019f0:	e0cd      	b.n	8001b8e <GPIO_VidPin_Mode_Output+0x93e>
							else if(Copy_u8Speed==Medium_Speed){Set_Bit(GPIO_A->OSPEEDR,GPIO_OSPEEDR_13_Medium);}
 80019f2:	793b      	ldrb	r3, [r7, #4]
 80019f4:	2b05      	cmp	r3, #5
 80019f6:	d109      	bne.n	8001a0c <GPIO_VidPin_Mode_Output+0x7bc>
 80019f8:	4a03      	ldr	r2, [pc, #12]	; (8001a08 <GPIO_VidPin_Mode_Output+0x7b8>)
 80019fa:	4b03      	ldr	r3, [pc, #12]	; (8001a08 <GPIO_VidPin_Mode_Output+0x7b8>)
 80019fc:	689b      	ldr	r3, [r3, #8]
 80019fe:	f043 6380 	orr.w	r3, r3, #67108864	; 0x4000000
 8001a02:	6093      	str	r3, [r2, #8]
					break;
 8001a04:	e0c3      	b.n	8001b8e <GPIO_VidPin_Mode_Output+0x93e>
 8001a06:	bf00      	nop
 8001a08:	40020000 	.word	0x40020000
							else if(Copy_u8Speed==Fast_Speed){/*Enable Compensation Cell*/Set_Bit(GPIO_A->OSPEEDR,GPIO_OSPEEDR_13_Fast);}
 8001a0c:	793b      	ldrb	r3, [r7, #4]
 8001a0e:	2b06      	cmp	r3, #6
 8001a10:	d106      	bne.n	8001a20 <GPIO_VidPin_Mode_Output+0x7d0>
 8001a12:	4a9e      	ldr	r2, [pc, #632]	; (8001c8c <GPIO_VidPin_Mode_Output+0xa3c>)
 8001a14:	4b9d      	ldr	r3, [pc, #628]	; (8001c8c <GPIO_VidPin_Mode_Output+0xa3c>)
 8001a16:	689b      	ldr	r3, [r3, #8]
 8001a18:	f043 6300 	orr.w	r3, r3, #134217728	; 0x8000000
 8001a1c:	6093      	str	r3, [r2, #8]
					break;
 8001a1e:	e0b6      	b.n	8001b8e <GPIO_VidPin_Mode_Output+0x93e>
							else if(Copy_u8Speed==High_Speed){/*Enable Compensation Cell*/Set_Bit(GPIO_A->OSPEEDR,GPIO_OSPEEDR_13_HI);}
 8001a20:	793b      	ldrb	r3, [r7, #4]
 8001a22:	2b07      	cmp	r3, #7
 8001a24:	f040 80b3 	bne.w	8001b8e <GPIO_VidPin_Mode_Output+0x93e>
 8001a28:	4a98      	ldr	r2, [pc, #608]	; (8001c8c <GPIO_VidPin_Mode_Output+0xa3c>)
 8001a2a:	4b98      	ldr	r3, [pc, #608]	; (8001c8c <GPIO_VidPin_Mode_Output+0xa3c>)
 8001a2c:	689b      	ldr	r3, [r3, #8]
 8001a2e:	f043 6340 	orr.w	r3, r3, #201326592	; 0xc000000
 8001a32:	6093      	str	r3, [r2, #8]
					break;
 8001a34:	e0ab      	b.n	8001b8e <GPIO_VidPin_Mode_Output+0x93e>
					case (Pin_14):
							/*Select Output Type*/
							if(Copy_u8Type==Push_Pull){Clear_Bit(GPIO_A->OTYPER,GPIO_OTYPER_14);}
 8001a36:	797b      	ldrb	r3, [r7, #5]
 8001a38:	2b08      	cmp	r3, #8
 8001a3a:	d106      	bne.n	8001a4a <GPIO_VidPin_Mode_Output+0x7fa>
 8001a3c:	4a93      	ldr	r2, [pc, #588]	; (8001c8c <GPIO_VidPin_Mode_Output+0xa3c>)
 8001a3e:	4b93      	ldr	r3, [pc, #588]	; (8001c8c <GPIO_VidPin_Mode_Output+0xa3c>)
 8001a40:	685b      	ldr	r3, [r3, #4]
 8001a42:	f423 4380 	bic.w	r3, r3, #16384	; 0x4000
 8001a46:	6053      	str	r3, [r2, #4]
 8001a48:	e00e      	b.n	8001a68 <GPIO_VidPin_Mode_Output+0x818>
							else if (Copy_u8Type==Open_Drain)
 8001a4a:	797b      	ldrb	r3, [r7, #5]
 8001a4c:	2b09      	cmp	r3, #9
 8001a4e:	d10b      	bne.n	8001a68 <GPIO_VidPin_Mode_Output+0x818>
							{
								Set_Bit(GPIO_A->OTYPER,GPIO_OTYPER_14);
 8001a50:	4a8e      	ldr	r2, [pc, #568]	; (8001c8c <GPIO_VidPin_Mode_Output+0xa3c>)
 8001a52:	4b8e      	ldr	r3, [pc, #568]	; (8001c8c <GPIO_VidPin_Mode_Output+0xa3c>)
 8001a54:	685b      	ldr	r3, [r3, #4]
 8001a56:	f443 4380 	orr.w	r3, r3, #16384	; 0x4000
 8001a5a:	6053      	str	r3, [r2, #4]
							#if Open_Drain_Pull == Pull_Up
								Set_Bit(GPIO_A->PUPDR,GPIO_PUPDR_14_Pull_Up);
 8001a5c:	4a8b      	ldr	r2, [pc, #556]	; (8001c8c <GPIO_VidPin_Mode_Output+0xa3c>)
 8001a5e:	4b8b      	ldr	r3, [pc, #556]	; (8001c8c <GPIO_VidPin_Mode_Output+0xa3c>)
 8001a60:	68db      	ldr	r3, [r3, #12]
 8001a62:	f043 5380 	orr.w	r3, r3, #268435456	; 0x10000000
 8001a66:	60d3      	str	r3, [r2, #12]
							#elif Open_Drain_Pull == Pull_Down
								Set_Bit(GPIO_A->PUPDR,GPIO_PUPDR_14_Pull_Down);
							#endif
							}
							/*Select Operating Speed*/
							if(Copy_u8Speed==Low_Speed){Clear_Bit(GPIO_A->OSPEEDR,GPIO_OSPEEDR_14_HI);}
 8001a68:	793b      	ldrb	r3, [r7, #4]
 8001a6a:	2b04      	cmp	r3, #4
 8001a6c:	d106      	bne.n	8001a7c <GPIO_VidPin_Mode_Output+0x82c>
 8001a6e:	4a87      	ldr	r2, [pc, #540]	; (8001c8c <GPIO_VidPin_Mode_Output+0xa3c>)
 8001a70:	4b86      	ldr	r3, [pc, #536]	; (8001c8c <GPIO_VidPin_Mode_Output+0xa3c>)
 8001a72:	689b      	ldr	r3, [r3, #8]
 8001a74:	f023 5340 	bic.w	r3, r3, #805306368	; 0x30000000
 8001a78:	6093      	str	r3, [r2, #8]
							else if(Copy_u8Speed==Medium_Speed){Set_Bit(GPIO_A->OSPEEDR,GPIO_OSPEEDR_14_Medium);}
							else if(Copy_u8Speed==Fast_Speed){/*Enable Compensation Cell*/Set_Bit(GPIO_A->OSPEEDR,GPIO_OSPEEDR_14_Fast);}
							else if(Copy_u8Speed==High_Speed){/*Enable Compensation Cell*/Set_Bit(GPIO_A->OSPEEDR,GPIO_OSPEEDR_14_HI);}
					break;
 8001a7a:	e08b      	b.n	8001b94 <GPIO_VidPin_Mode_Output+0x944>
							else if(Copy_u8Speed==Medium_Speed){Set_Bit(GPIO_A->OSPEEDR,GPIO_OSPEEDR_14_Medium);}
 8001a7c:	793b      	ldrb	r3, [r7, #4]
 8001a7e:	2b05      	cmp	r3, #5
 8001a80:	d106      	bne.n	8001a90 <GPIO_VidPin_Mode_Output+0x840>
 8001a82:	4a82      	ldr	r2, [pc, #520]	; (8001c8c <GPIO_VidPin_Mode_Output+0xa3c>)
 8001a84:	4b81      	ldr	r3, [pc, #516]	; (8001c8c <GPIO_VidPin_Mode_Output+0xa3c>)
 8001a86:	689b      	ldr	r3, [r3, #8]
 8001a88:	f043 5380 	orr.w	r3, r3, #268435456	; 0x10000000
 8001a8c:	6093      	str	r3, [r2, #8]
					break;
 8001a8e:	e081      	b.n	8001b94 <GPIO_VidPin_Mode_Output+0x944>
							else if(Copy_u8Speed==Fast_Speed){/*Enable Compensation Cell*/Set_Bit(GPIO_A->OSPEEDR,GPIO_OSPEEDR_14_Fast);}
 8001a90:	793b      	ldrb	r3, [r7, #4]
 8001a92:	2b06      	cmp	r3, #6
 8001a94:	d106      	bne.n	8001aa4 <GPIO_VidPin_Mode_Output+0x854>
 8001a96:	4a7d      	ldr	r2, [pc, #500]	; (8001c8c <GPIO_VidPin_Mode_Output+0xa3c>)
 8001a98:	4b7c      	ldr	r3, [pc, #496]	; (8001c8c <GPIO_VidPin_Mode_Output+0xa3c>)
 8001a9a:	689b      	ldr	r3, [r3, #8]
 8001a9c:	f043 5300 	orr.w	r3, r3, #536870912	; 0x20000000
 8001aa0:	6093      	str	r3, [r2, #8]
					break;
 8001aa2:	e077      	b.n	8001b94 <GPIO_VidPin_Mode_Output+0x944>
							else if(Copy_u8Speed==High_Speed){/*Enable Compensation Cell*/Set_Bit(GPIO_A->OSPEEDR,GPIO_OSPEEDR_14_HI);}
 8001aa4:	793b      	ldrb	r3, [r7, #4]
 8001aa6:	2b07      	cmp	r3, #7
 8001aa8:	d174      	bne.n	8001b94 <GPIO_VidPin_Mode_Output+0x944>
 8001aaa:	4a78      	ldr	r2, [pc, #480]	; (8001c8c <GPIO_VidPin_Mode_Output+0xa3c>)
 8001aac:	4b77      	ldr	r3, [pc, #476]	; (8001c8c <GPIO_VidPin_Mode_Output+0xa3c>)
 8001aae:	689b      	ldr	r3, [r3, #8]
 8001ab0:	f043 5340 	orr.w	r3, r3, #805306368	; 0x30000000
 8001ab4:	6093      	str	r3, [r2, #8]
					break;
 8001ab6:	e06d      	b.n	8001b94 <GPIO_VidPin_Mode_Output+0x944>
					case (Pin_15):
							/*Select Output Type*/
							if(Copy_u8Type==Push_Pull){Clear_Bit(GPIO_A->OTYPER,GPIO_OTYPER_15);}
 8001ab8:	797b      	ldrb	r3, [r7, #5]
 8001aba:	2b08      	cmp	r3, #8
 8001abc:	d106      	bne.n	8001acc <GPIO_VidPin_Mode_Output+0x87c>
 8001abe:	4a73      	ldr	r2, [pc, #460]	; (8001c8c <GPIO_VidPin_Mode_Output+0xa3c>)
 8001ac0:	4b72      	ldr	r3, [pc, #456]	; (8001c8c <GPIO_VidPin_Mode_Output+0xa3c>)
 8001ac2:	685b      	ldr	r3, [r3, #4]
 8001ac4:	f423 4300 	bic.w	r3, r3, #32768	; 0x8000
 8001ac8:	6053      	str	r3, [r2, #4]
 8001aca:	e00e      	b.n	8001aea <GPIO_VidPin_Mode_Output+0x89a>
							else if (Copy_u8Type==Open_Drain)
 8001acc:	797b      	ldrb	r3, [r7, #5]
 8001ace:	2b09      	cmp	r3, #9
 8001ad0:	d10b      	bne.n	8001aea <GPIO_VidPin_Mode_Output+0x89a>
							{
								Set_Bit(GPIO_A->OTYPER,GPIO_OTYPER_15);
 8001ad2:	4a6e      	ldr	r2, [pc, #440]	; (8001c8c <GPIO_VidPin_Mode_Output+0xa3c>)
 8001ad4:	4b6d      	ldr	r3, [pc, #436]	; (8001c8c <GPIO_VidPin_Mode_Output+0xa3c>)
 8001ad6:	685b      	ldr	r3, [r3, #4]
 8001ad8:	f443 4300 	orr.w	r3, r3, #32768	; 0x8000
 8001adc:	6053      	str	r3, [r2, #4]
							#if Open_Drain_Pull == Pull_Up
								Set_Bit(GPIO_A->PUPDR,GPIO_PUPDR_15_Pull_Up);
 8001ade:	4a6b      	ldr	r2, [pc, #428]	; (8001c8c <GPIO_VidPin_Mode_Output+0xa3c>)
 8001ae0:	4b6a      	ldr	r3, [pc, #424]	; (8001c8c <GPIO_VidPin_Mode_Output+0xa3c>)
 8001ae2:	68db      	ldr	r3, [r3, #12]
 8001ae4:	f043 4380 	orr.w	r3, r3, #1073741824	; 0x40000000
 8001ae8:	60d3      	str	r3, [r2, #12]
							#elif Open_Drain_Pull == Pull_Down
								Set_Bit(GPIO_A->PUPDR,GPIO_PUPDR_15_Pull_Down);
							#endif
							}
							/*Select Operating Speed*/
							if(Copy_u8Speed==Low_Speed){Clear_Bit(GPIO_A->OSPEEDR,GPIO_OSPEEDR_15_HI);}
 8001aea:	793b      	ldrb	r3, [r7, #4]
 8001aec:	2b04      	cmp	r3, #4
 8001aee:	d106      	bne.n	8001afe <GPIO_VidPin_Mode_Output+0x8ae>
 8001af0:	4a66      	ldr	r2, [pc, #408]	; (8001c8c <GPIO_VidPin_Mode_Output+0xa3c>)
 8001af2:	4b66      	ldr	r3, [pc, #408]	; (8001c8c <GPIO_VidPin_Mode_Output+0xa3c>)
 8001af4:	689b      	ldr	r3, [r3, #8]
 8001af6:	f023 4340 	bic.w	r3, r3, #3221225472	; 0xc0000000
 8001afa:	6093      	str	r3, [r2, #8]
							else if(Copy_u8Speed==Medium_Speed){Set_Bit(GPIO_A->OSPEEDR,GPIO_OSPEEDR_15_Medium);}
							else if(Copy_u8Speed==Fast_Speed){/*Enable Compensation Cell*/Set_Bit(GPIO_A->OSPEEDR,GPIO_OSPEEDR_15_Fast);}
							else if(Copy_u8Speed==High_Speed){/*Enable Compensation Cell*/Set_Bit(GPIO_A->OSPEEDR,GPIO_OSPEEDR_15_HI);}
					break;
 8001afc:	e04d      	b.n	8001b9a <GPIO_VidPin_Mode_Output+0x94a>
							else if(Copy_u8Speed==Medium_Speed){Set_Bit(GPIO_A->OSPEEDR,GPIO_OSPEEDR_15_Medium);}
 8001afe:	793b      	ldrb	r3, [r7, #4]
 8001b00:	2b05      	cmp	r3, #5
 8001b02:	d106      	bne.n	8001b12 <GPIO_VidPin_Mode_Output+0x8c2>
 8001b04:	4a61      	ldr	r2, [pc, #388]	; (8001c8c <GPIO_VidPin_Mode_Output+0xa3c>)
 8001b06:	4b61      	ldr	r3, [pc, #388]	; (8001c8c <GPIO_VidPin_Mode_Output+0xa3c>)
 8001b08:	689b      	ldr	r3, [r3, #8]
 8001b0a:	f043 4380 	orr.w	r3, r3, #1073741824	; 0x40000000
 8001b0e:	6093      	str	r3, [r2, #8]
					break;
 8001b10:	e043      	b.n	8001b9a <GPIO_VidPin_Mode_Output+0x94a>
							else if(Copy_u8Speed==Fast_Speed){/*Enable Compensation Cell*/Set_Bit(GPIO_A->OSPEEDR,GPIO_OSPEEDR_15_Fast);}
 8001b12:	793b      	ldrb	r3, [r7, #4]
 8001b14:	2b06      	cmp	r3, #6
 8001b16:	d106      	bne.n	8001b26 <GPIO_VidPin_Mode_Output+0x8d6>
 8001b18:	4a5c      	ldr	r2, [pc, #368]	; (8001c8c <GPIO_VidPin_Mode_Output+0xa3c>)
 8001b1a:	4b5c      	ldr	r3, [pc, #368]	; (8001c8c <GPIO_VidPin_Mode_Output+0xa3c>)
 8001b1c:	689b      	ldr	r3, [r3, #8]
 8001b1e:	f043 4300 	orr.w	r3, r3, #2147483648	; 0x80000000
 8001b22:	6093      	str	r3, [r2, #8]
					break;
 8001b24:	e039      	b.n	8001b9a <GPIO_VidPin_Mode_Output+0x94a>
							else if(Copy_u8Speed==High_Speed){/*Enable Compensation Cell*/Set_Bit(GPIO_A->OSPEEDR,GPIO_OSPEEDR_15_HI);}
 8001b26:	793b      	ldrb	r3, [r7, #4]
 8001b28:	2b07      	cmp	r3, #7
 8001b2a:	d136      	bne.n	8001b9a <GPIO_VidPin_Mode_Output+0x94a>
 8001b2c:	4a57      	ldr	r2, [pc, #348]	; (8001c8c <GPIO_VidPin_Mode_Output+0xa3c>)
 8001b2e:	4b57      	ldr	r3, [pc, #348]	; (8001c8c <GPIO_VidPin_Mode_Output+0xa3c>)
 8001b30:	689b      	ldr	r3, [r3, #8]
 8001b32:	f043 4340 	orr.w	r3, r3, #3221225472	; 0xc0000000
 8001b36:	6093      	str	r3, [r2, #8]
					break;
 8001b38:	e02f      	b.n	8001b9a <GPIO_VidPin_Mode_Output+0x94a>
					default:break;
 8001b3a:	bf00      	nop
 8001b3c:	f002 ba38 	b.w	8003fb0 <GPIO_VidPin_Mode_Output+0x2d60>
					break;
 8001b40:	bf00      	nop
 8001b42:	f002 ba35 	b.w	8003fb0 <GPIO_VidPin_Mode_Output+0x2d60>
					break;
 8001b46:	bf00      	nop
 8001b48:	f002 ba32 	b.w	8003fb0 <GPIO_VidPin_Mode_Output+0x2d60>
					break;
 8001b4c:	bf00      	nop
 8001b4e:	f002 ba2f 	b.w	8003fb0 <GPIO_VidPin_Mode_Output+0x2d60>
					break;
 8001b52:	bf00      	nop
 8001b54:	f002 ba2c 	b.w	8003fb0 <GPIO_VidPin_Mode_Output+0x2d60>
					break;
 8001b58:	bf00      	nop
 8001b5a:	f002 ba29 	b.w	8003fb0 <GPIO_VidPin_Mode_Output+0x2d60>
					break;
 8001b5e:	bf00      	nop
 8001b60:	f002 ba26 	b.w	8003fb0 <GPIO_VidPin_Mode_Output+0x2d60>
					break;
 8001b64:	bf00      	nop
 8001b66:	f002 ba23 	b.w	8003fb0 <GPIO_VidPin_Mode_Output+0x2d60>
					break;
 8001b6a:	bf00      	nop
 8001b6c:	f002 ba20 	b.w	8003fb0 <GPIO_VidPin_Mode_Output+0x2d60>
					break;
 8001b70:	bf00      	nop
 8001b72:	f002 ba1d 	b.w	8003fb0 <GPIO_VidPin_Mode_Output+0x2d60>
					break;
 8001b76:	bf00      	nop
 8001b78:	f002 ba1a 	b.w	8003fb0 <GPIO_VidPin_Mode_Output+0x2d60>
					break;
 8001b7c:	bf00      	nop
 8001b7e:	f002 ba17 	b.w	8003fb0 <GPIO_VidPin_Mode_Output+0x2d60>
					break;
 8001b82:	bf00      	nop
 8001b84:	f002 ba14 	b.w	8003fb0 <GPIO_VidPin_Mode_Output+0x2d60>
					break;
 8001b88:	bf00      	nop
 8001b8a:	f002 ba11 	b.w	8003fb0 <GPIO_VidPin_Mode_Output+0x2d60>
					break;
 8001b8e:	bf00      	nop
 8001b90:	f002 ba0e 	b.w	8003fb0 <GPIO_VidPin_Mode_Output+0x2d60>
					break;
 8001b94:	bf00      	nop
 8001b96:	f002 ba0b 	b.w	8003fb0 <GPIO_VidPin_Mode_Output+0x2d60>
					break;
 8001b9a:	bf00      	nop
				}
		break;
 8001b9c:	f002 ba08 	b.w	8003fb0 <GPIO_VidPin_Mode_Output+0x2d60>
		case(Port_B):
			switch (Copy_u8Pin)
 8001ba0:	79bb      	ldrb	r3, [r7, #6]
 8001ba2:	2b0f      	cmp	r3, #15
 8001ba4:	f200 8451 	bhi.w	800244a <GPIO_VidPin_Mode_Output+0x11fa>
 8001ba8:	a201      	add	r2, pc, #4	; (adr r2, 8001bb0 <GPIO_VidPin_Mode_Output+0x960>)
 8001baa:	f852 f023 	ldr.w	pc, [r2, r3, lsl #2]
 8001bae:	bf00      	nop
 8001bb0:	08001bf1 	.word	0x08001bf1
 8001bb4:	08001c79 	.word	0x08001c79
 8001bb8:	08001d05 	.word	0x08001d05
 8001bbc:	08001d89 	.word	0x08001d89
 8001bc0:	08001e0d 	.word	0x08001e0d
 8001bc4:	08001e91 	.word	0x08001e91
 8001bc8:	08001f1b 	.word	0x08001f1b
 8001bcc:	08001f9f 	.word	0x08001f9f
 8001bd0:	08002023 	.word	0x08002023
 8001bd4:	080020a7 	.word	0x080020a7
 8001bd8:	0800212b 	.word	0x0800212b
 8001bdc:	080021b5 	.word	0x080021b5
 8001be0:	08002239 	.word	0x08002239
 8001be4:	080022bd 	.word	0x080022bd
 8001be8:	08002341 	.word	0x08002341
 8001bec:	080023c9 	.word	0x080023c9
			{
				case (Pin_0):
						/*Select Output Type*/
						if(Copy_u8Type==Push_Pull){Clear_Bit(GPIO_B->OTYPER,GPIO_OTYPER_0);}
 8001bf0:	797b      	ldrb	r3, [r7, #5]
 8001bf2:	2b08      	cmp	r3, #8
 8001bf4:	d106      	bne.n	8001c04 <GPIO_VidPin_Mode_Output+0x9b4>
 8001bf6:	4a26      	ldr	r2, [pc, #152]	; (8001c90 <GPIO_VidPin_Mode_Output+0xa40>)
 8001bf8:	4b25      	ldr	r3, [pc, #148]	; (8001c90 <GPIO_VidPin_Mode_Output+0xa40>)
 8001bfa:	685b      	ldr	r3, [r3, #4]
 8001bfc:	f023 0301 	bic.w	r3, r3, #1
 8001c00:	6053      	str	r3, [r2, #4]
 8001c02:	e00e      	b.n	8001c22 <GPIO_VidPin_Mode_Output+0x9d2>
						else if (Copy_u8Type==Open_Drain)
 8001c04:	797b      	ldrb	r3, [r7, #5]
 8001c06:	2b09      	cmp	r3, #9
 8001c08:	d10b      	bne.n	8001c22 <GPIO_VidPin_Mode_Output+0x9d2>
						{
							Set_Bit(GPIO_B->OTYPER,GPIO_OTYPER_0);
 8001c0a:	4a21      	ldr	r2, [pc, #132]	; (8001c90 <GPIO_VidPin_Mode_Output+0xa40>)
 8001c0c:	4b20      	ldr	r3, [pc, #128]	; (8001c90 <GPIO_VidPin_Mode_Output+0xa40>)
 8001c0e:	685b      	ldr	r3, [r3, #4]
 8001c10:	f043 0301 	orr.w	r3, r3, #1
 8001c14:	6053      	str	r3, [r2, #4]
						#if Open_Drain_Pull == Pull_Up
							Set_Bit(GPIO_B->PUPDR,GPIO_PUPDR_0_Pull_Up);
 8001c16:	4a1e      	ldr	r2, [pc, #120]	; (8001c90 <GPIO_VidPin_Mode_Output+0xa40>)
 8001c18:	4b1d      	ldr	r3, [pc, #116]	; (8001c90 <GPIO_VidPin_Mode_Output+0xa40>)
 8001c1a:	68db      	ldr	r3, [r3, #12]
 8001c1c:	f043 0301 	orr.w	r3, r3, #1
 8001c20:	60d3      	str	r3, [r2, #12]
						#elif Open_Drain_Pull == Pull_Down
							Set_Bit(Copy_u8PortAddress->PUPDR,GPIO_PUPDR_0_Pull_Down);
						#endif
						}
						/*Select Operating Speed*/
						if(Copy_u8Speed==Low_Speed){Clear_Bit(GPIO_B->OSPEEDR,GPIO_OSPEEDR_0_HI);}
 8001c22:	793b      	ldrb	r3, [r7, #4]
 8001c24:	2b04      	cmp	r3, #4
 8001c26:	d107      	bne.n	8001c38 <GPIO_VidPin_Mode_Output+0x9e8>
 8001c28:	4a19      	ldr	r2, [pc, #100]	; (8001c90 <GPIO_VidPin_Mode_Output+0xa40>)
 8001c2a:	4b19      	ldr	r3, [pc, #100]	; (8001c90 <GPIO_VidPin_Mode_Output+0xa40>)
 8001c2c:	689b      	ldr	r3, [r3, #8]
 8001c2e:	f023 0303 	bic.w	r3, r3, #3
 8001c32:	6093      	str	r3, [r2, #8]
						else if(Copy_u8Speed==Medium_Speed){Set_Bit(GPIO_B->OSPEEDR,GPIO_OSPEEDR_0_Medium);}
						else if(Copy_u8Speed==Fast_Speed){/*Enable Compensation Cell*/Set_Bit(GPIO_B->OSPEEDR,GPIO_OSPEEDR_0_Fast);}
						else if(Copy_u8Speed==High_Speed){/*Enable Compensation Cell*/Set_Bit(GPIO_B->OSPEEDR,GPIO_OSPEEDR_0_HI);}
				break;
 8001c34:	f000 bc0c 	b.w	8002450 <GPIO_VidPin_Mode_Output+0x1200>
						else if(Copy_u8Speed==Medium_Speed){Set_Bit(GPIO_B->OSPEEDR,GPIO_OSPEEDR_0_Medium);}
 8001c38:	793b      	ldrb	r3, [r7, #4]
 8001c3a:	2b05      	cmp	r3, #5
 8001c3c:	d107      	bne.n	8001c4e <GPIO_VidPin_Mode_Output+0x9fe>
 8001c3e:	4a14      	ldr	r2, [pc, #80]	; (8001c90 <GPIO_VidPin_Mode_Output+0xa40>)
 8001c40:	4b13      	ldr	r3, [pc, #76]	; (8001c90 <GPIO_VidPin_Mode_Output+0xa40>)
 8001c42:	689b      	ldr	r3, [r3, #8]
 8001c44:	f043 0301 	orr.w	r3, r3, #1
 8001c48:	6093      	str	r3, [r2, #8]
				break;
 8001c4a:	f000 bc01 	b.w	8002450 <GPIO_VidPin_Mode_Output+0x1200>
						else if(Copy_u8Speed==Fast_Speed){/*Enable Compensation Cell*/Set_Bit(GPIO_B->OSPEEDR,GPIO_OSPEEDR_0_Fast);}
 8001c4e:	793b      	ldrb	r3, [r7, #4]
 8001c50:	2b06      	cmp	r3, #6
 8001c52:	d106      	bne.n	8001c62 <GPIO_VidPin_Mode_Output+0xa12>
 8001c54:	4a0e      	ldr	r2, [pc, #56]	; (8001c90 <GPIO_VidPin_Mode_Output+0xa40>)
 8001c56:	4b0e      	ldr	r3, [pc, #56]	; (8001c90 <GPIO_VidPin_Mode_Output+0xa40>)
 8001c58:	689b      	ldr	r3, [r3, #8]
 8001c5a:	f043 0302 	orr.w	r3, r3, #2
 8001c5e:	6093      	str	r3, [r2, #8]
				break;
 8001c60:	e3f6      	b.n	8002450 <GPIO_VidPin_Mode_Output+0x1200>
						else if(Copy_u8Speed==High_Speed){/*Enable Compensation Cell*/Set_Bit(GPIO_B->OSPEEDR,GPIO_OSPEEDR_0_HI);}
 8001c62:	793b      	ldrb	r3, [r7, #4]
 8001c64:	2b07      	cmp	r3, #7
 8001c66:	f040 83f3 	bne.w	8002450 <GPIO_VidPin_Mode_Output+0x1200>
 8001c6a:	4a09      	ldr	r2, [pc, #36]	; (8001c90 <GPIO_VidPin_Mode_Output+0xa40>)
 8001c6c:	4b08      	ldr	r3, [pc, #32]	; (8001c90 <GPIO_VidPin_Mode_Output+0xa40>)
 8001c6e:	689b      	ldr	r3, [r3, #8]
 8001c70:	f043 0303 	orr.w	r3, r3, #3
 8001c74:	6093      	str	r3, [r2, #8]
				break;
 8001c76:	e3eb      	b.n	8002450 <GPIO_VidPin_Mode_Output+0x1200>
				case (Pin_1):
						/*Select Output Type*/
						if(Copy_u8Type==Push_Pull){Clear_Bit(GPIO_B->OTYPER,GPIO_OTYPER_1);}
 8001c78:	797b      	ldrb	r3, [r7, #5]
 8001c7a:	2b08      	cmp	r3, #8
 8001c7c:	d10a      	bne.n	8001c94 <GPIO_VidPin_Mode_Output+0xa44>
 8001c7e:	4a04      	ldr	r2, [pc, #16]	; (8001c90 <GPIO_VidPin_Mode_Output+0xa40>)
 8001c80:	4b03      	ldr	r3, [pc, #12]	; (8001c90 <GPIO_VidPin_Mode_Output+0xa40>)
 8001c82:	685b      	ldr	r3, [r3, #4]
 8001c84:	f023 0302 	bic.w	r3, r3, #2
 8001c88:	6053      	str	r3, [r2, #4]
 8001c8a:	e012      	b.n	8001cb2 <GPIO_VidPin_Mode_Output+0xa62>
 8001c8c:	40020000 	.word	0x40020000
 8001c90:	40020400 	.word	0x40020400
						else if (Copy_u8Type==Open_Drain)
 8001c94:	797b      	ldrb	r3, [r7, #5]
 8001c96:	2b09      	cmp	r3, #9
 8001c98:	d10b      	bne.n	8001cb2 <GPIO_VidPin_Mode_Output+0xa62>
						{
							Set_Bit(GPIO_B->OTYPER,GPIO_OTYPER_1);
 8001c9a:	4a94      	ldr	r2, [pc, #592]	; (8001eec <GPIO_VidPin_Mode_Output+0xc9c>)
 8001c9c:	4b93      	ldr	r3, [pc, #588]	; (8001eec <GPIO_VidPin_Mode_Output+0xc9c>)
 8001c9e:	685b      	ldr	r3, [r3, #4]
 8001ca0:	f043 0302 	orr.w	r3, r3, #2
 8001ca4:	6053      	str	r3, [r2, #4]
						#if Open_Drain_Pull == Pull_Up
							Set_Bit(GPIO_B->PUPDR,GPIO_PUPDR_1_Pull_Up);
 8001ca6:	4a91      	ldr	r2, [pc, #580]	; (8001eec <GPIO_VidPin_Mode_Output+0xc9c>)
 8001ca8:	4b90      	ldr	r3, [pc, #576]	; (8001eec <GPIO_VidPin_Mode_Output+0xc9c>)
 8001caa:	68db      	ldr	r3, [r3, #12]
 8001cac:	f043 0304 	orr.w	r3, r3, #4
 8001cb0:	60d3      	str	r3, [r2, #12]
						#elif Open_Drain_Pull == Pull_Down
							Set_Bit(GPIO_B->PUPDR,GPIO_PUPDR_1_Pull_Down);
						#endif
						}
						/*Select Operating Speed*/
						if(Copy_u8Speed==Low_Speed){Clear_Bit(GPIO_B->OSPEEDR,GPIO_OSPEEDR_1_HI);}
 8001cb2:	793b      	ldrb	r3, [r7, #4]
 8001cb4:	2b04      	cmp	r3, #4
 8001cb6:	d106      	bne.n	8001cc6 <GPIO_VidPin_Mode_Output+0xa76>
 8001cb8:	4a8c      	ldr	r2, [pc, #560]	; (8001eec <GPIO_VidPin_Mode_Output+0xc9c>)
 8001cba:	4b8c      	ldr	r3, [pc, #560]	; (8001eec <GPIO_VidPin_Mode_Output+0xc9c>)
 8001cbc:	689b      	ldr	r3, [r3, #8]
 8001cbe:	f023 030c 	bic.w	r3, r3, #12
 8001cc2:	6093      	str	r3, [r2, #8]
						else if(Copy_u8Speed==Medium_Speed){Set_Bit(GPIO_B->OSPEEDR,GPIO_OSPEEDR_1_Medium);}
						else if(Copy_u8Speed==Fast_Speed){/*Enable Compensation Cell*/Set_Bit(GPIO_B->OSPEEDR,GPIO_OSPEEDR_1_Fast);}
						else if(Copy_u8Speed==High_Speed){/*Enable Compensation Cell*/Set_Bit(GPIO_B->OSPEEDR,GPIO_OSPEEDR_1_HI);}
				break;
 8001cc4:	e3c7      	b.n	8002456 <GPIO_VidPin_Mode_Output+0x1206>
						else if(Copy_u8Speed==Medium_Speed){Set_Bit(GPIO_B->OSPEEDR,GPIO_OSPEEDR_1_Medium);}
 8001cc6:	793b      	ldrb	r3, [r7, #4]
 8001cc8:	2b05      	cmp	r3, #5
 8001cca:	d106      	bne.n	8001cda <GPIO_VidPin_Mode_Output+0xa8a>
 8001ccc:	4a87      	ldr	r2, [pc, #540]	; (8001eec <GPIO_VidPin_Mode_Output+0xc9c>)
 8001cce:	4b87      	ldr	r3, [pc, #540]	; (8001eec <GPIO_VidPin_Mode_Output+0xc9c>)
 8001cd0:	689b      	ldr	r3, [r3, #8]
 8001cd2:	f043 0304 	orr.w	r3, r3, #4
 8001cd6:	6093      	str	r3, [r2, #8]
				break;
 8001cd8:	e3bd      	b.n	8002456 <GPIO_VidPin_Mode_Output+0x1206>
						else if(Copy_u8Speed==Fast_Speed){/*Enable Compensation Cell*/Set_Bit(GPIO_B->OSPEEDR,GPIO_OSPEEDR_1_Fast);}
 8001cda:	793b      	ldrb	r3, [r7, #4]
 8001cdc:	2b06      	cmp	r3, #6
 8001cde:	d106      	bne.n	8001cee <GPIO_VidPin_Mode_Output+0xa9e>
 8001ce0:	4a82      	ldr	r2, [pc, #520]	; (8001eec <GPIO_VidPin_Mode_Output+0xc9c>)
 8001ce2:	4b82      	ldr	r3, [pc, #520]	; (8001eec <GPIO_VidPin_Mode_Output+0xc9c>)
 8001ce4:	689b      	ldr	r3, [r3, #8]
 8001ce6:	f043 0308 	orr.w	r3, r3, #8
 8001cea:	6093      	str	r3, [r2, #8]
				break;
 8001cec:	e3b3      	b.n	8002456 <GPIO_VidPin_Mode_Output+0x1206>
						else if(Copy_u8Speed==High_Speed){/*Enable Compensation Cell*/Set_Bit(GPIO_B->OSPEEDR,GPIO_OSPEEDR_1_HI);}
 8001cee:	793b      	ldrb	r3, [r7, #4]
 8001cf0:	2b07      	cmp	r3, #7
 8001cf2:	f040 83b0 	bne.w	8002456 <GPIO_VidPin_Mode_Output+0x1206>
 8001cf6:	4a7d      	ldr	r2, [pc, #500]	; (8001eec <GPIO_VidPin_Mode_Output+0xc9c>)
 8001cf8:	4b7c      	ldr	r3, [pc, #496]	; (8001eec <GPIO_VidPin_Mode_Output+0xc9c>)
 8001cfa:	689b      	ldr	r3, [r3, #8]
 8001cfc:	f043 030c 	orr.w	r3, r3, #12
 8001d00:	6093      	str	r3, [r2, #8]
				break;
 8001d02:	e3a8      	b.n	8002456 <GPIO_VidPin_Mode_Output+0x1206>
				case (Pin_2):
						/*Select Output Type*/
						if(Copy_u8Type==Push_Pull){Clear_Bit(GPIO_B->OTYPER,GPIO_OTYPER_2);}
 8001d04:	797b      	ldrb	r3, [r7, #5]
 8001d06:	2b08      	cmp	r3, #8
 8001d08:	d106      	bne.n	8001d18 <GPIO_VidPin_Mode_Output+0xac8>
 8001d0a:	4a78      	ldr	r2, [pc, #480]	; (8001eec <GPIO_VidPin_Mode_Output+0xc9c>)
 8001d0c:	4b77      	ldr	r3, [pc, #476]	; (8001eec <GPIO_VidPin_Mode_Output+0xc9c>)
 8001d0e:	685b      	ldr	r3, [r3, #4]
 8001d10:	f023 0304 	bic.w	r3, r3, #4
 8001d14:	6053      	str	r3, [r2, #4]
 8001d16:	e00e      	b.n	8001d36 <GPIO_VidPin_Mode_Output+0xae6>
						else if (Copy_u8Type==Open_Drain)
 8001d18:	797b      	ldrb	r3, [r7, #5]
 8001d1a:	2b09      	cmp	r3, #9
 8001d1c:	d10b      	bne.n	8001d36 <GPIO_VidPin_Mode_Output+0xae6>
						{
							Set_Bit(GPIO_B->OTYPER,GPIO_OTYPER_2);
 8001d1e:	4a73      	ldr	r2, [pc, #460]	; (8001eec <GPIO_VidPin_Mode_Output+0xc9c>)
 8001d20:	4b72      	ldr	r3, [pc, #456]	; (8001eec <GPIO_VidPin_Mode_Output+0xc9c>)
 8001d22:	685b      	ldr	r3, [r3, #4]
 8001d24:	f043 0304 	orr.w	r3, r3, #4
 8001d28:	6053      	str	r3, [r2, #4]
						#if Open_Drain_Pull == Pull_Up
							Set_Bit(GPIO_B->PUPDR,GPIO_PUPDR_2_Pull_Up);
 8001d2a:	4a70      	ldr	r2, [pc, #448]	; (8001eec <GPIO_VidPin_Mode_Output+0xc9c>)
 8001d2c:	4b6f      	ldr	r3, [pc, #444]	; (8001eec <GPIO_VidPin_Mode_Output+0xc9c>)
 8001d2e:	68db      	ldr	r3, [r3, #12]
 8001d30:	f043 0310 	orr.w	r3, r3, #16
 8001d34:	60d3      	str	r3, [r2, #12]
						#elif Open_Drain_Pull == Pull_Down
							Set_Bit(GPIO_B->PUPDR,GPIO_PUPDR_2_Pull_Down);
						#endif
						}
						/*Select Operating Speed*/
						if(Copy_u8Speed==Low_Speed){Clear_Bit(GPIO_B->OSPEEDR,GPIO_OSPEEDR_2_HI);}
 8001d36:	793b      	ldrb	r3, [r7, #4]
 8001d38:	2b04      	cmp	r3, #4
 8001d3a:	d106      	bne.n	8001d4a <GPIO_VidPin_Mode_Output+0xafa>
 8001d3c:	4a6b      	ldr	r2, [pc, #428]	; (8001eec <GPIO_VidPin_Mode_Output+0xc9c>)
 8001d3e:	4b6b      	ldr	r3, [pc, #428]	; (8001eec <GPIO_VidPin_Mode_Output+0xc9c>)
 8001d40:	689b      	ldr	r3, [r3, #8]
 8001d42:	f023 0330 	bic.w	r3, r3, #48	; 0x30
 8001d46:	6093      	str	r3, [r2, #8]
						else if(Copy_u8Speed==Medium_Speed){Set_Bit(GPIO_B->OSPEEDR,GPIO_OSPEEDR_2_Medium);}
						else if(Copy_u8Speed==Fast_Speed){/*Enable Compensation Cell*/Set_Bit(GPIO_B->OSPEEDR,GPIO_OSPEEDR_2_Fast);}
						else if(Copy_u8Speed==High_Speed){/*Enable Compensation Cell*/Set_Bit(GPIO_B->OSPEEDR,GPIO_OSPEEDR_2_HI);}
				break;
 8001d48:	e388      	b.n	800245c <GPIO_VidPin_Mode_Output+0x120c>
						else if(Copy_u8Speed==Medium_Speed){Set_Bit(GPIO_B->OSPEEDR,GPIO_OSPEEDR_2_Medium);}
 8001d4a:	793b      	ldrb	r3, [r7, #4]
 8001d4c:	2b05      	cmp	r3, #5
 8001d4e:	d106      	bne.n	8001d5e <GPIO_VidPin_Mode_Output+0xb0e>
 8001d50:	4a66      	ldr	r2, [pc, #408]	; (8001eec <GPIO_VidPin_Mode_Output+0xc9c>)
 8001d52:	4b66      	ldr	r3, [pc, #408]	; (8001eec <GPIO_VidPin_Mode_Output+0xc9c>)
 8001d54:	689b      	ldr	r3, [r3, #8]
 8001d56:	f043 0310 	orr.w	r3, r3, #16
 8001d5a:	6093      	str	r3, [r2, #8]
				break;
 8001d5c:	e37e      	b.n	800245c <GPIO_VidPin_Mode_Output+0x120c>
						else if(Copy_u8Speed==Fast_Speed){/*Enable Compensation Cell*/Set_Bit(GPIO_B->OSPEEDR,GPIO_OSPEEDR_2_Fast);}
 8001d5e:	793b      	ldrb	r3, [r7, #4]
 8001d60:	2b06      	cmp	r3, #6
 8001d62:	d106      	bne.n	8001d72 <GPIO_VidPin_Mode_Output+0xb22>
 8001d64:	4a61      	ldr	r2, [pc, #388]	; (8001eec <GPIO_VidPin_Mode_Output+0xc9c>)
 8001d66:	4b61      	ldr	r3, [pc, #388]	; (8001eec <GPIO_VidPin_Mode_Output+0xc9c>)
 8001d68:	689b      	ldr	r3, [r3, #8]
 8001d6a:	f043 0320 	orr.w	r3, r3, #32
 8001d6e:	6093      	str	r3, [r2, #8]
				break;
 8001d70:	e374      	b.n	800245c <GPIO_VidPin_Mode_Output+0x120c>
						else if(Copy_u8Speed==High_Speed){/*Enable Compensation Cell*/Set_Bit(GPIO_B->OSPEEDR,GPIO_OSPEEDR_2_HI);}
 8001d72:	793b      	ldrb	r3, [r7, #4]
 8001d74:	2b07      	cmp	r3, #7
 8001d76:	f040 8371 	bne.w	800245c <GPIO_VidPin_Mode_Output+0x120c>
 8001d7a:	4a5c      	ldr	r2, [pc, #368]	; (8001eec <GPIO_VidPin_Mode_Output+0xc9c>)
 8001d7c:	4b5b      	ldr	r3, [pc, #364]	; (8001eec <GPIO_VidPin_Mode_Output+0xc9c>)
 8001d7e:	689b      	ldr	r3, [r3, #8]
 8001d80:	f043 0330 	orr.w	r3, r3, #48	; 0x30
 8001d84:	6093      	str	r3, [r2, #8]
				break;
 8001d86:	e369      	b.n	800245c <GPIO_VidPin_Mode_Output+0x120c>
				case (Pin_3):
						/*Select Output Type*/
						if(Copy_u8Type==Push_Pull){Clear_Bit(GPIO_B->OTYPER,GPIO_OTYPER_3);}
 8001d88:	797b      	ldrb	r3, [r7, #5]
 8001d8a:	2b08      	cmp	r3, #8
 8001d8c:	d106      	bne.n	8001d9c <GPIO_VidPin_Mode_Output+0xb4c>
 8001d8e:	4a57      	ldr	r2, [pc, #348]	; (8001eec <GPIO_VidPin_Mode_Output+0xc9c>)
 8001d90:	4b56      	ldr	r3, [pc, #344]	; (8001eec <GPIO_VidPin_Mode_Output+0xc9c>)
 8001d92:	685b      	ldr	r3, [r3, #4]
 8001d94:	f023 0308 	bic.w	r3, r3, #8
 8001d98:	6053      	str	r3, [r2, #4]
 8001d9a:	e00e      	b.n	8001dba <GPIO_VidPin_Mode_Output+0xb6a>
						else if (Copy_u8Type==Open_Drain)
 8001d9c:	797b      	ldrb	r3, [r7, #5]
 8001d9e:	2b09      	cmp	r3, #9
 8001da0:	d10b      	bne.n	8001dba <GPIO_VidPin_Mode_Output+0xb6a>
						{
							Set_Bit(GPIO_B->OTYPER,GPIO_OTYPER_3);
 8001da2:	4a52      	ldr	r2, [pc, #328]	; (8001eec <GPIO_VidPin_Mode_Output+0xc9c>)
 8001da4:	4b51      	ldr	r3, [pc, #324]	; (8001eec <GPIO_VidPin_Mode_Output+0xc9c>)
 8001da6:	685b      	ldr	r3, [r3, #4]
 8001da8:	f043 0308 	orr.w	r3, r3, #8
 8001dac:	6053      	str	r3, [r2, #4]
						#if Open_Drain_Pull == Pull_Up
							Set_Bit(GPIO_B->PUPDR,GPIO_PUPDR_3_Pull_Up);
 8001dae:	4a4f      	ldr	r2, [pc, #316]	; (8001eec <GPIO_VidPin_Mode_Output+0xc9c>)
 8001db0:	4b4e      	ldr	r3, [pc, #312]	; (8001eec <GPIO_VidPin_Mode_Output+0xc9c>)
 8001db2:	68db      	ldr	r3, [r3, #12]
 8001db4:	f043 0340 	orr.w	r3, r3, #64	; 0x40
 8001db8:	60d3      	str	r3, [r2, #12]
						#elif Open_Drain_Pull == Pull_Down
							Set_Bit(GPIO_B->PUPDR,GPIO_PUPDR_3_Pull_Down);
						#endif
						}
						/*Select Operating Speed*/
						if(Copy_u8Speed==Low_Speed){Clear_Bit(GPIO_B->OSPEEDR,GPIO_OSPEEDR_3_HI);}
 8001dba:	793b      	ldrb	r3, [r7, #4]
 8001dbc:	2b04      	cmp	r3, #4
 8001dbe:	d106      	bne.n	8001dce <GPIO_VidPin_Mode_Output+0xb7e>
 8001dc0:	4a4a      	ldr	r2, [pc, #296]	; (8001eec <GPIO_VidPin_Mode_Output+0xc9c>)
 8001dc2:	4b4a      	ldr	r3, [pc, #296]	; (8001eec <GPIO_VidPin_Mode_Output+0xc9c>)
 8001dc4:	689b      	ldr	r3, [r3, #8]
 8001dc6:	f023 03c0 	bic.w	r3, r3, #192	; 0xc0
 8001dca:	6093      	str	r3, [r2, #8]
						else if(Copy_u8Speed==Medium_Speed){Set_Bit(GPIO_B->OSPEEDR,GPIO_OSPEEDR_3_Medium);}
						else if(Copy_u8Speed==Fast_Speed){/*Enable Compensation Cell*/Set_Bit(GPIO_B->OSPEEDR,GPIO_OSPEEDR_3_Fast);}
						else if(Copy_u8Speed==High_Speed){/*Enable Compensation Cell*/Set_Bit(GPIO_B->OSPEEDR,GPIO_OSPEEDR_3_HI);}
				break;
 8001dcc:	e349      	b.n	8002462 <GPIO_VidPin_Mode_Output+0x1212>
						else if(Copy_u8Speed==Medium_Speed){Set_Bit(GPIO_B->OSPEEDR,GPIO_OSPEEDR_3_Medium);}
 8001dce:	793b      	ldrb	r3, [r7, #4]
 8001dd0:	2b05      	cmp	r3, #5
 8001dd2:	d106      	bne.n	8001de2 <GPIO_VidPin_Mode_Output+0xb92>
 8001dd4:	4a45      	ldr	r2, [pc, #276]	; (8001eec <GPIO_VidPin_Mode_Output+0xc9c>)
 8001dd6:	4b45      	ldr	r3, [pc, #276]	; (8001eec <GPIO_VidPin_Mode_Output+0xc9c>)
 8001dd8:	689b      	ldr	r3, [r3, #8]
 8001dda:	f043 0340 	orr.w	r3, r3, #64	; 0x40
 8001dde:	6093      	str	r3, [r2, #8]
				break;
 8001de0:	e33f      	b.n	8002462 <GPIO_VidPin_Mode_Output+0x1212>
						else if(Copy_u8Speed==Fast_Speed){/*Enable Compensation Cell*/Set_Bit(GPIO_B->OSPEEDR,GPIO_OSPEEDR_3_Fast);}
 8001de2:	793b      	ldrb	r3, [r7, #4]
 8001de4:	2b06      	cmp	r3, #6
 8001de6:	d106      	bne.n	8001df6 <GPIO_VidPin_Mode_Output+0xba6>
 8001de8:	4a40      	ldr	r2, [pc, #256]	; (8001eec <GPIO_VidPin_Mode_Output+0xc9c>)
 8001dea:	4b40      	ldr	r3, [pc, #256]	; (8001eec <GPIO_VidPin_Mode_Output+0xc9c>)
 8001dec:	689b      	ldr	r3, [r3, #8]
 8001dee:	f043 0380 	orr.w	r3, r3, #128	; 0x80
 8001df2:	6093      	str	r3, [r2, #8]
				break;
 8001df4:	e335      	b.n	8002462 <GPIO_VidPin_Mode_Output+0x1212>
						else if(Copy_u8Speed==High_Speed){/*Enable Compensation Cell*/Set_Bit(GPIO_B->OSPEEDR,GPIO_OSPEEDR_3_HI);}
 8001df6:	793b      	ldrb	r3, [r7, #4]
 8001df8:	2b07      	cmp	r3, #7
 8001dfa:	f040 8332 	bne.w	8002462 <GPIO_VidPin_Mode_Output+0x1212>
 8001dfe:	4a3b      	ldr	r2, [pc, #236]	; (8001eec <GPIO_VidPin_Mode_Output+0xc9c>)
 8001e00:	4b3a      	ldr	r3, [pc, #232]	; (8001eec <GPIO_VidPin_Mode_Output+0xc9c>)
 8001e02:	689b      	ldr	r3, [r3, #8]
 8001e04:	f043 03c0 	orr.w	r3, r3, #192	; 0xc0
 8001e08:	6093      	str	r3, [r2, #8]
				break;
 8001e0a:	e32a      	b.n	8002462 <GPIO_VidPin_Mode_Output+0x1212>
				case (Pin_4):
						/*Select Output Type*/
						if(Copy_u8Type==Push_Pull){Clear_Bit(GPIO_B->OTYPER,GPIO_OTYPER_4);}
 8001e0c:	797b      	ldrb	r3, [r7, #5]
 8001e0e:	2b08      	cmp	r3, #8
 8001e10:	d106      	bne.n	8001e20 <GPIO_VidPin_Mode_Output+0xbd0>
 8001e12:	4a36      	ldr	r2, [pc, #216]	; (8001eec <GPIO_VidPin_Mode_Output+0xc9c>)
 8001e14:	4b35      	ldr	r3, [pc, #212]	; (8001eec <GPIO_VidPin_Mode_Output+0xc9c>)
 8001e16:	685b      	ldr	r3, [r3, #4]
 8001e18:	f023 0310 	bic.w	r3, r3, #16
 8001e1c:	6053      	str	r3, [r2, #4]
 8001e1e:	e00e      	b.n	8001e3e <GPIO_VidPin_Mode_Output+0xbee>
						else if (Copy_u8Type==Open_Drain)
 8001e20:	797b      	ldrb	r3, [r7, #5]
 8001e22:	2b09      	cmp	r3, #9
 8001e24:	d10b      	bne.n	8001e3e <GPIO_VidPin_Mode_Output+0xbee>
						{
							Set_Bit(GPIO_B->OTYPER,GPIO_OTYPER_4);
 8001e26:	4a31      	ldr	r2, [pc, #196]	; (8001eec <GPIO_VidPin_Mode_Output+0xc9c>)
 8001e28:	4b30      	ldr	r3, [pc, #192]	; (8001eec <GPIO_VidPin_Mode_Output+0xc9c>)
 8001e2a:	685b      	ldr	r3, [r3, #4]
 8001e2c:	f043 0310 	orr.w	r3, r3, #16
 8001e30:	6053      	str	r3, [r2, #4]
						#if Open_Drain_Pull == Pull_Up
							Set_Bit(GPIO_B->PUPDR,GPIO_PUPDR_4_Pull_Up);
 8001e32:	4a2e      	ldr	r2, [pc, #184]	; (8001eec <GPIO_VidPin_Mode_Output+0xc9c>)
 8001e34:	4b2d      	ldr	r3, [pc, #180]	; (8001eec <GPIO_VidPin_Mode_Output+0xc9c>)
 8001e36:	68db      	ldr	r3, [r3, #12]
 8001e38:	f443 7380 	orr.w	r3, r3, #256	; 0x100
 8001e3c:	60d3      	str	r3, [r2, #12]
						#elif Open_Drain_Pull == Pull_Down
							Set_Bit(GPIO_B->PUPDR,GPIO_PUPDR_4_Pull_Down);
						#endif
						}
						/*Select Operating Speed*/
						if(Copy_u8Speed==Low_Speed){Clear_Bit(GPIO_B->OSPEEDR,GPIO_OSPEEDR_4_HI);}
 8001e3e:	793b      	ldrb	r3, [r7, #4]
 8001e40:	2b04      	cmp	r3, #4
 8001e42:	d106      	bne.n	8001e52 <GPIO_VidPin_Mode_Output+0xc02>
 8001e44:	4a29      	ldr	r2, [pc, #164]	; (8001eec <GPIO_VidPin_Mode_Output+0xc9c>)
 8001e46:	4b29      	ldr	r3, [pc, #164]	; (8001eec <GPIO_VidPin_Mode_Output+0xc9c>)
 8001e48:	689b      	ldr	r3, [r3, #8]
 8001e4a:	f423 7340 	bic.w	r3, r3, #768	; 0x300
 8001e4e:	6093      	str	r3, [r2, #8]
						else if(Copy_u8Speed==Medium_Speed){Set_Bit(GPIO_B->OSPEEDR,GPIO_OSPEEDR_4_Medium);}
						else if(Copy_u8Speed==Fast_Speed){/*Enable Compensation Cell*/Set_Bit(GPIO_B->OSPEEDR,GPIO_OSPEEDR_4_Fast);}
						else if(Copy_u8Speed==High_Speed){/*Enable Compensation Cell*/Set_Bit(GPIO_B->OSPEEDR,GPIO_OSPEEDR_4_HI);}
				break;
 8001e50:	e30a      	b.n	8002468 <GPIO_VidPin_Mode_Output+0x1218>
						else if(Copy_u8Speed==Medium_Speed){Set_Bit(GPIO_B->OSPEEDR,GPIO_OSPEEDR_4_Medium);}
 8001e52:	793b      	ldrb	r3, [r7, #4]
 8001e54:	2b05      	cmp	r3, #5
 8001e56:	d106      	bne.n	8001e66 <GPIO_VidPin_Mode_Output+0xc16>
 8001e58:	4a24      	ldr	r2, [pc, #144]	; (8001eec <GPIO_VidPin_Mode_Output+0xc9c>)
 8001e5a:	4b24      	ldr	r3, [pc, #144]	; (8001eec <GPIO_VidPin_Mode_Output+0xc9c>)
 8001e5c:	689b      	ldr	r3, [r3, #8]
 8001e5e:	f443 7380 	orr.w	r3, r3, #256	; 0x100
 8001e62:	6093      	str	r3, [r2, #8]
				break;
 8001e64:	e300      	b.n	8002468 <GPIO_VidPin_Mode_Output+0x1218>
						else if(Copy_u8Speed==Fast_Speed){/*Enable Compensation Cell*/Set_Bit(GPIO_B->OSPEEDR,GPIO_OSPEEDR_4_Fast);}
 8001e66:	793b      	ldrb	r3, [r7, #4]
 8001e68:	2b06      	cmp	r3, #6
 8001e6a:	d106      	bne.n	8001e7a <GPIO_VidPin_Mode_Output+0xc2a>
 8001e6c:	4a1f      	ldr	r2, [pc, #124]	; (8001eec <GPIO_VidPin_Mode_Output+0xc9c>)
 8001e6e:	4b1f      	ldr	r3, [pc, #124]	; (8001eec <GPIO_VidPin_Mode_Output+0xc9c>)
 8001e70:	689b      	ldr	r3, [r3, #8]
 8001e72:	f443 7300 	orr.w	r3, r3, #512	; 0x200
 8001e76:	6093      	str	r3, [r2, #8]
				break;
 8001e78:	e2f6      	b.n	8002468 <GPIO_VidPin_Mode_Output+0x1218>
						else if(Copy_u8Speed==High_Speed){/*Enable Compensation Cell*/Set_Bit(GPIO_B->OSPEEDR,GPIO_OSPEEDR_4_HI);}
 8001e7a:	793b      	ldrb	r3, [r7, #4]
 8001e7c:	2b07      	cmp	r3, #7
 8001e7e:	f040 82f3 	bne.w	8002468 <GPIO_VidPin_Mode_Output+0x1218>
 8001e82:	4a1a      	ldr	r2, [pc, #104]	; (8001eec <GPIO_VidPin_Mode_Output+0xc9c>)
 8001e84:	4b19      	ldr	r3, [pc, #100]	; (8001eec <GPIO_VidPin_Mode_Output+0xc9c>)
 8001e86:	689b      	ldr	r3, [r3, #8]
 8001e88:	f443 7340 	orr.w	r3, r3, #768	; 0x300
 8001e8c:	6093      	str	r3, [r2, #8]
				break;
 8001e8e:	e2eb      	b.n	8002468 <GPIO_VidPin_Mode_Output+0x1218>
				case (Pin_5):
						/*Select Output Type*/
						if(Copy_u8Type==Push_Pull){Clear_Bit(GPIO_B->OTYPER,GPIO_OTYPER_5);}
 8001e90:	797b      	ldrb	r3, [r7, #5]
 8001e92:	2b08      	cmp	r3, #8
 8001e94:	d106      	bne.n	8001ea4 <GPIO_VidPin_Mode_Output+0xc54>
 8001e96:	4a15      	ldr	r2, [pc, #84]	; (8001eec <GPIO_VidPin_Mode_Output+0xc9c>)
 8001e98:	4b14      	ldr	r3, [pc, #80]	; (8001eec <GPIO_VidPin_Mode_Output+0xc9c>)
 8001e9a:	685b      	ldr	r3, [r3, #4]
 8001e9c:	f023 0320 	bic.w	r3, r3, #32
 8001ea0:	6053      	str	r3, [r2, #4]
 8001ea2:	e00e      	b.n	8001ec2 <GPIO_VidPin_Mode_Output+0xc72>
						else if (Copy_u8Type==Open_Drain)
 8001ea4:	797b      	ldrb	r3, [r7, #5]
 8001ea6:	2b09      	cmp	r3, #9
 8001ea8:	d10b      	bne.n	8001ec2 <GPIO_VidPin_Mode_Output+0xc72>
						{
							Set_Bit(GPIO_B->OTYPER,GPIO_OTYPER_5);
 8001eaa:	4a10      	ldr	r2, [pc, #64]	; (8001eec <GPIO_VidPin_Mode_Output+0xc9c>)
 8001eac:	4b0f      	ldr	r3, [pc, #60]	; (8001eec <GPIO_VidPin_Mode_Output+0xc9c>)
 8001eae:	685b      	ldr	r3, [r3, #4]
 8001eb0:	f043 0320 	orr.w	r3, r3, #32
 8001eb4:	6053      	str	r3, [r2, #4]
						#if Open_Drain_Pull == Pull_Up
							Set_Bit(GPIO_B->PUPDR,GPIO_PUPDR_5_Pull_Up);
 8001eb6:	4a0d      	ldr	r2, [pc, #52]	; (8001eec <GPIO_VidPin_Mode_Output+0xc9c>)
 8001eb8:	4b0c      	ldr	r3, [pc, #48]	; (8001eec <GPIO_VidPin_Mode_Output+0xc9c>)
 8001eba:	68db      	ldr	r3, [r3, #12]
 8001ebc:	f443 6380 	orr.w	r3, r3, #1024	; 0x400
 8001ec0:	60d3      	str	r3, [r2, #12]
						#elif Open_Drain_Pull == Pull_Down
							Set_Bit(GPIO_B->PUPDR,GPIO_PUPDR_5_Pull_Down);
						#endif
						}
						/*Select Operating Speed*/
						if(Copy_u8Speed==Low_Speed){Clear_Bit(GPIO_B->OSPEEDR,GPIO_OSPEEDR_5_HI);}
 8001ec2:	793b      	ldrb	r3, [r7, #4]
 8001ec4:	2b04      	cmp	r3, #4
 8001ec6:	d106      	bne.n	8001ed6 <GPIO_VidPin_Mode_Output+0xc86>
 8001ec8:	4a08      	ldr	r2, [pc, #32]	; (8001eec <GPIO_VidPin_Mode_Output+0xc9c>)
 8001eca:	4b08      	ldr	r3, [pc, #32]	; (8001eec <GPIO_VidPin_Mode_Output+0xc9c>)
 8001ecc:	689b      	ldr	r3, [r3, #8]
 8001ece:	f423 6340 	bic.w	r3, r3, #3072	; 0xc00
 8001ed2:	6093      	str	r3, [r2, #8]
						else if(Copy_u8Speed==Medium_Speed){Set_Bit(GPIO_B->OSPEEDR,GPIO_OSPEEDR_5_Medium);}
						else if(Copy_u8Speed==Fast_Speed){/*Enable Compensation Cell*/Set_Bit(GPIO_B->OSPEEDR,GPIO_OSPEEDR_5_Fast);}
						else if(Copy_u8Speed==High_Speed){/*Enable Compensation Cell*/Set_Bit(GPIO_B->OSPEEDR,GPIO_OSPEEDR_5_HI);}
				break;
 8001ed4:	e2cb      	b.n	800246e <GPIO_VidPin_Mode_Output+0x121e>
						else if(Copy_u8Speed==Medium_Speed){Set_Bit(GPIO_B->OSPEEDR,GPIO_OSPEEDR_5_Medium);}
 8001ed6:	793b      	ldrb	r3, [r7, #4]
 8001ed8:	2b05      	cmp	r3, #5
 8001eda:	d109      	bne.n	8001ef0 <GPIO_VidPin_Mode_Output+0xca0>
 8001edc:	4a03      	ldr	r2, [pc, #12]	; (8001eec <GPIO_VidPin_Mode_Output+0xc9c>)
 8001ede:	4b03      	ldr	r3, [pc, #12]	; (8001eec <GPIO_VidPin_Mode_Output+0xc9c>)
 8001ee0:	689b      	ldr	r3, [r3, #8]
 8001ee2:	f443 6380 	orr.w	r3, r3, #1024	; 0x400
 8001ee6:	6093      	str	r3, [r2, #8]
				break;
 8001ee8:	e2c1      	b.n	800246e <GPIO_VidPin_Mode_Output+0x121e>
 8001eea:	bf00      	nop
 8001eec:	40020400 	.word	0x40020400
						else if(Copy_u8Speed==Fast_Speed){/*Enable Compensation Cell*/Set_Bit(GPIO_B->OSPEEDR,GPIO_OSPEEDR_5_Fast);}
 8001ef0:	793b      	ldrb	r3, [r7, #4]
 8001ef2:	2b06      	cmp	r3, #6
 8001ef4:	d106      	bne.n	8001f04 <GPIO_VidPin_Mode_Output+0xcb4>
 8001ef6:	4a92      	ldr	r2, [pc, #584]	; (8002140 <GPIO_VidPin_Mode_Output+0xef0>)
 8001ef8:	4b91      	ldr	r3, [pc, #580]	; (8002140 <GPIO_VidPin_Mode_Output+0xef0>)
 8001efa:	689b      	ldr	r3, [r3, #8]
 8001efc:	f443 6300 	orr.w	r3, r3, #2048	; 0x800
 8001f00:	6093      	str	r3, [r2, #8]
				break;
 8001f02:	e2b4      	b.n	800246e <GPIO_VidPin_Mode_Output+0x121e>
						else if(Copy_u8Speed==High_Speed){/*Enable Compensation Cell*/Set_Bit(GPIO_B->OSPEEDR,GPIO_OSPEEDR_5_HI);}
 8001f04:	793b      	ldrb	r3, [r7, #4]
 8001f06:	2b07      	cmp	r3, #7
 8001f08:	f040 82b1 	bne.w	800246e <GPIO_VidPin_Mode_Output+0x121e>
 8001f0c:	4a8c      	ldr	r2, [pc, #560]	; (8002140 <GPIO_VidPin_Mode_Output+0xef0>)
 8001f0e:	4b8c      	ldr	r3, [pc, #560]	; (8002140 <GPIO_VidPin_Mode_Output+0xef0>)
 8001f10:	689b      	ldr	r3, [r3, #8]
 8001f12:	f443 6340 	orr.w	r3, r3, #3072	; 0xc00
 8001f16:	6093      	str	r3, [r2, #8]
				break;
 8001f18:	e2a9      	b.n	800246e <GPIO_VidPin_Mode_Output+0x121e>
				case (Pin_6):
						/*Select Output Type*/
						if(Copy_u8Type==Push_Pull){Clear_Bit(GPIO_B->OTYPER,GPIO_OTYPER_6);}
 8001f1a:	797b      	ldrb	r3, [r7, #5]
 8001f1c:	2b08      	cmp	r3, #8
 8001f1e:	d106      	bne.n	8001f2e <GPIO_VidPin_Mode_Output+0xcde>
 8001f20:	4a87      	ldr	r2, [pc, #540]	; (8002140 <GPIO_VidPin_Mode_Output+0xef0>)
 8001f22:	4b87      	ldr	r3, [pc, #540]	; (8002140 <GPIO_VidPin_Mode_Output+0xef0>)
 8001f24:	685b      	ldr	r3, [r3, #4]
 8001f26:	f023 0340 	bic.w	r3, r3, #64	; 0x40
 8001f2a:	6053      	str	r3, [r2, #4]
 8001f2c:	e00e      	b.n	8001f4c <GPIO_VidPin_Mode_Output+0xcfc>
						else if (Copy_u8Type==Open_Drain)
 8001f2e:	797b      	ldrb	r3, [r7, #5]
 8001f30:	2b09      	cmp	r3, #9
 8001f32:	d10b      	bne.n	8001f4c <GPIO_VidPin_Mode_Output+0xcfc>
						{
							Set_Bit(GPIO_B->OTYPER,GPIO_OTYPER_6);
 8001f34:	4a82      	ldr	r2, [pc, #520]	; (8002140 <GPIO_VidPin_Mode_Output+0xef0>)
 8001f36:	4b82      	ldr	r3, [pc, #520]	; (8002140 <GPIO_VidPin_Mode_Output+0xef0>)
 8001f38:	685b      	ldr	r3, [r3, #4]
 8001f3a:	f043 0340 	orr.w	r3, r3, #64	; 0x40
 8001f3e:	6053      	str	r3, [r2, #4]
						#if Open_Drain_Pull == Pull_Up
							Set_Bit(GPIO_B->PUPDR,GPIO_PUPDR_6_Pull_Up);
 8001f40:	4a7f      	ldr	r2, [pc, #508]	; (8002140 <GPIO_VidPin_Mode_Output+0xef0>)
 8001f42:	4b7f      	ldr	r3, [pc, #508]	; (8002140 <GPIO_VidPin_Mode_Output+0xef0>)
 8001f44:	68db      	ldr	r3, [r3, #12]
 8001f46:	f443 5380 	orr.w	r3, r3, #4096	; 0x1000
 8001f4a:	60d3      	str	r3, [r2, #12]
						#elif Open_Drain_Pull == Pull_Down
							Set_Bit(GPIO_B->PUPDR,GPIO_PUPDR_6_Pull_Down);
						#endif
						}
						/*Select Operating Speed*/
						if(Copy_u8Speed==Low_Speed){Clear_Bit(GPIO_B->OSPEEDR,GPIO_OSPEEDR_6_HI);}
 8001f4c:	793b      	ldrb	r3, [r7, #4]
 8001f4e:	2b04      	cmp	r3, #4
 8001f50:	d106      	bne.n	8001f60 <GPIO_VidPin_Mode_Output+0xd10>
 8001f52:	4a7b      	ldr	r2, [pc, #492]	; (8002140 <GPIO_VidPin_Mode_Output+0xef0>)
 8001f54:	4b7a      	ldr	r3, [pc, #488]	; (8002140 <GPIO_VidPin_Mode_Output+0xef0>)
 8001f56:	689b      	ldr	r3, [r3, #8]
 8001f58:	f423 5340 	bic.w	r3, r3, #12288	; 0x3000
 8001f5c:	6093      	str	r3, [r2, #8]
						else if(Copy_u8Speed==Medium_Speed){Set_Bit(GPIO_B->OSPEEDR,GPIO_OSPEEDR_6_Medium);}
						else if(Copy_u8Speed==Fast_Speed){/*Enable Compensation Cell*/Set_Bit(GPIO_B->OSPEEDR,GPIO_OSPEEDR_6_Fast);}
						else if(Copy_u8Speed==High_Speed){/*Enable Compensation Cell*/Set_Bit(GPIO_B->OSPEEDR,GPIO_OSPEEDR_6_HI);}
				break;
 8001f5e:	e289      	b.n	8002474 <GPIO_VidPin_Mode_Output+0x1224>
						else if(Copy_u8Speed==Medium_Speed){Set_Bit(GPIO_B->OSPEEDR,GPIO_OSPEEDR_6_Medium);}
 8001f60:	793b      	ldrb	r3, [r7, #4]
 8001f62:	2b05      	cmp	r3, #5
 8001f64:	d106      	bne.n	8001f74 <GPIO_VidPin_Mode_Output+0xd24>
 8001f66:	4a76      	ldr	r2, [pc, #472]	; (8002140 <GPIO_VidPin_Mode_Output+0xef0>)
 8001f68:	4b75      	ldr	r3, [pc, #468]	; (8002140 <GPIO_VidPin_Mode_Output+0xef0>)
 8001f6a:	689b      	ldr	r3, [r3, #8]
 8001f6c:	f443 5380 	orr.w	r3, r3, #4096	; 0x1000
 8001f70:	6093      	str	r3, [r2, #8]
				break;
 8001f72:	e27f      	b.n	8002474 <GPIO_VidPin_Mode_Output+0x1224>
						else if(Copy_u8Speed==Fast_Speed){/*Enable Compensation Cell*/Set_Bit(GPIO_B->OSPEEDR,GPIO_OSPEEDR_6_Fast);}
 8001f74:	793b      	ldrb	r3, [r7, #4]
 8001f76:	2b06      	cmp	r3, #6
 8001f78:	d106      	bne.n	8001f88 <GPIO_VidPin_Mode_Output+0xd38>
 8001f7a:	4a71      	ldr	r2, [pc, #452]	; (8002140 <GPIO_VidPin_Mode_Output+0xef0>)
 8001f7c:	4b70      	ldr	r3, [pc, #448]	; (8002140 <GPIO_VidPin_Mode_Output+0xef0>)
 8001f7e:	689b      	ldr	r3, [r3, #8]
 8001f80:	f443 5300 	orr.w	r3, r3, #8192	; 0x2000
 8001f84:	6093      	str	r3, [r2, #8]
				break;
 8001f86:	e275      	b.n	8002474 <GPIO_VidPin_Mode_Output+0x1224>
						else if(Copy_u8Speed==High_Speed){/*Enable Compensation Cell*/Set_Bit(GPIO_B->OSPEEDR,GPIO_OSPEEDR_6_HI);}
 8001f88:	793b      	ldrb	r3, [r7, #4]
 8001f8a:	2b07      	cmp	r3, #7
 8001f8c:	f040 8272 	bne.w	8002474 <GPIO_VidPin_Mode_Output+0x1224>
 8001f90:	4a6b      	ldr	r2, [pc, #428]	; (8002140 <GPIO_VidPin_Mode_Output+0xef0>)
 8001f92:	4b6b      	ldr	r3, [pc, #428]	; (8002140 <GPIO_VidPin_Mode_Output+0xef0>)
 8001f94:	689b      	ldr	r3, [r3, #8]
 8001f96:	f443 5340 	orr.w	r3, r3, #12288	; 0x3000
 8001f9a:	6093      	str	r3, [r2, #8]
				break;
 8001f9c:	e26a      	b.n	8002474 <GPIO_VidPin_Mode_Output+0x1224>
				case (Pin_7):
						/*Select Output Type*/
						if(Copy_u8Type==Push_Pull){Clear_Bit(GPIO_B->OTYPER,GPIO_OTYPER_7);}
 8001f9e:	797b      	ldrb	r3, [r7, #5]
 8001fa0:	2b08      	cmp	r3, #8
 8001fa2:	d106      	bne.n	8001fb2 <GPIO_VidPin_Mode_Output+0xd62>
 8001fa4:	4a66      	ldr	r2, [pc, #408]	; (8002140 <GPIO_VidPin_Mode_Output+0xef0>)
 8001fa6:	4b66      	ldr	r3, [pc, #408]	; (8002140 <GPIO_VidPin_Mode_Output+0xef0>)
 8001fa8:	685b      	ldr	r3, [r3, #4]
 8001faa:	f023 0380 	bic.w	r3, r3, #128	; 0x80
 8001fae:	6053      	str	r3, [r2, #4]
 8001fb0:	e00e      	b.n	8001fd0 <GPIO_VidPin_Mode_Output+0xd80>
						else if (Copy_u8Type==Open_Drain)
 8001fb2:	797b      	ldrb	r3, [r7, #5]
 8001fb4:	2b09      	cmp	r3, #9
 8001fb6:	d10b      	bne.n	8001fd0 <GPIO_VidPin_Mode_Output+0xd80>
						{
							Set_Bit(GPIO_B->OTYPER,GPIO_OTYPER_7);
 8001fb8:	4a61      	ldr	r2, [pc, #388]	; (8002140 <GPIO_VidPin_Mode_Output+0xef0>)
 8001fba:	4b61      	ldr	r3, [pc, #388]	; (8002140 <GPIO_VidPin_Mode_Output+0xef0>)
 8001fbc:	685b      	ldr	r3, [r3, #4]
 8001fbe:	f043 0380 	orr.w	r3, r3, #128	; 0x80
 8001fc2:	6053      	str	r3, [r2, #4]
						#if Open_Drain_Pull == Pull_Up
							Set_Bit(GPIO_B->PUPDR,GPIO_PUPDR_7_Pull_Up);
 8001fc4:	4a5e      	ldr	r2, [pc, #376]	; (8002140 <GPIO_VidPin_Mode_Output+0xef0>)
 8001fc6:	4b5e      	ldr	r3, [pc, #376]	; (8002140 <GPIO_VidPin_Mode_Output+0xef0>)
 8001fc8:	68db      	ldr	r3, [r3, #12]
 8001fca:	f443 4380 	orr.w	r3, r3, #16384	; 0x4000
 8001fce:	60d3      	str	r3, [r2, #12]
						#elif Open_Drain_Pull == Pull_Down
							Set_Bit(GPIO_B->PUPDR,GPIO_PUPDR_7_Pull_Down);
						#endif
						}
						/*Select Operating Speed*/
						if(Copy_u8Speed==Low_Speed){Clear_Bit(GPIO_B->OSPEEDR,GPIO_OSPEEDR_7_HI);}
 8001fd0:	793b      	ldrb	r3, [r7, #4]
 8001fd2:	2b04      	cmp	r3, #4
 8001fd4:	d106      	bne.n	8001fe4 <GPIO_VidPin_Mode_Output+0xd94>
 8001fd6:	4a5a      	ldr	r2, [pc, #360]	; (8002140 <GPIO_VidPin_Mode_Output+0xef0>)
 8001fd8:	4b59      	ldr	r3, [pc, #356]	; (8002140 <GPIO_VidPin_Mode_Output+0xef0>)
 8001fda:	689b      	ldr	r3, [r3, #8]
 8001fdc:	f423 4340 	bic.w	r3, r3, #49152	; 0xc000
 8001fe0:	6093      	str	r3, [r2, #8]
						else if(Copy_u8Speed==Medium_Speed){Set_Bit(GPIO_B->OSPEEDR,GPIO_OSPEEDR_7_Medium);}
						else if(Copy_u8Speed==Fast_Speed){/*Enable Compensation Cell*/Set_Bit(GPIO_B->OSPEEDR,GPIO_OSPEEDR_7_Fast);}
						else if(Copy_u8Speed==High_Speed){/*Enable Compensation Cell*/Set_Bit(GPIO_B->OSPEEDR,GPIO_OSPEEDR_7_HI);}
				break;
 8001fe2:	e24a      	b.n	800247a <GPIO_VidPin_Mode_Output+0x122a>
						else if(Copy_u8Speed==Medium_Speed){Set_Bit(GPIO_B->OSPEEDR,GPIO_OSPEEDR_7_Medium);}
 8001fe4:	793b      	ldrb	r3, [r7, #4]
 8001fe6:	2b05      	cmp	r3, #5
 8001fe8:	d106      	bne.n	8001ff8 <GPIO_VidPin_Mode_Output+0xda8>
 8001fea:	4a55      	ldr	r2, [pc, #340]	; (8002140 <GPIO_VidPin_Mode_Output+0xef0>)
 8001fec:	4b54      	ldr	r3, [pc, #336]	; (8002140 <GPIO_VidPin_Mode_Output+0xef0>)
 8001fee:	689b      	ldr	r3, [r3, #8]
 8001ff0:	f443 4380 	orr.w	r3, r3, #16384	; 0x4000
 8001ff4:	6093      	str	r3, [r2, #8]
				break;
 8001ff6:	e240      	b.n	800247a <GPIO_VidPin_Mode_Output+0x122a>
						else if(Copy_u8Speed==Fast_Speed){/*Enable Compensation Cell*/Set_Bit(GPIO_B->OSPEEDR,GPIO_OSPEEDR_7_Fast);}
 8001ff8:	793b      	ldrb	r3, [r7, #4]
 8001ffa:	2b06      	cmp	r3, #6
 8001ffc:	d106      	bne.n	800200c <GPIO_VidPin_Mode_Output+0xdbc>
 8001ffe:	4a50      	ldr	r2, [pc, #320]	; (8002140 <GPIO_VidPin_Mode_Output+0xef0>)
 8002000:	4b4f      	ldr	r3, [pc, #316]	; (8002140 <GPIO_VidPin_Mode_Output+0xef0>)
 8002002:	689b      	ldr	r3, [r3, #8]
 8002004:	f443 4300 	orr.w	r3, r3, #32768	; 0x8000
 8002008:	6093      	str	r3, [r2, #8]
				break;
 800200a:	e236      	b.n	800247a <GPIO_VidPin_Mode_Output+0x122a>
						else if(Copy_u8Speed==High_Speed){/*Enable Compensation Cell*/Set_Bit(GPIO_B->OSPEEDR,GPIO_OSPEEDR_7_HI);}
 800200c:	793b      	ldrb	r3, [r7, #4]
 800200e:	2b07      	cmp	r3, #7
 8002010:	f040 8233 	bne.w	800247a <GPIO_VidPin_Mode_Output+0x122a>
 8002014:	4a4a      	ldr	r2, [pc, #296]	; (8002140 <GPIO_VidPin_Mode_Output+0xef0>)
 8002016:	4b4a      	ldr	r3, [pc, #296]	; (8002140 <GPIO_VidPin_Mode_Output+0xef0>)
 8002018:	689b      	ldr	r3, [r3, #8]
 800201a:	f443 4340 	orr.w	r3, r3, #49152	; 0xc000
 800201e:	6093      	str	r3, [r2, #8]
				break;
 8002020:	e22b      	b.n	800247a <GPIO_VidPin_Mode_Output+0x122a>
				case (Pin_8):
						/*Select Output Type*/
						if(Copy_u8Type==Push_Pull){Clear_Bit(GPIO_B->OTYPER,GPIO_OTYPER_8);}
 8002022:	797b      	ldrb	r3, [r7, #5]
 8002024:	2b08      	cmp	r3, #8
 8002026:	d106      	bne.n	8002036 <GPIO_VidPin_Mode_Output+0xde6>
 8002028:	4a45      	ldr	r2, [pc, #276]	; (8002140 <GPIO_VidPin_Mode_Output+0xef0>)
 800202a:	4b45      	ldr	r3, [pc, #276]	; (8002140 <GPIO_VidPin_Mode_Output+0xef0>)
 800202c:	685b      	ldr	r3, [r3, #4]
 800202e:	f423 7380 	bic.w	r3, r3, #256	; 0x100
 8002032:	6053      	str	r3, [r2, #4]
 8002034:	e00e      	b.n	8002054 <GPIO_VidPin_Mode_Output+0xe04>
						else if (Copy_u8Type==Open_Drain)
 8002036:	797b      	ldrb	r3, [r7, #5]
 8002038:	2b09      	cmp	r3, #9
 800203a:	d10b      	bne.n	8002054 <GPIO_VidPin_Mode_Output+0xe04>
						{
							Set_Bit(GPIO_B->OTYPER,GPIO_OTYPER_8);
 800203c:	4a40      	ldr	r2, [pc, #256]	; (8002140 <GPIO_VidPin_Mode_Output+0xef0>)
 800203e:	4b40      	ldr	r3, [pc, #256]	; (8002140 <GPIO_VidPin_Mode_Output+0xef0>)
 8002040:	685b      	ldr	r3, [r3, #4]
 8002042:	f443 7380 	orr.w	r3, r3, #256	; 0x100
 8002046:	6053      	str	r3, [r2, #4]
						#if Open_Drain_Pull == Pull_Up
							Set_Bit(GPIO_B->PUPDR,GPIO_PUPDR_8_Pull_Up);
 8002048:	4a3d      	ldr	r2, [pc, #244]	; (8002140 <GPIO_VidPin_Mode_Output+0xef0>)
 800204a:	4b3d      	ldr	r3, [pc, #244]	; (8002140 <GPIO_VidPin_Mode_Output+0xef0>)
 800204c:	68db      	ldr	r3, [r3, #12]
 800204e:	f443 3380 	orr.w	r3, r3, #65536	; 0x10000
 8002052:	60d3      	str	r3, [r2, #12]
						#elif Open_Drain_Pull == Pull_Down
							Set_Bit(GPIO_B->PUPDR,GPIO_PUPDR_8_Pull_Down);
						#endif
						}
						/*Select Operating Speed*/
						if(Copy_u8Speed==Low_Speed){Clear_Bit(GPIO_B->OSPEEDR,GPIO_OSPEEDR_8_HI);}
 8002054:	793b      	ldrb	r3, [r7, #4]
 8002056:	2b04      	cmp	r3, #4
 8002058:	d106      	bne.n	8002068 <GPIO_VidPin_Mode_Output+0xe18>
 800205a:	4a39      	ldr	r2, [pc, #228]	; (8002140 <GPIO_VidPin_Mode_Output+0xef0>)
 800205c:	4b38      	ldr	r3, [pc, #224]	; (8002140 <GPIO_VidPin_Mode_Output+0xef0>)
 800205e:	689b      	ldr	r3, [r3, #8]
 8002060:	f423 3340 	bic.w	r3, r3, #196608	; 0x30000
 8002064:	6093      	str	r3, [r2, #8]
						else if(Copy_u8Speed==Medium_Speed){Set_Bit(GPIO_B->OSPEEDR,GPIO_OSPEEDR_8_Medium);}
						else if(Copy_u8Speed==Fast_Speed){/*Enable Compensation Cell*/Set_Bit(GPIO_B->OSPEEDR,GPIO_OSPEEDR_8_Fast);}
						else if(Copy_u8Speed==High_Speed){/*Enable Compensation Cell*/Set_Bit(GPIO_B->OSPEEDR,GPIO_OSPEEDR_8_HI);}
				break;
 8002066:	e20b      	b.n	8002480 <GPIO_VidPin_Mode_Output+0x1230>
						else if(Copy_u8Speed==Medium_Speed){Set_Bit(GPIO_B->OSPEEDR,GPIO_OSPEEDR_8_Medium);}
 8002068:	793b      	ldrb	r3, [r7, #4]
 800206a:	2b05      	cmp	r3, #5
 800206c:	d106      	bne.n	800207c <GPIO_VidPin_Mode_Output+0xe2c>
 800206e:	4a34      	ldr	r2, [pc, #208]	; (8002140 <GPIO_VidPin_Mode_Output+0xef0>)
 8002070:	4b33      	ldr	r3, [pc, #204]	; (8002140 <GPIO_VidPin_Mode_Output+0xef0>)
 8002072:	689b      	ldr	r3, [r3, #8]
 8002074:	f443 3380 	orr.w	r3, r3, #65536	; 0x10000
 8002078:	6093      	str	r3, [r2, #8]
				break;
 800207a:	e201      	b.n	8002480 <GPIO_VidPin_Mode_Output+0x1230>
						else if(Copy_u8Speed==Fast_Speed){/*Enable Compensation Cell*/Set_Bit(GPIO_B->OSPEEDR,GPIO_OSPEEDR_8_Fast);}
 800207c:	793b      	ldrb	r3, [r7, #4]
 800207e:	2b06      	cmp	r3, #6
 8002080:	d106      	bne.n	8002090 <GPIO_VidPin_Mode_Output+0xe40>
 8002082:	4a2f      	ldr	r2, [pc, #188]	; (8002140 <GPIO_VidPin_Mode_Output+0xef0>)
 8002084:	4b2e      	ldr	r3, [pc, #184]	; (8002140 <GPIO_VidPin_Mode_Output+0xef0>)
 8002086:	689b      	ldr	r3, [r3, #8]
 8002088:	f443 3300 	orr.w	r3, r3, #131072	; 0x20000
 800208c:	6093      	str	r3, [r2, #8]
				break;
 800208e:	e1f7      	b.n	8002480 <GPIO_VidPin_Mode_Output+0x1230>
						else if(Copy_u8Speed==High_Speed){/*Enable Compensation Cell*/Set_Bit(GPIO_B->OSPEEDR,GPIO_OSPEEDR_8_HI);}
 8002090:	793b      	ldrb	r3, [r7, #4]
 8002092:	2b07      	cmp	r3, #7
 8002094:	f040 81f4 	bne.w	8002480 <GPIO_VidPin_Mode_Output+0x1230>
 8002098:	4a29      	ldr	r2, [pc, #164]	; (8002140 <GPIO_VidPin_Mode_Output+0xef0>)
 800209a:	4b29      	ldr	r3, [pc, #164]	; (8002140 <GPIO_VidPin_Mode_Output+0xef0>)
 800209c:	689b      	ldr	r3, [r3, #8]
 800209e:	f443 3340 	orr.w	r3, r3, #196608	; 0x30000
 80020a2:	6093      	str	r3, [r2, #8]
				break;
 80020a4:	e1ec      	b.n	8002480 <GPIO_VidPin_Mode_Output+0x1230>
				case (Pin_9):
						/*Select Output Type*/
						if(Copy_u8Type==Push_Pull){Clear_Bit(GPIO_B->OTYPER,GPIO_OTYPER_9);}
 80020a6:	797b      	ldrb	r3, [r7, #5]
 80020a8:	2b08      	cmp	r3, #8
 80020aa:	d106      	bne.n	80020ba <GPIO_VidPin_Mode_Output+0xe6a>
 80020ac:	4a24      	ldr	r2, [pc, #144]	; (8002140 <GPIO_VidPin_Mode_Output+0xef0>)
 80020ae:	4b24      	ldr	r3, [pc, #144]	; (8002140 <GPIO_VidPin_Mode_Output+0xef0>)
 80020b0:	685b      	ldr	r3, [r3, #4]
 80020b2:	f423 7300 	bic.w	r3, r3, #512	; 0x200
 80020b6:	6053      	str	r3, [r2, #4]
 80020b8:	e00e      	b.n	80020d8 <GPIO_VidPin_Mode_Output+0xe88>
						else if (Copy_u8Type==Open_Drain)
 80020ba:	797b      	ldrb	r3, [r7, #5]
 80020bc:	2b09      	cmp	r3, #9
 80020be:	d10b      	bne.n	80020d8 <GPIO_VidPin_Mode_Output+0xe88>
						{
							Set_Bit(GPIO_B->OTYPER,GPIO_OTYPER_9);
 80020c0:	4a1f      	ldr	r2, [pc, #124]	; (8002140 <GPIO_VidPin_Mode_Output+0xef0>)
 80020c2:	4b1f      	ldr	r3, [pc, #124]	; (8002140 <GPIO_VidPin_Mode_Output+0xef0>)
 80020c4:	685b      	ldr	r3, [r3, #4]
 80020c6:	f443 7300 	orr.w	r3, r3, #512	; 0x200
 80020ca:	6053      	str	r3, [r2, #4]
						#if Open_Drain_Pull == Pull_Up
							Set_Bit(GPIO_B->PUPDR,GPIO_PUPDR_9_Pull_Up);
 80020cc:	4a1c      	ldr	r2, [pc, #112]	; (8002140 <GPIO_VidPin_Mode_Output+0xef0>)
 80020ce:	4b1c      	ldr	r3, [pc, #112]	; (8002140 <GPIO_VidPin_Mode_Output+0xef0>)
 80020d0:	68db      	ldr	r3, [r3, #12]
 80020d2:	f443 2380 	orr.w	r3, r3, #262144	; 0x40000
 80020d6:	60d3      	str	r3, [r2, #12]
						#elif Open_Drain_Pull == Pull_Down
							Set_Bit(GPIO_B->PUPDR,GPIO_PUPDR_9_Pull_Down);
						#endif
						}
						/*Select Operating Speed*/
						if(Copy_u8Speed==Low_Speed){Clear_Bit(GPIO_B->OSPEEDR,GPIO_OSPEEDR_9_HI);}
 80020d8:	793b      	ldrb	r3, [r7, #4]
 80020da:	2b04      	cmp	r3, #4
 80020dc:	d106      	bne.n	80020ec <GPIO_VidPin_Mode_Output+0xe9c>
 80020de:	4a18      	ldr	r2, [pc, #96]	; (8002140 <GPIO_VidPin_Mode_Output+0xef0>)
 80020e0:	4b17      	ldr	r3, [pc, #92]	; (8002140 <GPIO_VidPin_Mode_Output+0xef0>)
 80020e2:	689b      	ldr	r3, [r3, #8]
 80020e4:	f423 2340 	bic.w	r3, r3, #786432	; 0xc0000
 80020e8:	6093      	str	r3, [r2, #8]
						else if(Copy_u8Speed==Medium_Speed){Set_Bit(GPIO_B->OSPEEDR,GPIO_OSPEEDR_9_Medium);}
						else if(Copy_u8Speed==Fast_Speed){/*Enable Compensation Cell*/Set_Bit(GPIO_B->OSPEEDR,GPIO_OSPEEDR_9_Fast);}
						else if(Copy_u8Speed==High_Speed){/*Enable Compensation Cell*/Set_Bit(GPIO_B->OSPEEDR,GPIO_OSPEEDR_9_HI);}
				break;
 80020ea:	e1cc      	b.n	8002486 <GPIO_VidPin_Mode_Output+0x1236>
						else if(Copy_u8Speed==Medium_Speed){Set_Bit(GPIO_B->OSPEEDR,GPIO_OSPEEDR_9_Medium);}
 80020ec:	793b      	ldrb	r3, [r7, #4]
 80020ee:	2b05      	cmp	r3, #5
 80020f0:	d106      	bne.n	8002100 <GPIO_VidPin_Mode_Output+0xeb0>
 80020f2:	4a13      	ldr	r2, [pc, #76]	; (8002140 <GPIO_VidPin_Mode_Output+0xef0>)
 80020f4:	4b12      	ldr	r3, [pc, #72]	; (8002140 <GPIO_VidPin_Mode_Output+0xef0>)
 80020f6:	689b      	ldr	r3, [r3, #8]
 80020f8:	f443 2380 	orr.w	r3, r3, #262144	; 0x40000
 80020fc:	6093      	str	r3, [r2, #8]
				break;
 80020fe:	e1c2      	b.n	8002486 <GPIO_VidPin_Mode_Output+0x1236>
						else if(Copy_u8Speed==Fast_Speed){/*Enable Compensation Cell*/Set_Bit(GPIO_B->OSPEEDR,GPIO_OSPEEDR_9_Fast);}
 8002100:	793b      	ldrb	r3, [r7, #4]
 8002102:	2b06      	cmp	r3, #6
 8002104:	d106      	bne.n	8002114 <GPIO_VidPin_Mode_Output+0xec4>
 8002106:	4a0e      	ldr	r2, [pc, #56]	; (8002140 <GPIO_VidPin_Mode_Output+0xef0>)
 8002108:	4b0d      	ldr	r3, [pc, #52]	; (8002140 <GPIO_VidPin_Mode_Output+0xef0>)
 800210a:	689b      	ldr	r3, [r3, #8]
 800210c:	f443 2300 	orr.w	r3, r3, #524288	; 0x80000
 8002110:	6093      	str	r3, [r2, #8]
				break;
 8002112:	e1b8      	b.n	8002486 <GPIO_VidPin_Mode_Output+0x1236>
						else if(Copy_u8Speed==High_Speed){/*Enable Compensation Cell*/Set_Bit(GPIO_B->OSPEEDR,GPIO_OSPEEDR_9_HI);}
 8002114:	793b      	ldrb	r3, [r7, #4]
 8002116:	2b07      	cmp	r3, #7
 8002118:	f040 81b5 	bne.w	8002486 <GPIO_VidPin_Mode_Output+0x1236>
 800211c:	4a08      	ldr	r2, [pc, #32]	; (8002140 <GPIO_VidPin_Mode_Output+0xef0>)
 800211e:	4b08      	ldr	r3, [pc, #32]	; (8002140 <GPIO_VidPin_Mode_Output+0xef0>)
 8002120:	689b      	ldr	r3, [r3, #8]
 8002122:	f443 2340 	orr.w	r3, r3, #786432	; 0xc0000
 8002126:	6093      	str	r3, [r2, #8]
				break;
 8002128:	e1ad      	b.n	8002486 <GPIO_VidPin_Mode_Output+0x1236>
				case (Pin_10):
						/*Select Output Type*/
						if(Copy_u8Type==Push_Pull){Clear_Bit(GPIO_B->OTYPER,GPIO_OTYPER_10);}
 800212a:	797b      	ldrb	r3, [r7, #5]
 800212c:	2b08      	cmp	r3, #8
 800212e:	d109      	bne.n	8002144 <GPIO_VidPin_Mode_Output+0xef4>
 8002130:	4a03      	ldr	r2, [pc, #12]	; (8002140 <GPIO_VidPin_Mode_Output+0xef0>)
 8002132:	4b03      	ldr	r3, [pc, #12]	; (8002140 <GPIO_VidPin_Mode_Output+0xef0>)
 8002134:	685b      	ldr	r3, [r3, #4]
 8002136:	f423 6380 	bic.w	r3, r3, #1024	; 0x400
 800213a:	6053      	str	r3, [r2, #4]
 800213c:	e011      	b.n	8002162 <GPIO_VidPin_Mode_Output+0xf12>
 800213e:	bf00      	nop
 8002140:	40020400 	.word	0x40020400
						else if (Copy_u8Type==Open_Drain)
 8002144:	797b      	ldrb	r3, [r7, #5]
 8002146:	2b09      	cmp	r3, #9
 8002148:	d10b      	bne.n	8002162 <GPIO_VidPin_Mode_Output+0xf12>
						{
							Set_Bit(GPIO_B->OTYPER,GPIO_OTYPER_10);
 800214a:	4a94      	ldr	r2, [pc, #592]	; (800239c <GPIO_VidPin_Mode_Output+0x114c>)
 800214c:	4b93      	ldr	r3, [pc, #588]	; (800239c <GPIO_VidPin_Mode_Output+0x114c>)
 800214e:	685b      	ldr	r3, [r3, #4]
 8002150:	f443 6380 	orr.w	r3, r3, #1024	; 0x400
 8002154:	6053      	str	r3, [r2, #4]
						#if Open_Drain_Pull == Pull_Up
							Set_Bit(GPIO_B->PUPDR,GPIO_PUPDR_10_Pull_Up);
 8002156:	4a91      	ldr	r2, [pc, #580]	; (800239c <GPIO_VidPin_Mode_Output+0x114c>)
 8002158:	4b90      	ldr	r3, [pc, #576]	; (800239c <GPIO_VidPin_Mode_Output+0x114c>)
 800215a:	68db      	ldr	r3, [r3, #12]
 800215c:	f443 1380 	orr.w	r3, r3, #1048576	; 0x100000
 8002160:	60d3      	str	r3, [r2, #12]
						#elif Open_Drain_Pull == Pull_Down
							Set_Bit(GPIO_B->PUPDR,GPIO_PUPDR_10_Pull_Down);
						#endif
						}
						/*Select Operating Speed*/
						if(Copy_u8Speed==Low_Speed){Clear_Bit(GPIO_B->OSPEEDR,GPIO_OSPEEDR_10_HI);}
 8002162:	793b      	ldrb	r3, [r7, #4]
 8002164:	2b04      	cmp	r3, #4
 8002166:	d106      	bne.n	8002176 <GPIO_VidPin_Mode_Output+0xf26>
 8002168:	4a8c      	ldr	r2, [pc, #560]	; (800239c <GPIO_VidPin_Mode_Output+0x114c>)
 800216a:	4b8c      	ldr	r3, [pc, #560]	; (800239c <GPIO_VidPin_Mode_Output+0x114c>)
 800216c:	689b      	ldr	r3, [r3, #8]
 800216e:	f423 1340 	bic.w	r3, r3, #3145728	; 0x300000
 8002172:	6093      	str	r3, [r2, #8]
						else if(Copy_u8Speed==Medium_Speed){Set_Bit(GPIO_B->OSPEEDR,GPIO_OSPEEDR_10_Medium);}
						else if(Copy_u8Speed==Fast_Speed){/*Enable Compensation Cell*/Set_Bit(GPIO_B->OSPEEDR,GPIO_OSPEEDR_10_Fast);}
						else if(Copy_u8Speed==High_Speed){/*Enable Compensation Cell*/Set_Bit(GPIO_B->OSPEEDR,GPIO_OSPEEDR_10_HI);}
				break;
 8002174:	e18a      	b.n	800248c <GPIO_VidPin_Mode_Output+0x123c>
						else if(Copy_u8Speed==Medium_Speed){Set_Bit(GPIO_B->OSPEEDR,GPIO_OSPEEDR_10_Medium);}
 8002176:	793b      	ldrb	r3, [r7, #4]
 8002178:	2b05      	cmp	r3, #5
 800217a:	d106      	bne.n	800218a <GPIO_VidPin_Mode_Output+0xf3a>
 800217c:	4a87      	ldr	r2, [pc, #540]	; (800239c <GPIO_VidPin_Mode_Output+0x114c>)
 800217e:	4b87      	ldr	r3, [pc, #540]	; (800239c <GPIO_VidPin_Mode_Output+0x114c>)
 8002180:	689b      	ldr	r3, [r3, #8]
 8002182:	f443 1380 	orr.w	r3, r3, #1048576	; 0x100000
 8002186:	6093      	str	r3, [r2, #8]
				break;
 8002188:	e180      	b.n	800248c <GPIO_VidPin_Mode_Output+0x123c>
						else if(Copy_u8Speed==Fast_Speed){/*Enable Compensation Cell*/Set_Bit(GPIO_B->OSPEEDR,GPIO_OSPEEDR_10_Fast);}
 800218a:	793b      	ldrb	r3, [r7, #4]
 800218c:	2b06      	cmp	r3, #6
 800218e:	d106      	bne.n	800219e <GPIO_VidPin_Mode_Output+0xf4e>
 8002190:	4a82      	ldr	r2, [pc, #520]	; (800239c <GPIO_VidPin_Mode_Output+0x114c>)
 8002192:	4b82      	ldr	r3, [pc, #520]	; (800239c <GPIO_VidPin_Mode_Output+0x114c>)
 8002194:	689b      	ldr	r3, [r3, #8]
 8002196:	f443 1300 	orr.w	r3, r3, #2097152	; 0x200000
 800219a:	6093      	str	r3, [r2, #8]
				break;
 800219c:	e176      	b.n	800248c <GPIO_VidPin_Mode_Output+0x123c>
						else if(Copy_u8Speed==High_Speed){/*Enable Compensation Cell*/Set_Bit(GPIO_B->OSPEEDR,GPIO_OSPEEDR_10_HI);}
 800219e:	793b      	ldrb	r3, [r7, #4]
 80021a0:	2b07      	cmp	r3, #7
 80021a2:	f040 8173 	bne.w	800248c <GPIO_VidPin_Mode_Output+0x123c>
 80021a6:	4a7d      	ldr	r2, [pc, #500]	; (800239c <GPIO_VidPin_Mode_Output+0x114c>)
 80021a8:	4b7c      	ldr	r3, [pc, #496]	; (800239c <GPIO_VidPin_Mode_Output+0x114c>)
 80021aa:	689b      	ldr	r3, [r3, #8]
 80021ac:	f443 1340 	orr.w	r3, r3, #3145728	; 0x300000
 80021b0:	6093      	str	r3, [r2, #8]
				break;
 80021b2:	e16b      	b.n	800248c <GPIO_VidPin_Mode_Output+0x123c>
				case (Pin_11):
						/*Select Output Type*/
						if(Copy_u8Type==Push_Pull){Clear_Bit(GPIO_B->OTYPER,GPIO_OTYPER_11);}
 80021b4:	797b      	ldrb	r3, [r7, #5]
 80021b6:	2b08      	cmp	r3, #8
 80021b8:	d106      	bne.n	80021c8 <GPIO_VidPin_Mode_Output+0xf78>
 80021ba:	4a78      	ldr	r2, [pc, #480]	; (800239c <GPIO_VidPin_Mode_Output+0x114c>)
 80021bc:	4b77      	ldr	r3, [pc, #476]	; (800239c <GPIO_VidPin_Mode_Output+0x114c>)
 80021be:	685b      	ldr	r3, [r3, #4]
 80021c0:	f423 6300 	bic.w	r3, r3, #2048	; 0x800
 80021c4:	6053      	str	r3, [r2, #4]
 80021c6:	e00e      	b.n	80021e6 <GPIO_VidPin_Mode_Output+0xf96>
						else if (Copy_u8Type==Open_Drain)
 80021c8:	797b      	ldrb	r3, [r7, #5]
 80021ca:	2b09      	cmp	r3, #9
 80021cc:	d10b      	bne.n	80021e6 <GPIO_VidPin_Mode_Output+0xf96>
						{
							Set_Bit(GPIO_B->OTYPER,GPIO_OTYPER_11);
 80021ce:	4a73      	ldr	r2, [pc, #460]	; (800239c <GPIO_VidPin_Mode_Output+0x114c>)
 80021d0:	4b72      	ldr	r3, [pc, #456]	; (800239c <GPIO_VidPin_Mode_Output+0x114c>)
 80021d2:	685b      	ldr	r3, [r3, #4]
 80021d4:	f443 6300 	orr.w	r3, r3, #2048	; 0x800
 80021d8:	6053      	str	r3, [r2, #4]
						#if Open_Drain_Pull == Pull_Up
							Set_Bit(GPIO_B->PUPDR,GPIO_PUPDR_11_Pull_Up);
 80021da:	4a70      	ldr	r2, [pc, #448]	; (800239c <GPIO_VidPin_Mode_Output+0x114c>)
 80021dc:	4b6f      	ldr	r3, [pc, #444]	; (800239c <GPIO_VidPin_Mode_Output+0x114c>)
 80021de:	68db      	ldr	r3, [r3, #12]
 80021e0:	f443 0380 	orr.w	r3, r3, #4194304	; 0x400000
 80021e4:	60d3      	str	r3, [r2, #12]
						#elif Open_Drain_Pull == Pull_Down
							Set_Bit(GPIO_B->PUPDR,GPIO_PUPDR_11_Pull_Down);
						#endif
						}
						/*Select Operating Speed*/
						if(Copy_u8Speed==Low_Speed){Clear_Bit(GPIO_B->OSPEEDR,GPIO_OSPEEDR_11_HI);}
 80021e6:	793b      	ldrb	r3, [r7, #4]
 80021e8:	2b04      	cmp	r3, #4
 80021ea:	d106      	bne.n	80021fa <GPIO_VidPin_Mode_Output+0xfaa>
 80021ec:	4a6b      	ldr	r2, [pc, #428]	; (800239c <GPIO_VidPin_Mode_Output+0x114c>)
 80021ee:	4b6b      	ldr	r3, [pc, #428]	; (800239c <GPIO_VidPin_Mode_Output+0x114c>)
 80021f0:	689b      	ldr	r3, [r3, #8]
 80021f2:	f423 0340 	bic.w	r3, r3, #12582912	; 0xc00000
 80021f6:	6093      	str	r3, [r2, #8]
						else if(Copy_u8Speed==Medium_Speed){Set_Bit(GPIO_B->OSPEEDR,GPIO_OSPEEDR_11_Medium);}
						else if(Copy_u8Speed==Fast_Speed){/*Enable Compensation Cell*/Set_Bit(GPIO_B->OSPEEDR,GPIO_OSPEEDR_11_Fast);}
						else if(Copy_u8Speed==High_Speed){/*Enable Compensation Cell*/Set_Bit(GPIO_B->OSPEEDR,GPIO_OSPEEDR_11_HI);}
				break;
 80021f8:	e14b      	b.n	8002492 <GPIO_VidPin_Mode_Output+0x1242>
						else if(Copy_u8Speed==Medium_Speed){Set_Bit(GPIO_B->OSPEEDR,GPIO_OSPEEDR_11_Medium);}
 80021fa:	793b      	ldrb	r3, [r7, #4]
 80021fc:	2b05      	cmp	r3, #5
 80021fe:	d106      	bne.n	800220e <GPIO_VidPin_Mode_Output+0xfbe>
 8002200:	4a66      	ldr	r2, [pc, #408]	; (800239c <GPIO_VidPin_Mode_Output+0x114c>)
 8002202:	4b66      	ldr	r3, [pc, #408]	; (800239c <GPIO_VidPin_Mode_Output+0x114c>)
 8002204:	689b      	ldr	r3, [r3, #8]
 8002206:	f443 0380 	orr.w	r3, r3, #4194304	; 0x400000
 800220a:	6093      	str	r3, [r2, #8]
				break;
 800220c:	e141      	b.n	8002492 <GPIO_VidPin_Mode_Output+0x1242>
						else if(Copy_u8Speed==Fast_Speed){/*Enable Compensation Cell*/Set_Bit(GPIO_B->OSPEEDR,GPIO_OSPEEDR_11_Fast);}
 800220e:	793b      	ldrb	r3, [r7, #4]
 8002210:	2b06      	cmp	r3, #6
 8002212:	d106      	bne.n	8002222 <GPIO_VidPin_Mode_Output+0xfd2>
 8002214:	4a61      	ldr	r2, [pc, #388]	; (800239c <GPIO_VidPin_Mode_Output+0x114c>)
 8002216:	4b61      	ldr	r3, [pc, #388]	; (800239c <GPIO_VidPin_Mode_Output+0x114c>)
 8002218:	689b      	ldr	r3, [r3, #8]
 800221a:	f443 0300 	orr.w	r3, r3, #8388608	; 0x800000
 800221e:	6093      	str	r3, [r2, #8]
				break;
 8002220:	e137      	b.n	8002492 <GPIO_VidPin_Mode_Output+0x1242>
						else if(Copy_u8Speed==High_Speed){/*Enable Compensation Cell*/Set_Bit(GPIO_B->OSPEEDR,GPIO_OSPEEDR_11_HI);}
 8002222:	793b      	ldrb	r3, [r7, #4]
 8002224:	2b07      	cmp	r3, #7
 8002226:	f040 8134 	bne.w	8002492 <GPIO_VidPin_Mode_Output+0x1242>
 800222a:	4a5c      	ldr	r2, [pc, #368]	; (800239c <GPIO_VidPin_Mode_Output+0x114c>)
 800222c:	4b5b      	ldr	r3, [pc, #364]	; (800239c <GPIO_VidPin_Mode_Output+0x114c>)
 800222e:	689b      	ldr	r3, [r3, #8]
 8002230:	f443 0340 	orr.w	r3, r3, #12582912	; 0xc00000
 8002234:	6093      	str	r3, [r2, #8]
				break;
 8002236:	e12c      	b.n	8002492 <GPIO_VidPin_Mode_Output+0x1242>
				case (Pin_12):
						/*Select Output Type*/
						if(Copy_u8Type==Push_Pull){Clear_Bit(GPIO_B->OTYPER,GPIO_OTYPER_12);}
 8002238:	797b      	ldrb	r3, [r7, #5]
 800223a:	2b08      	cmp	r3, #8
 800223c:	d106      	bne.n	800224c <GPIO_VidPin_Mode_Output+0xffc>
 800223e:	4a57      	ldr	r2, [pc, #348]	; (800239c <GPIO_VidPin_Mode_Output+0x114c>)
 8002240:	4b56      	ldr	r3, [pc, #344]	; (800239c <GPIO_VidPin_Mode_Output+0x114c>)
 8002242:	685b      	ldr	r3, [r3, #4]
 8002244:	f423 5380 	bic.w	r3, r3, #4096	; 0x1000
 8002248:	6053      	str	r3, [r2, #4]
 800224a:	e00e      	b.n	800226a <GPIO_VidPin_Mode_Output+0x101a>
						else if (Copy_u8Type==Open_Drain)
 800224c:	797b      	ldrb	r3, [r7, #5]
 800224e:	2b09      	cmp	r3, #9
 8002250:	d10b      	bne.n	800226a <GPIO_VidPin_Mode_Output+0x101a>
						{
							Set_Bit(GPIO_B->OTYPER,GPIO_OTYPER_12);
 8002252:	4a52      	ldr	r2, [pc, #328]	; (800239c <GPIO_VidPin_Mode_Output+0x114c>)
 8002254:	4b51      	ldr	r3, [pc, #324]	; (800239c <GPIO_VidPin_Mode_Output+0x114c>)
 8002256:	685b      	ldr	r3, [r3, #4]
 8002258:	f443 5380 	orr.w	r3, r3, #4096	; 0x1000
 800225c:	6053      	str	r3, [r2, #4]
						#if Open_Drain_Pull == Pull_Up
							Set_Bit(GPIO_B->PUPDR,GPIO_PUPDR_12_Pull_Up);
 800225e:	4a4f      	ldr	r2, [pc, #316]	; (800239c <GPIO_VidPin_Mode_Output+0x114c>)
 8002260:	4b4e      	ldr	r3, [pc, #312]	; (800239c <GPIO_VidPin_Mode_Output+0x114c>)
 8002262:	68db      	ldr	r3, [r3, #12]
 8002264:	f043 7380 	orr.w	r3, r3, #16777216	; 0x1000000
 8002268:	60d3      	str	r3, [r2, #12]
						#elif Open_Drain_Pull == Pull_Down
							Set_Bit(GPIO_B->PUPDR,GPIO_PUPDR_12_Pull_Down);
						#endif
						}
						/*Select Operating Speed*/
						if(Copy_u8Speed==Low_Speed){Clear_Bit(GPIO_B->OSPEEDR,GPIO_OSPEEDR_12_HI);}
 800226a:	793b      	ldrb	r3, [r7, #4]
 800226c:	2b04      	cmp	r3, #4
 800226e:	d106      	bne.n	800227e <GPIO_VidPin_Mode_Output+0x102e>
 8002270:	4a4a      	ldr	r2, [pc, #296]	; (800239c <GPIO_VidPin_Mode_Output+0x114c>)
 8002272:	4b4a      	ldr	r3, [pc, #296]	; (800239c <GPIO_VidPin_Mode_Output+0x114c>)
 8002274:	689b      	ldr	r3, [r3, #8]
 8002276:	f023 7340 	bic.w	r3, r3, #50331648	; 0x3000000
 800227a:	6093      	str	r3, [r2, #8]
						else if(Copy_u8Speed==Medium_Speed){Set_Bit(GPIO_B->OSPEEDR,GPIO_OSPEEDR_12_Medium);}
						else if(Copy_u8Speed==Fast_Speed){/*Enable Compensation Cell*/Set_Bit(GPIO_B->OSPEEDR,GPIO_OSPEEDR_12_Fast);}
						else if(Copy_u8Speed==High_Speed){/*Enable Compensation Cell*/Set_Bit(GPIO_B->OSPEEDR,GPIO_OSPEEDR_12_HI);}
				break;
 800227c:	e10c      	b.n	8002498 <GPIO_VidPin_Mode_Output+0x1248>
						else if(Copy_u8Speed==Medium_Speed){Set_Bit(GPIO_B->OSPEEDR,GPIO_OSPEEDR_12_Medium);}
 800227e:	793b      	ldrb	r3, [r7, #4]
 8002280:	2b05      	cmp	r3, #5
 8002282:	d106      	bne.n	8002292 <GPIO_VidPin_Mode_Output+0x1042>
 8002284:	4a45      	ldr	r2, [pc, #276]	; (800239c <GPIO_VidPin_Mode_Output+0x114c>)
 8002286:	4b45      	ldr	r3, [pc, #276]	; (800239c <GPIO_VidPin_Mode_Output+0x114c>)
 8002288:	689b      	ldr	r3, [r3, #8]
 800228a:	f043 7380 	orr.w	r3, r3, #16777216	; 0x1000000
 800228e:	6093      	str	r3, [r2, #8]
				break;
 8002290:	e102      	b.n	8002498 <GPIO_VidPin_Mode_Output+0x1248>
						else if(Copy_u8Speed==Fast_Speed){/*Enable Compensation Cell*/Set_Bit(GPIO_B->OSPEEDR,GPIO_OSPEEDR_12_Fast);}
 8002292:	793b      	ldrb	r3, [r7, #4]
 8002294:	2b06      	cmp	r3, #6
 8002296:	d106      	bne.n	80022a6 <GPIO_VidPin_Mode_Output+0x1056>
 8002298:	4a40      	ldr	r2, [pc, #256]	; (800239c <GPIO_VidPin_Mode_Output+0x114c>)
 800229a:	4b40      	ldr	r3, [pc, #256]	; (800239c <GPIO_VidPin_Mode_Output+0x114c>)
 800229c:	689b      	ldr	r3, [r3, #8]
 800229e:	f043 7300 	orr.w	r3, r3, #33554432	; 0x2000000
 80022a2:	6093      	str	r3, [r2, #8]
				break;
 80022a4:	e0f8      	b.n	8002498 <GPIO_VidPin_Mode_Output+0x1248>
						else if(Copy_u8Speed==High_Speed){/*Enable Compensation Cell*/Set_Bit(GPIO_B->OSPEEDR,GPIO_OSPEEDR_12_HI);}
 80022a6:	793b      	ldrb	r3, [r7, #4]
 80022a8:	2b07      	cmp	r3, #7
 80022aa:	f040 80f5 	bne.w	8002498 <GPIO_VidPin_Mode_Output+0x1248>
 80022ae:	4a3b      	ldr	r2, [pc, #236]	; (800239c <GPIO_VidPin_Mode_Output+0x114c>)
 80022b0:	4b3a      	ldr	r3, [pc, #232]	; (800239c <GPIO_VidPin_Mode_Output+0x114c>)
 80022b2:	689b      	ldr	r3, [r3, #8]
 80022b4:	f043 7340 	orr.w	r3, r3, #50331648	; 0x3000000
 80022b8:	6093      	str	r3, [r2, #8]
				break;
 80022ba:	e0ed      	b.n	8002498 <GPIO_VidPin_Mode_Output+0x1248>
				case (Pin_13):
						/*Select Output Type*/
						if(Copy_u8Type==Push_Pull){Clear_Bit(GPIO_B->OTYPER,GPIO_OTYPER_13);}
 80022bc:	797b      	ldrb	r3, [r7, #5]
 80022be:	2b08      	cmp	r3, #8
 80022c0:	d106      	bne.n	80022d0 <GPIO_VidPin_Mode_Output+0x1080>
 80022c2:	4a36      	ldr	r2, [pc, #216]	; (800239c <GPIO_VidPin_Mode_Output+0x114c>)
 80022c4:	4b35      	ldr	r3, [pc, #212]	; (800239c <GPIO_VidPin_Mode_Output+0x114c>)
 80022c6:	685b      	ldr	r3, [r3, #4]
 80022c8:	f423 5300 	bic.w	r3, r3, #8192	; 0x2000
 80022cc:	6053      	str	r3, [r2, #4]
 80022ce:	e00e      	b.n	80022ee <GPIO_VidPin_Mode_Output+0x109e>
						else if (Copy_u8Type==Open_Drain)
 80022d0:	797b      	ldrb	r3, [r7, #5]
 80022d2:	2b09      	cmp	r3, #9
 80022d4:	d10b      	bne.n	80022ee <GPIO_VidPin_Mode_Output+0x109e>
						{
							Set_Bit(GPIO_B->OTYPER,GPIO_OTYPER_13);
 80022d6:	4a31      	ldr	r2, [pc, #196]	; (800239c <GPIO_VidPin_Mode_Output+0x114c>)
 80022d8:	4b30      	ldr	r3, [pc, #192]	; (800239c <GPIO_VidPin_Mode_Output+0x114c>)
 80022da:	685b      	ldr	r3, [r3, #4]
 80022dc:	f443 5300 	orr.w	r3, r3, #8192	; 0x2000
 80022e0:	6053      	str	r3, [r2, #4]
						#if Open_Drain_Pull == Pull_Up
							Set_Bit(GPIO_B->PUPDR,GPIO_PUPDR_13_Pull_Up);
 80022e2:	4a2e      	ldr	r2, [pc, #184]	; (800239c <GPIO_VidPin_Mode_Output+0x114c>)
 80022e4:	4b2d      	ldr	r3, [pc, #180]	; (800239c <GPIO_VidPin_Mode_Output+0x114c>)
 80022e6:	68db      	ldr	r3, [r3, #12]
 80022e8:	f043 6380 	orr.w	r3, r3, #67108864	; 0x4000000
 80022ec:	60d3      	str	r3, [r2, #12]
						#elif Open_Drain_Pull == Pull_Down
							Set_Bit(GPIO_B->PUPDR,GPIO_PUPDR_13_Pull_Down);
						#endif
						}
						/*Select Operating Speed*/
						if(Copy_u8Speed==Low_Speed){Clear_Bit(GPIO_B->OSPEEDR,GPIO_OSPEEDR_13_HI);}
 80022ee:	793b      	ldrb	r3, [r7, #4]
 80022f0:	2b04      	cmp	r3, #4
 80022f2:	d106      	bne.n	8002302 <GPIO_VidPin_Mode_Output+0x10b2>
 80022f4:	4a29      	ldr	r2, [pc, #164]	; (800239c <GPIO_VidPin_Mode_Output+0x114c>)
 80022f6:	4b29      	ldr	r3, [pc, #164]	; (800239c <GPIO_VidPin_Mode_Output+0x114c>)
 80022f8:	689b      	ldr	r3, [r3, #8]
 80022fa:	f023 6340 	bic.w	r3, r3, #201326592	; 0xc000000
 80022fe:	6093      	str	r3, [r2, #8]
						else if(Copy_u8Speed==Medium_Speed){Set_Bit(GPIO_B->OSPEEDR,GPIO_OSPEEDR_13_Medium);}
						else if(Copy_u8Speed==Fast_Speed){/*Enable Compensation Cell*/Set_Bit(GPIO_B->OSPEEDR,GPIO_OSPEEDR_13_Fast);}
						else if(Copy_u8Speed==High_Speed){/*Enable Compensation Cell*/Set_Bit(GPIO_B->OSPEEDR,GPIO_OSPEEDR_13_HI);}
				break;
 8002300:	e0cd      	b.n	800249e <GPIO_VidPin_Mode_Output+0x124e>
						else if(Copy_u8Speed==Medium_Speed){Set_Bit(GPIO_B->OSPEEDR,GPIO_OSPEEDR_13_Medium);}
 8002302:	793b      	ldrb	r3, [r7, #4]
 8002304:	2b05      	cmp	r3, #5
 8002306:	d106      	bne.n	8002316 <GPIO_VidPin_Mode_Output+0x10c6>
 8002308:	4a24      	ldr	r2, [pc, #144]	; (800239c <GPIO_VidPin_Mode_Output+0x114c>)
 800230a:	4b24      	ldr	r3, [pc, #144]	; (800239c <GPIO_VidPin_Mode_Output+0x114c>)
 800230c:	689b      	ldr	r3, [r3, #8]
 800230e:	f043 6380 	orr.w	r3, r3, #67108864	; 0x4000000
 8002312:	6093      	str	r3, [r2, #8]
				break;
 8002314:	e0c3      	b.n	800249e <GPIO_VidPin_Mode_Output+0x124e>
						else if(Copy_u8Speed==Fast_Speed){/*Enable Compensation Cell*/Set_Bit(GPIO_B->OSPEEDR,GPIO_OSPEEDR_13_Fast);}
 8002316:	793b      	ldrb	r3, [r7, #4]
 8002318:	2b06      	cmp	r3, #6
 800231a:	d106      	bne.n	800232a <GPIO_VidPin_Mode_Output+0x10da>
 800231c:	4a1f      	ldr	r2, [pc, #124]	; (800239c <GPIO_VidPin_Mode_Output+0x114c>)
 800231e:	4b1f      	ldr	r3, [pc, #124]	; (800239c <GPIO_VidPin_Mode_Output+0x114c>)
 8002320:	689b      	ldr	r3, [r3, #8]
 8002322:	f043 6300 	orr.w	r3, r3, #134217728	; 0x8000000
 8002326:	6093      	str	r3, [r2, #8]
				break;
 8002328:	e0b9      	b.n	800249e <GPIO_VidPin_Mode_Output+0x124e>
						else if(Copy_u8Speed==High_Speed){/*Enable Compensation Cell*/Set_Bit(GPIO_B->OSPEEDR,GPIO_OSPEEDR_13_HI);}
 800232a:	793b      	ldrb	r3, [r7, #4]
 800232c:	2b07      	cmp	r3, #7
 800232e:	f040 80b6 	bne.w	800249e <GPIO_VidPin_Mode_Output+0x124e>
 8002332:	4a1a      	ldr	r2, [pc, #104]	; (800239c <GPIO_VidPin_Mode_Output+0x114c>)
 8002334:	4b19      	ldr	r3, [pc, #100]	; (800239c <GPIO_VidPin_Mode_Output+0x114c>)
 8002336:	689b      	ldr	r3, [r3, #8]
 8002338:	f043 6340 	orr.w	r3, r3, #201326592	; 0xc000000
 800233c:	6093      	str	r3, [r2, #8]
				break;
 800233e:	e0ae      	b.n	800249e <GPIO_VidPin_Mode_Output+0x124e>
				case (Pin_14):
						/*Select Output Type*/
						if(Copy_u8Type==Push_Pull){Clear_Bit(GPIO_B->OTYPER,GPIO_OTYPER_14);}
 8002340:	797b      	ldrb	r3, [r7, #5]
 8002342:	2b08      	cmp	r3, #8
 8002344:	d106      	bne.n	8002354 <GPIO_VidPin_Mode_Output+0x1104>
 8002346:	4a15      	ldr	r2, [pc, #84]	; (800239c <GPIO_VidPin_Mode_Output+0x114c>)
 8002348:	4b14      	ldr	r3, [pc, #80]	; (800239c <GPIO_VidPin_Mode_Output+0x114c>)
 800234a:	685b      	ldr	r3, [r3, #4]
 800234c:	f423 4380 	bic.w	r3, r3, #16384	; 0x4000
 8002350:	6053      	str	r3, [r2, #4]
 8002352:	e00e      	b.n	8002372 <GPIO_VidPin_Mode_Output+0x1122>
						else if (Copy_u8Type==Open_Drain)
 8002354:	797b      	ldrb	r3, [r7, #5]
 8002356:	2b09      	cmp	r3, #9
 8002358:	d10b      	bne.n	8002372 <GPIO_VidPin_Mode_Output+0x1122>
						{
							Set_Bit(GPIO_B->OTYPER,GPIO_OTYPER_14);
 800235a:	4a10      	ldr	r2, [pc, #64]	; (800239c <GPIO_VidPin_Mode_Output+0x114c>)
 800235c:	4b0f      	ldr	r3, [pc, #60]	; (800239c <GPIO_VidPin_Mode_Output+0x114c>)
 800235e:	685b      	ldr	r3, [r3, #4]
 8002360:	f443 4380 	orr.w	r3, r3, #16384	; 0x4000
 8002364:	6053      	str	r3, [r2, #4]
						#if Open_Drain_Pull == Pull_Up
							Set_Bit(GPIO_B->PUPDR,GPIO_PUPDR_14_Pull_Up);
 8002366:	4a0d      	ldr	r2, [pc, #52]	; (800239c <GPIO_VidPin_Mode_Output+0x114c>)
 8002368:	4b0c      	ldr	r3, [pc, #48]	; (800239c <GPIO_VidPin_Mode_Output+0x114c>)
 800236a:	68db      	ldr	r3, [r3, #12]
 800236c:	f043 5380 	orr.w	r3, r3, #268435456	; 0x10000000
 8002370:	60d3      	str	r3, [r2, #12]
						#elif Open_Drain_Pull == Pull_Down
							Set_Bit(GPIO_B->PUPDR,GPIO_PUPDR_14_Pull_Down);
						#endif
						}
						/*Select Operating Speed*/
						if(Copy_u8Speed==Low_Speed){Clear_Bit(GPIO_B->OSPEEDR,GPIO_OSPEEDR_14_HI);}
 8002372:	793b      	ldrb	r3, [r7, #4]
 8002374:	2b04      	cmp	r3, #4
 8002376:	d106      	bne.n	8002386 <GPIO_VidPin_Mode_Output+0x1136>
 8002378:	4a08      	ldr	r2, [pc, #32]	; (800239c <GPIO_VidPin_Mode_Output+0x114c>)
 800237a:	4b08      	ldr	r3, [pc, #32]	; (800239c <GPIO_VidPin_Mode_Output+0x114c>)
 800237c:	689b      	ldr	r3, [r3, #8]
 800237e:	f023 5340 	bic.w	r3, r3, #805306368	; 0x30000000
 8002382:	6093      	str	r3, [r2, #8]
						else if(Copy_u8Speed==Medium_Speed){Set_Bit(GPIO_B->OSPEEDR,GPIO_OSPEEDR_14_Medium);}
						else if(Copy_u8Speed==Fast_Speed){/*Enable Compensation Cell*/Set_Bit(GPIO_B->OSPEEDR,GPIO_OSPEEDR_14_Fast);}
						else if(Copy_u8Speed==High_Speed){/*Enable Compensation Cell*/Set_Bit(GPIO_B->OSPEEDR,GPIO_OSPEEDR_14_HI);}
				break;
 8002384:	e08e      	b.n	80024a4 <GPIO_VidPin_Mode_Output+0x1254>
						else if(Copy_u8Speed==Medium_Speed){Set_Bit(GPIO_B->OSPEEDR,GPIO_OSPEEDR_14_Medium);}
 8002386:	793b      	ldrb	r3, [r7, #4]
 8002388:	2b05      	cmp	r3, #5
 800238a:	d109      	bne.n	80023a0 <GPIO_VidPin_Mode_Output+0x1150>
 800238c:	4a03      	ldr	r2, [pc, #12]	; (800239c <GPIO_VidPin_Mode_Output+0x114c>)
 800238e:	4b03      	ldr	r3, [pc, #12]	; (800239c <GPIO_VidPin_Mode_Output+0x114c>)
 8002390:	689b      	ldr	r3, [r3, #8]
 8002392:	f043 5380 	orr.w	r3, r3, #268435456	; 0x10000000
 8002396:	6093      	str	r3, [r2, #8]
				break;
 8002398:	e084      	b.n	80024a4 <GPIO_VidPin_Mode_Output+0x1254>
 800239a:	bf00      	nop
 800239c:	40020400 	.word	0x40020400
						else if(Copy_u8Speed==Fast_Speed){/*Enable Compensation Cell*/Set_Bit(GPIO_B->OSPEEDR,GPIO_OSPEEDR_14_Fast);}
 80023a0:	793b      	ldrb	r3, [r7, #4]
 80023a2:	2b06      	cmp	r3, #6
 80023a4:	d106      	bne.n	80023b4 <GPIO_VidPin_Mode_Output+0x1164>
 80023a6:	4a9e      	ldr	r2, [pc, #632]	; (8002620 <GPIO_VidPin_Mode_Output+0x13d0>)
 80023a8:	4b9d      	ldr	r3, [pc, #628]	; (8002620 <GPIO_VidPin_Mode_Output+0x13d0>)
 80023aa:	689b      	ldr	r3, [r3, #8]
 80023ac:	f043 5300 	orr.w	r3, r3, #536870912	; 0x20000000
 80023b0:	6093      	str	r3, [r2, #8]
				break;
 80023b2:	e077      	b.n	80024a4 <GPIO_VidPin_Mode_Output+0x1254>
						else if(Copy_u8Speed==High_Speed){/*Enable Compensation Cell*/Set_Bit(GPIO_B->OSPEEDR,GPIO_OSPEEDR_14_HI);}
 80023b4:	793b      	ldrb	r3, [r7, #4]
 80023b6:	2b07      	cmp	r3, #7
 80023b8:	d174      	bne.n	80024a4 <GPIO_VidPin_Mode_Output+0x1254>
 80023ba:	4a99      	ldr	r2, [pc, #612]	; (8002620 <GPIO_VidPin_Mode_Output+0x13d0>)
 80023bc:	4b98      	ldr	r3, [pc, #608]	; (8002620 <GPIO_VidPin_Mode_Output+0x13d0>)
 80023be:	689b      	ldr	r3, [r3, #8]
 80023c0:	f043 5340 	orr.w	r3, r3, #805306368	; 0x30000000
 80023c4:	6093      	str	r3, [r2, #8]
				break;
 80023c6:	e06d      	b.n	80024a4 <GPIO_VidPin_Mode_Output+0x1254>
				case (Pin_15):
						/*Select Output Type*/
						if(Copy_u8Type==Push_Pull){Clear_Bit(GPIO_B->OTYPER,GPIO_OTYPER_15);}
 80023c8:	797b      	ldrb	r3, [r7, #5]
 80023ca:	2b08      	cmp	r3, #8
 80023cc:	d106      	bne.n	80023dc <GPIO_VidPin_Mode_Output+0x118c>
 80023ce:	4a94      	ldr	r2, [pc, #592]	; (8002620 <GPIO_VidPin_Mode_Output+0x13d0>)
 80023d0:	4b93      	ldr	r3, [pc, #588]	; (8002620 <GPIO_VidPin_Mode_Output+0x13d0>)
 80023d2:	685b      	ldr	r3, [r3, #4]
 80023d4:	f423 4300 	bic.w	r3, r3, #32768	; 0x8000
 80023d8:	6053      	str	r3, [r2, #4]
 80023da:	e00e      	b.n	80023fa <GPIO_VidPin_Mode_Output+0x11aa>
						else if (Copy_u8Type==Open_Drain)
 80023dc:	797b      	ldrb	r3, [r7, #5]
 80023de:	2b09      	cmp	r3, #9
 80023e0:	d10b      	bne.n	80023fa <GPIO_VidPin_Mode_Output+0x11aa>
						{
							Set_Bit(GPIO_B->OTYPER,GPIO_OTYPER_15);
 80023e2:	4a8f      	ldr	r2, [pc, #572]	; (8002620 <GPIO_VidPin_Mode_Output+0x13d0>)
 80023e4:	4b8e      	ldr	r3, [pc, #568]	; (8002620 <GPIO_VidPin_Mode_Output+0x13d0>)
 80023e6:	685b      	ldr	r3, [r3, #4]
 80023e8:	f443 4300 	orr.w	r3, r3, #32768	; 0x8000
 80023ec:	6053      	str	r3, [r2, #4]
						#if Open_Drain_Pull == Pull_Up
							Set_Bit(GPIO_B->PUPDR,GPIO_PUPDR_15_Pull_Up);
 80023ee:	4a8c      	ldr	r2, [pc, #560]	; (8002620 <GPIO_VidPin_Mode_Output+0x13d0>)
 80023f0:	4b8b      	ldr	r3, [pc, #556]	; (8002620 <GPIO_VidPin_Mode_Output+0x13d0>)
 80023f2:	68db      	ldr	r3, [r3, #12]
 80023f4:	f043 4380 	orr.w	r3, r3, #1073741824	; 0x40000000
 80023f8:	60d3      	str	r3, [r2, #12]
						#elif Open_Drain_Pull == Pull_Down
							Set_Bit(GPIO_B->PUPDR,GPIO_PUPDR_15_Pull_Down);
						#endif
						}
						/*Select Operating Speed*/
						if(Copy_u8Speed==Low_Speed){Clear_Bit(GPIO_B->OSPEEDR,GPIO_OSPEEDR_15_HI);}
 80023fa:	793b      	ldrb	r3, [r7, #4]
 80023fc:	2b04      	cmp	r3, #4
 80023fe:	d106      	bne.n	800240e <GPIO_VidPin_Mode_Output+0x11be>
 8002400:	4a87      	ldr	r2, [pc, #540]	; (8002620 <GPIO_VidPin_Mode_Output+0x13d0>)
 8002402:	4b87      	ldr	r3, [pc, #540]	; (8002620 <GPIO_VidPin_Mode_Output+0x13d0>)
 8002404:	689b      	ldr	r3, [r3, #8]
 8002406:	f023 4340 	bic.w	r3, r3, #3221225472	; 0xc0000000
 800240a:	6093      	str	r3, [r2, #8]
						else if(Copy_u8Speed==Medium_Speed){Set_Bit(GPIO_B->OSPEEDR,GPIO_OSPEEDR_15_Medium);}
						else if(Copy_u8Speed==Fast_Speed){/*Enable Compensation Cell*/Set_Bit(GPIO_B->OSPEEDR,GPIO_OSPEEDR_15_Fast);}
						else if(Copy_u8Speed==High_Speed){/*Enable Compensation Cell*/Set_Bit(GPIO_B->OSPEEDR,GPIO_OSPEEDR_15_HI);}
				break;
 800240c:	e04d      	b.n	80024aa <GPIO_VidPin_Mode_Output+0x125a>
						else if(Copy_u8Speed==Medium_Speed){Set_Bit(GPIO_B->OSPEEDR,GPIO_OSPEEDR_15_Medium);}
 800240e:	793b      	ldrb	r3, [r7, #4]
 8002410:	2b05      	cmp	r3, #5
 8002412:	d106      	bne.n	8002422 <GPIO_VidPin_Mode_Output+0x11d2>
 8002414:	4a82      	ldr	r2, [pc, #520]	; (8002620 <GPIO_VidPin_Mode_Output+0x13d0>)
 8002416:	4b82      	ldr	r3, [pc, #520]	; (8002620 <GPIO_VidPin_Mode_Output+0x13d0>)
 8002418:	689b      	ldr	r3, [r3, #8]
 800241a:	f043 4380 	orr.w	r3, r3, #1073741824	; 0x40000000
 800241e:	6093      	str	r3, [r2, #8]
				break;
 8002420:	e043      	b.n	80024aa <GPIO_VidPin_Mode_Output+0x125a>
						else if(Copy_u8Speed==Fast_Speed){/*Enable Compensation Cell*/Set_Bit(GPIO_B->OSPEEDR,GPIO_OSPEEDR_15_Fast);}
 8002422:	793b      	ldrb	r3, [r7, #4]
 8002424:	2b06      	cmp	r3, #6
 8002426:	d106      	bne.n	8002436 <GPIO_VidPin_Mode_Output+0x11e6>
 8002428:	4a7d      	ldr	r2, [pc, #500]	; (8002620 <GPIO_VidPin_Mode_Output+0x13d0>)
 800242a:	4b7d      	ldr	r3, [pc, #500]	; (8002620 <GPIO_VidPin_Mode_Output+0x13d0>)
 800242c:	689b      	ldr	r3, [r3, #8]
 800242e:	f043 4300 	orr.w	r3, r3, #2147483648	; 0x80000000
 8002432:	6093      	str	r3, [r2, #8]
				break;
 8002434:	e039      	b.n	80024aa <GPIO_VidPin_Mode_Output+0x125a>
						else if(Copy_u8Speed==High_Speed){/*Enable Compensation Cell*/Set_Bit(GPIO_B->OSPEEDR,GPIO_OSPEEDR_15_HI);}
 8002436:	793b      	ldrb	r3, [r7, #4]
 8002438:	2b07      	cmp	r3, #7
 800243a:	d136      	bne.n	80024aa <GPIO_VidPin_Mode_Output+0x125a>
 800243c:	4a78      	ldr	r2, [pc, #480]	; (8002620 <GPIO_VidPin_Mode_Output+0x13d0>)
 800243e:	4b78      	ldr	r3, [pc, #480]	; (8002620 <GPIO_VidPin_Mode_Output+0x13d0>)
 8002440:	689b      	ldr	r3, [r3, #8]
 8002442:	f043 4340 	orr.w	r3, r3, #3221225472	; 0xc0000000
 8002446:	6093      	str	r3, [r2, #8]
				break;
 8002448:	e02f      	b.n	80024aa <GPIO_VidPin_Mode_Output+0x125a>
				default:break;
 800244a:	bf00      	nop
 800244c:	f001 bdb0 	b.w	8003fb0 <GPIO_VidPin_Mode_Output+0x2d60>
				break;
 8002450:	bf00      	nop
 8002452:	f001 bdad 	b.w	8003fb0 <GPIO_VidPin_Mode_Output+0x2d60>
				break;
 8002456:	bf00      	nop
 8002458:	f001 bdaa 	b.w	8003fb0 <GPIO_VidPin_Mode_Output+0x2d60>
				break;
 800245c:	bf00      	nop
 800245e:	f001 bda7 	b.w	8003fb0 <GPIO_VidPin_Mode_Output+0x2d60>
				break;
 8002462:	bf00      	nop
 8002464:	f001 bda4 	b.w	8003fb0 <GPIO_VidPin_Mode_Output+0x2d60>
				break;
 8002468:	bf00      	nop
 800246a:	f001 bda1 	b.w	8003fb0 <GPIO_VidPin_Mode_Output+0x2d60>
				break;
 800246e:	bf00      	nop
 8002470:	f001 bd9e 	b.w	8003fb0 <GPIO_VidPin_Mode_Output+0x2d60>
				break;
 8002474:	bf00      	nop
 8002476:	f001 bd9b 	b.w	8003fb0 <GPIO_VidPin_Mode_Output+0x2d60>
				break;
 800247a:	bf00      	nop
 800247c:	f001 bd98 	b.w	8003fb0 <GPIO_VidPin_Mode_Output+0x2d60>
				break;
 8002480:	bf00      	nop
 8002482:	f001 bd95 	b.w	8003fb0 <GPIO_VidPin_Mode_Output+0x2d60>
				break;
 8002486:	bf00      	nop
 8002488:	f001 bd92 	b.w	8003fb0 <GPIO_VidPin_Mode_Output+0x2d60>
				break;
 800248c:	bf00      	nop
 800248e:	f001 bd8f 	b.w	8003fb0 <GPIO_VidPin_Mode_Output+0x2d60>
				break;
 8002492:	bf00      	nop
 8002494:	f001 bd8c 	b.w	8003fb0 <GPIO_VidPin_Mode_Output+0x2d60>
				break;
 8002498:	bf00      	nop
 800249a:	f001 bd89 	b.w	8003fb0 <GPIO_VidPin_Mode_Output+0x2d60>
				break;
 800249e:	bf00      	nop
 80024a0:	f001 bd86 	b.w	8003fb0 <GPIO_VidPin_Mode_Output+0x2d60>
				break;
 80024a4:	bf00      	nop
 80024a6:	f001 bd83 	b.w	8003fb0 <GPIO_VidPin_Mode_Output+0x2d60>
				break;
 80024aa:	bf00      	nop
			}
		break;
 80024ac:	f001 bd80 	b.w	8003fb0 <GPIO_VidPin_Mode_Output+0x2d60>
		case(Port_C):
			switch (Copy_u8Pin)
 80024b0:	79bb      	ldrb	r3, [r7, #6]
 80024b2:	2b0f      	cmp	r3, #15
 80024b4:	f200 8450 	bhi.w	8002d58 <GPIO_VidPin_Mode_Output+0x1b08>
 80024b8:	a201      	add	r2, pc, #4	; (adr r2, 80024c0 <GPIO_VidPin_Mode_Output+0x1270>)
 80024ba:	f852 f023 	ldr.w	pc, [r2, r3, lsl #2]
 80024be:	bf00      	nop
 80024c0:	08002501 	.word	0x08002501
 80024c4:	08002589 	.word	0x08002589
 80024c8:	0800260d 	.word	0x0800260d
 80024cc:	08002699 	.word	0x08002699
 80024d0:	0800271d 	.word	0x0800271d
 80024d4:	080027a1 	.word	0x080027a1
 80024d8:	08002825 	.word	0x08002825
 80024dc:	080028af 	.word	0x080028af
 80024e0:	08002933 	.word	0x08002933
 80024e4:	080029b7 	.word	0x080029b7
 80024e8:	08002a3b 	.word	0x08002a3b
 80024ec:	08002abf 	.word	0x08002abf
 80024f0:	08002b49 	.word	0x08002b49
 80024f4:	08002bcd 	.word	0x08002bcd
 80024f8:	08002c51 	.word	0x08002c51
 80024fc:	08002cd3 	.word	0x08002cd3
			{
				case (Pin_0):
						/*Select Output Type*/
						if(Copy_u8Type==Push_Pull){Clear_Bit(GPIO_C->OTYPER,GPIO_OTYPER_0);}
 8002500:	797b      	ldrb	r3, [r7, #5]
 8002502:	2b08      	cmp	r3, #8
 8002504:	d106      	bne.n	8002514 <GPIO_VidPin_Mode_Output+0x12c4>
 8002506:	4a47      	ldr	r2, [pc, #284]	; (8002624 <GPIO_VidPin_Mode_Output+0x13d4>)
 8002508:	4b46      	ldr	r3, [pc, #280]	; (8002624 <GPIO_VidPin_Mode_Output+0x13d4>)
 800250a:	685b      	ldr	r3, [r3, #4]
 800250c:	f023 0301 	bic.w	r3, r3, #1
 8002510:	6053      	str	r3, [r2, #4]
 8002512:	e00e      	b.n	8002532 <GPIO_VidPin_Mode_Output+0x12e2>
						else if (Copy_u8Type==Open_Drain)
 8002514:	797b      	ldrb	r3, [r7, #5]
 8002516:	2b09      	cmp	r3, #9
 8002518:	d10b      	bne.n	8002532 <GPIO_VidPin_Mode_Output+0x12e2>
						{
							Set_Bit(GPIO_C->OTYPER,GPIO_OTYPER_0);
 800251a:	4a42      	ldr	r2, [pc, #264]	; (8002624 <GPIO_VidPin_Mode_Output+0x13d4>)
 800251c:	4b41      	ldr	r3, [pc, #260]	; (8002624 <GPIO_VidPin_Mode_Output+0x13d4>)
 800251e:	685b      	ldr	r3, [r3, #4]
 8002520:	f043 0301 	orr.w	r3, r3, #1
 8002524:	6053      	str	r3, [r2, #4]
						#if Open_Drain_Pull == Pull_Up
							Set_Bit(GPIO_C->PUPDR,GPIO_PUPDR_0_Pull_Up);
 8002526:	4a3f      	ldr	r2, [pc, #252]	; (8002624 <GPIO_VidPin_Mode_Output+0x13d4>)
 8002528:	4b3e      	ldr	r3, [pc, #248]	; (8002624 <GPIO_VidPin_Mode_Output+0x13d4>)
 800252a:	68db      	ldr	r3, [r3, #12]
 800252c:	f043 0301 	orr.w	r3, r3, #1
 8002530:	60d3      	str	r3, [r2, #12]
						#elif Open_Drain_Pull == Pull_Down
							Set_Bit(Copy_u8PortAddress->PUPDR,GPIO_PUPDR_0_Pull_Down);
						#endif
						}
						/*Select Operating Speed*/
						if(Copy_u8Speed==Low_Speed){Clear_Bit(GPIO_C->OSPEEDR,GPIO_OSPEEDR_0_HI);}
 8002532:	793b      	ldrb	r3, [r7, #4]
 8002534:	2b04      	cmp	r3, #4
 8002536:	d107      	bne.n	8002548 <GPIO_VidPin_Mode_Output+0x12f8>
 8002538:	4a3a      	ldr	r2, [pc, #232]	; (8002624 <GPIO_VidPin_Mode_Output+0x13d4>)
 800253a:	4b3a      	ldr	r3, [pc, #232]	; (8002624 <GPIO_VidPin_Mode_Output+0x13d4>)
 800253c:	689b      	ldr	r3, [r3, #8]
 800253e:	f023 0303 	bic.w	r3, r3, #3
 8002542:	6093      	str	r3, [r2, #8]
						else if(Copy_u8Speed==Medium_Speed){Set_Bit(GPIO_C->OSPEEDR,GPIO_OSPEEDR_0_Medium);}
						else if(Copy_u8Speed==Fast_Speed){/*Enable Compensation Cell*/Set_Bit(GPIO_C->OSPEEDR,GPIO_OSPEEDR_0_Fast);}
						else if(Copy_u8Speed==High_Speed){/*Enable Compensation Cell*/Set_Bit(GPIO_C->OSPEEDR,GPIO_OSPEEDR_0_HI);}
				break;
 8002544:	f000 bc0b 	b.w	8002d5e <GPIO_VidPin_Mode_Output+0x1b0e>
						else if(Copy_u8Speed==Medium_Speed){Set_Bit(GPIO_C->OSPEEDR,GPIO_OSPEEDR_0_Medium);}
 8002548:	793b      	ldrb	r3, [r7, #4]
 800254a:	2b05      	cmp	r3, #5
 800254c:	d107      	bne.n	800255e <GPIO_VidPin_Mode_Output+0x130e>
 800254e:	4a35      	ldr	r2, [pc, #212]	; (8002624 <GPIO_VidPin_Mode_Output+0x13d4>)
 8002550:	4b34      	ldr	r3, [pc, #208]	; (8002624 <GPIO_VidPin_Mode_Output+0x13d4>)
 8002552:	689b      	ldr	r3, [r3, #8]
 8002554:	f043 0301 	orr.w	r3, r3, #1
 8002558:	6093      	str	r3, [r2, #8]
				break;
 800255a:	f000 bc00 	b.w	8002d5e <GPIO_VidPin_Mode_Output+0x1b0e>
						else if(Copy_u8Speed==Fast_Speed){/*Enable Compensation Cell*/Set_Bit(GPIO_C->OSPEEDR,GPIO_OSPEEDR_0_Fast);}
 800255e:	793b      	ldrb	r3, [r7, #4]
 8002560:	2b06      	cmp	r3, #6
 8002562:	d106      	bne.n	8002572 <GPIO_VidPin_Mode_Output+0x1322>
 8002564:	4a2f      	ldr	r2, [pc, #188]	; (8002624 <GPIO_VidPin_Mode_Output+0x13d4>)
 8002566:	4b2f      	ldr	r3, [pc, #188]	; (8002624 <GPIO_VidPin_Mode_Output+0x13d4>)
 8002568:	689b      	ldr	r3, [r3, #8]
 800256a:	f043 0302 	orr.w	r3, r3, #2
 800256e:	6093      	str	r3, [r2, #8]
				break;
 8002570:	e3f5      	b.n	8002d5e <GPIO_VidPin_Mode_Output+0x1b0e>
						else if(Copy_u8Speed==High_Speed){/*Enable Compensation Cell*/Set_Bit(GPIO_C->OSPEEDR,GPIO_OSPEEDR_0_HI);}
 8002572:	793b      	ldrb	r3, [r7, #4]
 8002574:	2b07      	cmp	r3, #7
 8002576:	f040 83f2 	bne.w	8002d5e <GPIO_VidPin_Mode_Output+0x1b0e>
 800257a:	4a2a      	ldr	r2, [pc, #168]	; (8002624 <GPIO_VidPin_Mode_Output+0x13d4>)
 800257c:	4b29      	ldr	r3, [pc, #164]	; (8002624 <GPIO_VidPin_Mode_Output+0x13d4>)
 800257e:	689b      	ldr	r3, [r3, #8]
 8002580:	f043 0303 	orr.w	r3, r3, #3
 8002584:	6093      	str	r3, [r2, #8]
				break;
 8002586:	e3ea      	b.n	8002d5e <GPIO_VidPin_Mode_Output+0x1b0e>
				case (Pin_1):
						/*Select Output Type*/
						if(Copy_u8Type==Push_Pull){Clear_Bit(GPIO_C->OTYPER,GPIO_OTYPER_1);}
 8002588:	797b      	ldrb	r3, [r7, #5]
 800258a:	2b08      	cmp	r3, #8
 800258c:	d106      	bne.n	800259c <GPIO_VidPin_Mode_Output+0x134c>
 800258e:	4a25      	ldr	r2, [pc, #148]	; (8002624 <GPIO_VidPin_Mode_Output+0x13d4>)
 8002590:	4b24      	ldr	r3, [pc, #144]	; (8002624 <GPIO_VidPin_Mode_Output+0x13d4>)
 8002592:	685b      	ldr	r3, [r3, #4]
 8002594:	f023 0302 	bic.w	r3, r3, #2
 8002598:	6053      	str	r3, [r2, #4]
 800259a:	e00e      	b.n	80025ba <GPIO_VidPin_Mode_Output+0x136a>
						else if (Copy_u8Type==Open_Drain)
 800259c:	797b      	ldrb	r3, [r7, #5]
 800259e:	2b09      	cmp	r3, #9
 80025a0:	d10b      	bne.n	80025ba <GPIO_VidPin_Mode_Output+0x136a>
						{
							Set_Bit(GPIO_C->OTYPER,GPIO_OTYPER_1);
 80025a2:	4a20      	ldr	r2, [pc, #128]	; (8002624 <GPIO_VidPin_Mode_Output+0x13d4>)
 80025a4:	4b1f      	ldr	r3, [pc, #124]	; (8002624 <GPIO_VidPin_Mode_Output+0x13d4>)
 80025a6:	685b      	ldr	r3, [r3, #4]
 80025a8:	f043 0302 	orr.w	r3, r3, #2
 80025ac:	6053      	str	r3, [r2, #4]
						#if Open_Drain_Pull == Pull_Up
							Set_Bit(GPIO_C->PUPDR,GPIO_PUPDR_1_Pull_Up);
 80025ae:	4a1d      	ldr	r2, [pc, #116]	; (8002624 <GPIO_VidPin_Mode_Output+0x13d4>)
 80025b0:	4b1c      	ldr	r3, [pc, #112]	; (8002624 <GPIO_VidPin_Mode_Output+0x13d4>)
 80025b2:	68db      	ldr	r3, [r3, #12]
 80025b4:	f043 0304 	orr.w	r3, r3, #4
 80025b8:	60d3      	str	r3, [r2, #12]
						#elif Open_Drain_Pull == Pull_Down
							Set_Bit(GPIO_C->PUPDR,GPIO_PUPDR_1_Pull_Down);
						#endif
						}
						/*Select Operating Speed*/
						if(Copy_u8Speed==Low_Speed){Clear_Bit(GPIO_C->OSPEEDR,GPIO_OSPEEDR_1_HI);}
 80025ba:	793b      	ldrb	r3, [r7, #4]
 80025bc:	2b04      	cmp	r3, #4
 80025be:	d106      	bne.n	80025ce <GPIO_VidPin_Mode_Output+0x137e>
 80025c0:	4a18      	ldr	r2, [pc, #96]	; (8002624 <GPIO_VidPin_Mode_Output+0x13d4>)
 80025c2:	4b18      	ldr	r3, [pc, #96]	; (8002624 <GPIO_VidPin_Mode_Output+0x13d4>)
 80025c4:	689b      	ldr	r3, [r3, #8]
 80025c6:	f023 030c 	bic.w	r3, r3, #12
 80025ca:	6093      	str	r3, [r2, #8]
						else if(Copy_u8Speed==Medium_Speed){Set_Bit(GPIO_C->OSPEEDR,GPIO_OSPEEDR_1_Medium);}
						else if(Copy_u8Speed==Fast_Speed){/*Enable Compensation Cell*/Set_Bit(GPIO_C->OSPEEDR,GPIO_OSPEEDR_1_Fast);}
						else if(Copy_u8Speed==High_Speed){/*Enable Compensation Cell*/Set_Bit(GPIO_C->OSPEEDR,GPIO_OSPEEDR_1_HI);}
				break;
 80025cc:	e3ca      	b.n	8002d64 <GPIO_VidPin_Mode_Output+0x1b14>
						else if(Copy_u8Speed==Medium_Speed){Set_Bit(GPIO_C->OSPEEDR,GPIO_OSPEEDR_1_Medium);}
 80025ce:	793b      	ldrb	r3, [r7, #4]
 80025d0:	2b05      	cmp	r3, #5
 80025d2:	d106      	bne.n	80025e2 <GPIO_VidPin_Mode_Output+0x1392>
 80025d4:	4a13      	ldr	r2, [pc, #76]	; (8002624 <GPIO_VidPin_Mode_Output+0x13d4>)
 80025d6:	4b13      	ldr	r3, [pc, #76]	; (8002624 <GPIO_VidPin_Mode_Output+0x13d4>)
 80025d8:	689b      	ldr	r3, [r3, #8]
 80025da:	f043 0304 	orr.w	r3, r3, #4
 80025de:	6093      	str	r3, [r2, #8]
				break;
 80025e0:	e3c0      	b.n	8002d64 <GPIO_VidPin_Mode_Output+0x1b14>
						else if(Copy_u8Speed==Fast_Speed){/*Enable Compensation Cell*/Set_Bit(GPIO_C->OSPEEDR,GPIO_OSPEEDR_1_Fast);}
 80025e2:	793b      	ldrb	r3, [r7, #4]
 80025e4:	2b06      	cmp	r3, #6
 80025e6:	d106      	bne.n	80025f6 <GPIO_VidPin_Mode_Output+0x13a6>
 80025e8:	4a0e      	ldr	r2, [pc, #56]	; (8002624 <GPIO_VidPin_Mode_Output+0x13d4>)
 80025ea:	4b0e      	ldr	r3, [pc, #56]	; (8002624 <GPIO_VidPin_Mode_Output+0x13d4>)
 80025ec:	689b      	ldr	r3, [r3, #8]
 80025ee:	f043 0308 	orr.w	r3, r3, #8
 80025f2:	6093      	str	r3, [r2, #8]
				break;
 80025f4:	e3b6      	b.n	8002d64 <GPIO_VidPin_Mode_Output+0x1b14>
						else if(Copy_u8Speed==High_Speed){/*Enable Compensation Cell*/Set_Bit(GPIO_C->OSPEEDR,GPIO_OSPEEDR_1_HI);}
 80025f6:	793b      	ldrb	r3, [r7, #4]
 80025f8:	2b07      	cmp	r3, #7
 80025fa:	f040 83b3 	bne.w	8002d64 <GPIO_VidPin_Mode_Output+0x1b14>
 80025fe:	4a09      	ldr	r2, [pc, #36]	; (8002624 <GPIO_VidPin_Mode_Output+0x13d4>)
 8002600:	4b08      	ldr	r3, [pc, #32]	; (8002624 <GPIO_VidPin_Mode_Output+0x13d4>)
 8002602:	689b      	ldr	r3, [r3, #8]
 8002604:	f043 030c 	orr.w	r3, r3, #12
 8002608:	6093      	str	r3, [r2, #8]
				break;
 800260a:	e3ab      	b.n	8002d64 <GPIO_VidPin_Mode_Output+0x1b14>
				case (Pin_2):
						/*Select Output Type*/
						if(Copy_u8Type==Push_Pull){Clear_Bit(GPIO_C->OTYPER,GPIO_OTYPER_2);}
 800260c:	797b      	ldrb	r3, [r7, #5]
 800260e:	2b08      	cmp	r3, #8
 8002610:	d10a      	bne.n	8002628 <GPIO_VidPin_Mode_Output+0x13d8>
 8002612:	4a04      	ldr	r2, [pc, #16]	; (8002624 <GPIO_VidPin_Mode_Output+0x13d4>)
 8002614:	4b03      	ldr	r3, [pc, #12]	; (8002624 <GPIO_VidPin_Mode_Output+0x13d4>)
 8002616:	685b      	ldr	r3, [r3, #4]
 8002618:	f023 0304 	bic.w	r3, r3, #4
 800261c:	6053      	str	r3, [r2, #4]
 800261e:	e012      	b.n	8002646 <GPIO_VidPin_Mode_Output+0x13f6>
 8002620:	40020400 	.word	0x40020400
 8002624:	40020800 	.word	0x40020800
						else if (Copy_u8Type==Open_Drain)
 8002628:	797b      	ldrb	r3, [r7, #5]
 800262a:	2b09      	cmp	r3, #9
 800262c:	d10b      	bne.n	8002646 <GPIO_VidPin_Mode_Output+0x13f6>
						{
							Set_Bit(GPIO_C->OTYPER,GPIO_OTYPER_2);
 800262e:	4a94      	ldr	r2, [pc, #592]	; (8002880 <GPIO_VidPin_Mode_Output+0x1630>)
 8002630:	4b93      	ldr	r3, [pc, #588]	; (8002880 <GPIO_VidPin_Mode_Output+0x1630>)
 8002632:	685b      	ldr	r3, [r3, #4]
 8002634:	f043 0304 	orr.w	r3, r3, #4
 8002638:	6053      	str	r3, [r2, #4]
						#if Open_Drain_Pull == Pull_Up
							Set_Bit(GPIO_C->PUPDR,GPIO_PUPDR_2_Pull_Up);
 800263a:	4a91      	ldr	r2, [pc, #580]	; (8002880 <GPIO_VidPin_Mode_Output+0x1630>)
 800263c:	4b90      	ldr	r3, [pc, #576]	; (8002880 <GPIO_VidPin_Mode_Output+0x1630>)
 800263e:	68db      	ldr	r3, [r3, #12]
 8002640:	f043 0310 	orr.w	r3, r3, #16
 8002644:	60d3      	str	r3, [r2, #12]
						#elif Open_Drain_Pull == Pull_Down
							Set_Bit(GPIO_C->PUPDR,GPIO_PUPDR_2_Pull_Down);
						#endif
						}
						/*Select Operating Speed*/
						if(Copy_u8Speed==Low_Speed){Clear_Bit(GPIO_C->OSPEEDR,GPIO_OSPEEDR_2_HI);}
 8002646:	793b      	ldrb	r3, [r7, #4]
 8002648:	2b04      	cmp	r3, #4
 800264a:	d106      	bne.n	800265a <GPIO_VidPin_Mode_Output+0x140a>
 800264c:	4a8c      	ldr	r2, [pc, #560]	; (8002880 <GPIO_VidPin_Mode_Output+0x1630>)
 800264e:	4b8c      	ldr	r3, [pc, #560]	; (8002880 <GPIO_VidPin_Mode_Output+0x1630>)
 8002650:	689b      	ldr	r3, [r3, #8]
 8002652:	f023 0330 	bic.w	r3, r3, #48	; 0x30
 8002656:	6093      	str	r3, [r2, #8]
						else if(Copy_u8Speed==Medium_Speed){Set_Bit(GPIO_C->OSPEEDR,GPIO_OSPEEDR_2_Medium);}
						else if(Copy_u8Speed==Fast_Speed){/*Enable Compensation Cell*/Set_Bit(GPIO_C->OSPEEDR,GPIO_OSPEEDR_2_Fast);}
						else if(Copy_u8Speed==High_Speed){/*Enable Compensation Cell*/Set_Bit(GPIO_C->OSPEEDR,GPIO_OSPEEDR_2_HI);}
				break;
 8002658:	e387      	b.n	8002d6a <GPIO_VidPin_Mode_Output+0x1b1a>
						else if(Copy_u8Speed==Medium_Speed){Set_Bit(GPIO_C->OSPEEDR,GPIO_OSPEEDR_2_Medium);}
 800265a:	793b      	ldrb	r3, [r7, #4]
 800265c:	2b05      	cmp	r3, #5
 800265e:	d106      	bne.n	800266e <GPIO_VidPin_Mode_Output+0x141e>
 8002660:	4a87      	ldr	r2, [pc, #540]	; (8002880 <GPIO_VidPin_Mode_Output+0x1630>)
 8002662:	4b87      	ldr	r3, [pc, #540]	; (8002880 <GPIO_VidPin_Mode_Output+0x1630>)
 8002664:	689b      	ldr	r3, [r3, #8]
 8002666:	f043 0310 	orr.w	r3, r3, #16
 800266a:	6093      	str	r3, [r2, #8]
				break;
 800266c:	e37d      	b.n	8002d6a <GPIO_VidPin_Mode_Output+0x1b1a>
						else if(Copy_u8Speed==Fast_Speed){/*Enable Compensation Cell*/Set_Bit(GPIO_C->OSPEEDR,GPIO_OSPEEDR_2_Fast);}
 800266e:	793b      	ldrb	r3, [r7, #4]
 8002670:	2b06      	cmp	r3, #6
 8002672:	d106      	bne.n	8002682 <GPIO_VidPin_Mode_Output+0x1432>
 8002674:	4a82      	ldr	r2, [pc, #520]	; (8002880 <GPIO_VidPin_Mode_Output+0x1630>)
 8002676:	4b82      	ldr	r3, [pc, #520]	; (8002880 <GPIO_VidPin_Mode_Output+0x1630>)
 8002678:	689b      	ldr	r3, [r3, #8]
 800267a:	f043 0320 	orr.w	r3, r3, #32
 800267e:	6093      	str	r3, [r2, #8]
				break;
 8002680:	e373      	b.n	8002d6a <GPIO_VidPin_Mode_Output+0x1b1a>
						else if(Copy_u8Speed==High_Speed){/*Enable Compensation Cell*/Set_Bit(GPIO_C->OSPEEDR,GPIO_OSPEEDR_2_HI);}
 8002682:	793b      	ldrb	r3, [r7, #4]
 8002684:	2b07      	cmp	r3, #7
 8002686:	f040 8370 	bne.w	8002d6a <GPIO_VidPin_Mode_Output+0x1b1a>
 800268a:	4a7d      	ldr	r2, [pc, #500]	; (8002880 <GPIO_VidPin_Mode_Output+0x1630>)
 800268c:	4b7c      	ldr	r3, [pc, #496]	; (8002880 <GPIO_VidPin_Mode_Output+0x1630>)
 800268e:	689b      	ldr	r3, [r3, #8]
 8002690:	f043 0330 	orr.w	r3, r3, #48	; 0x30
 8002694:	6093      	str	r3, [r2, #8]
				break;
 8002696:	e368      	b.n	8002d6a <GPIO_VidPin_Mode_Output+0x1b1a>
				case (Pin_3):
						/*Select Output Type*/
						if(Copy_u8Type==Push_Pull){Clear_Bit(GPIO_C->OTYPER,GPIO_OTYPER_3);}
 8002698:	797b      	ldrb	r3, [r7, #5]
 800269a:	2b08      	cmp	r3, #8
 800269c:	d106      	bne.n	80026ac <GPIO_VidPin_Mode_Output+0x145c>
 800269e:	4a78      	ldr	r2, [pc, #480]	; (8002880 <GPIO_VidPin_Mode_Output+0x1630>)
 80026a0:	4b77      	ldr	r3, [pc, #476]	; (8002880 <GPIO_VidPin_Mode_Output+0x1630>)
 80026a2:	685b      	ldr	r3, [r3, #4]
 80026a4:	f023 0308 	bic.w	r3, r3, #8
 80026a8:	6053      	str	r3, [r2, #4]
 80026aa:	e00e      	b.n	80026ca <GPIO_VidPin_Mode_Output+0x147a>
						else if (Copy_u8Type==Open_Drain)
 80026ac:	797b      	ldrb	r3, [r7, #5]
 80026ae:	2b09      	cmp	r3, #9
 80026b0:	d10b      	bne.n	80026ca <GPIO_VidPin_Mode_Output+0x147a>
						{
							Set_Bit(GPIO_C->OTYPER,GPIO_OTYPER_3);
 80026b2:	4a73      	ldr	r2, [pc, #460]	; (8002880 <GPIO_VidPin_Mode_Output+0x1630>)
 80026b4:	4b72      	ldr	r3, [pc, #456]	; (8002880 <GPIO_VidPin_Mode_Output+0x1630>)
 80026b6:	685b      	ldr	r3, [r3, #4]
 80026b8:	f043 0308 	orr.w	r3, r3, #8
 80026bc:	6053      	str	r3, [r2, #4]
						#if Open_Drain_Pull == Pull_Up
							Set_Bit(GPIO_C->PUPDR,GPIO_PUPDR_3_Pull_Up);
 80026be:	4a70      	ldr	r2, [pc, #448]	; (8002880 <GPIO_VidPin_Mode_Output+0x1630>)
 80026c0:	4b6f      	ldr	r3, [pc, #444]	; (8002880 <GPIO_VidPin_Mode_Output+0x1630>)
 80026c2:	68db      	ldr	r3, [r3, #12]
 80026c4:	f043 0340 	orr.w	r3, r3, #64	; 0x40
 80026c8:	60d3      	str	r3, [r2, #12]
						#elif Open_Drain_Pull == Pull_Down
							Set_Bit(GPIO_C->PUPDR,GPIO_PUPDR_3_Pull_Down);
						#endif
						}
						/*Select Operating Speed*/
						if(Copy_u8Speed==Low_Speed){Clear_Bit(GPIO_C->OSPEEDR,GPIO_OSPEEDR_3_HI);}
 80026ca:	793b      	ldrb	r3, [r7, #4]
 80026cc:	2b04      	cmp	r3, #4
 80026ce:	d106      	bne.n	80026de <GPIO_VidPin_Mode_Output+0x148e>
 80026d0:	4a6b      	ldr	r2, [pc, #428]	; (8002880 <GPIO_VidPin_Mode_Output+0x1630>)
 80026d2:	4b6b      	ldr	r3, [pc, #428]	; (8002880 <GPIO_VidPin_Mode_Output+0x1630>)
 80026d4:	689b      	ldr	r3, [r3, #8]
 80026d6:	f023 03c0 	bic.w	r3, r3, #192	; 0xc0
 80026da:	6093      	str	r3, [r2, #8]
						else if(Copy_u8Speed==Medium_Speed){Set_Bit(GPIO_C->OSPEEDR,GPIO_OSPEEDR_3_Medium);}
						else if(Copy_u8Speed==Fast_Speed){/*Enable Compensation Cell*/Set_Bit(GPIO_C->OSPEEDR,GPIO_OSPEEDR_3_Fast);}
						else if(Copy_u8Speed==High_Speed){/*Enable Compensation Cell*/Set_Bit(GPIO_C->OSPEEDR,GPIO_OSPEEDR_3_HI);}
				break;
 80026dc:	e348      	b.n	8002d70 <GPIO_VidPin_Mode_Output+0x1b20>
						else if(Copy_u8Speed==Medium_Speed){Set_Bit(GPIO_C->OSPEEDR,GPIO_OSPEEDR_3_Medium);}
 80026de:	793b      	ldrb	r3, [r7, #4]
 80026e0:	2b05      	cmp	r3, #5
 80026e2:	d106      	bne.n	80026f2 <GPIO_VidPin_Mode_Output+0x14a2>
 80026e4:	4a66      	ldr	r2, [pc, #408]	; (8002880 <GPIO_VidPin_Mode_Output+0x1630>)
 80026e6:	4b66      	ldr	r3, [pc, #408]	; (8002880 <GPIO_VidPin_Mode_Output+0x1630>)
 80026e8:	689b      	ldr	r3, [r3, #8]
 80026ea:	f043 0340 	orr.w	r3, r3, #64	; 0x40
 80026ee:	6093      	str	r3, [r2, #8]
				break;
 80026f0:	e33e      	b.n	8002d70 <GPIO_VidPin_Mode_Output+0x1b20>
						else if(Copy_u8Speed==Fast_Speed){/*Enable Compensation Cell*/Set_Bit(GPIO_C->OSPEEDR,GPIO_OSPEEDR_3_Fast);}
 80026f2:	793b      	ldrb	r3, [r7, #4]
 80026f4:	2b06      	cmp	r3, #6
 80026f6:	d106      	bne.n	8002706 <GPIO_VidPin_Mode_Output+0x14b6>
 80026f8:	4a61      	ldr	r2, [pc, #388]	; (8002880 <GPIO_VidPin_Mode_Output+0x1630>)
 80026fa:	4b61      	ldr	r3, [pc, #388]	; (8002880 <GPIO_VidPin_Mode_Output+0x1630>)
 80026fc:	689b      	ldr	r3, [r3, #8]
 80026fe:	f043 0380 	orr.w	r3, r3, #128	; 0x80
 8002702:	6093      	str	r3, [r2, #8]
				break;
 8002704:	e334      	b.n	8002d70 <GPIO_VidPin_Mode_Output+0x1b20>
						else if(Copy_u8Speed==High_Speed){/*Enable Compensation Cell*/Set_Bit(GPIO_C->OSPEEDR,GPIO_OSPEEDR_3_HI);}
 8002706:	793b      	ldrb	r3, [r7, #4]
 8002708:	2b07      	cmp	r3, #7
 800270a:	f040 8331 	bne.w	8002d70 <GPIO_VidPin_Mode_Output+0x1b20>
 800270e:	4a5c      	ldr	r2, [pc, #368]	; (8002880 <GPIO_VidPin_Mode_Output+0x1630>)
 8002710:	4b5b      	ldr	r3, [pc, #364]	; (8002880 <GPIO_VidPin_Mode_Output+0x1630>)
 8002712:	689b      	ldr	r3, [r3, #8]
 8002714:	f043 03c0 	orr.w	r3, r3, #192	; 0xc0
 8002718:	6093      	str	r3, [r2, #8]
				break;
 800271a:	e329      	b.n	8002d70 <GPIO_VidPin_Mode_Output+0x1b20>
				case (Pin_4):
						/*Select Output Type*/
						if(Copy_u8Type==Push_Pull){Clear_Bit(GPIO_C->OTYPER,GPIO_OTYPER_4);}
 800271c:	797b      	ldrb	r3, [r7, #5]
 800271e:	2b08      	cmp	r3, #8
 8002720:	d106      	bne.n	8002730 <GPIO_VidPin_Mode_Output+0x14e0>
 8002722:	4a57      	ldr	r2, [pc, #348]	; (8002880 <GPIO_VidPin_Mode_Output+0x1630>)
 8002724:	4b56      	ldr	r3, [pc, #344]	; (8002880 <GPIO_VidPin_Mode_Output+0x1630>)
 8002726:	685b      	ldr	r3, [r3, #4]
 8002728:	f023 0310 	bic.w	r3, r3, #16
 800272c:	6053      	str	r3, [r2, #4]
 800272e:	e00e      	b.n	800274e <GPIO_VidPin_Mode_Output+0x14fe>
						else if (Copy_u8Type==Open_Drain)
 8002730:	797b      	ldrb	r3, [r7, #5]
 8002732:	2b09      	cmp	r3, #9
 8002734:	d10b      	bne.n	800274e <GPIO_VidPin_Mode_Output+0x14fe>
						{
							Set_Bit(GPIO_C->OTYPER,GPIO_OTYPER_4);
 8002736:	4a52      	ldr	r2, [pc, #328]	; (8002880 <GPIO_VidPin_Mode_Output+0x1630>)
 8002738:	4b51      	ldr	r3, [pc, #324]	; (8002880 <GPIO_VidPin_Mode_Output+0x1630>)
 800273a:	685b      	ldr	r3, [r3, #4]
 800273c:	f043 0310 	orr.w	r3, r3, #16
 8002740:	6053      	str	r3, [r2, #4]
						#if Open_Drain_Pull == Pull_Up
							Set_Bit(GPIO_C->PUPDR,GPIO_PUPDR_4_Pull_Up);
 8002742:	4a4f      	ldr	r2, [pc, #316]	; (8002880 <GPIO_VidPin_Mode_Output+0x1630>)
 8002744:	4b4e      	ldr	r3, [pc, #312]	; (8002880 <GPIO_VidPin_Mode_Output+0x1630>)
 8002746:	68db      	ldr	r3, [r3, #12]
 8002748:	f443 7380 	orr.w	r3, r3, #256	; 0x100
 800274c:	60d3      	str	r3, [r2, #12]
						#elif Open_Drain_Pull == Pull_Down
							Set_Bit(GPIO_C->PUPDR,GPIO_PUPDR_4_Pull_Down);
						#endif
						}
						/*Select Operating Speed*/
						if(Copy_u8Speed==Low_Speed){Clear_Bit(GPIO_C->OSPEEDR,GPIO_OSPEEDR_4_HI);}
 800274e:	793b      	ldrb	r3, [r7, #4]
 8002750:	2b04      	cmp	r3, #4
 8002752:	d106      	bne.n	8002762 <GPIO_VidPin_Mode_Output+0x1512>
 8002754:	4a4a      	ldr	r2, [pc, #296]	; (8002880 <GPIO_VidPin_Mode_Output+0x1630>)
 8002756:	4b4a      	ldr	r3, [pc, #296]	; (8002880 <GPIO_VidPin_Mode_Output+0x1630>)
 8002758:	689b      	ldr	r3, [r3, #8]
 800275a:	f423 7340 	bic.w	r3, r3, #768	; 0x300
 800275e:	6093      	str	r3, [r2, #8]
						else if(Copy_u8Speed==Medium_Speed){Set_Bit(GPIO_C->OSPEEDR,GPIO_OSPEEDR_4_Medium);}
						else if(Copy_u8Speed==Fast_Speed){/*Enable Compensation Cell*/Set_Bit(GPIO_C->OSPEEDR,GPIO_OSPEEDR_4_Fast);}
						else if(Copy_u8Speed==High_Speed){/*Enable Compensation Cell*/Set_Bit(GPIO_C->OSPEEDR,GPIO_OSPEEDR_4_HI);}
				break;
 8002760:	e309      	b.n	8002d76 <GPIO_VidPin_Mode_Output+0x1b26>
						else if(Copy_u8Speed==Medium_Speed){Set_Bit(GPIO_C->OSPEEDR,GPIO_OSPEEDR_4_Medium);}
 8002762:	793b      	ldrb	r3, [r7, #4]
 8002764:	2b05      	cmp	r3, #5
 8002766:	d106      	bne.n	8002776 <GPIO_VidPin_Mode_Output+0x1526>
 8002768:	4a45      	ldr	r2, [pc, #276]	; (8002880 <GPIO_VidPin_Mode_Output+0x1630>)
 800276a:	4b45      	ldr	r3, [pc, #276]	; (8002880 <GPIO_VidPin_Mode_Output+0x1630>)
 800276c:	689b      	ldr	r3, [r3, #8]
 800276e:	f443 7380 	orr.w	r3, r3, #256	; 0x100
 8002772:	6093      	str	r3, [r2, #8]
				break;
 8002774:	e2ff      	b.n	8002d76 <GPIO_VidPin_Mode_Output+0x1b26>
						else if(Copy_u8Speed==Fast_Speed){/*Enable Compensation Cell*/Set_Bit(GPIO_C->OSPEEDR,GPIO_OSPEEDR_4_Fast);}
 8002776:	793b      	ldrb	r3, [r7, #4]
 8002778:	2b06      	cmp	r3, #6
 800277a:	d106      	bne.n	800278a <GPIO_VidPin_Mode_Output+0x153a>
 800277c:	4a40      	ldr	r2, [pc, #256]	; (8002880 <GPIO_VidPin_Mode_Output+0x1630>)
 800277e:	4b40      	ldr	r3, [pc, #256]	; (8002880 <GPIO_VidPin_Mode_Output+0x1630>)
 8002780:	689b      	ldr	r3, [r3, #8]
 8002782:	f443 7300 	orr.w	r3, r3, #512	; 0x200
 8002786:	6093      	str	r3, [r2, #8]
				break;
 8002788:	e2f5      	b.n	8002d76 <GPIO_VidPin_Mode_Output+0x1b26>
						else if(Copy_u8Speed==High_Speed){/*Enable Compensation Cell*/Set_Bit(GPIO_C->OSPEEDR,GPIO_OSPEEDR_4_HI);}
 800278a:	793b      	ldrb	r3, [r7, #4]
 800278c:	2b07      	cmp	r3, #7
 800278e:	f040 82f2 	bne.w	8002d76 <GPIO_VidPin_Mode_Output+0x1b26>
 8002792:	4a3b      	ldr	r2, [pc, #236]	; (8002880 <GPIO_VidPin_Mode_Output+0x1630>)
 8002794:	4b3a      	ldr	r3, [pc, #232]	; (8002880 <GPIO_VidPin_Mode_Output+0x1630>)
 8002796:	689b      	ldr	r3, [r3, #8]
 8002798:	f443 7340 	orr.w	r3, r3, #768	; 0x300
 800279c:	6093      	str	r3, [r2, #8]
				break;
 800279e:	e2ea      	b.n	8002d76 <GPIO_VidPin_Mode_Output+0x1b26>
				case (Pin_5):
						/*Select Output Type*/
						if(Copy_u8Type==Push_Pull){Clear_Bit(GPIO_C->OTYPER,GPIO_OTYPER_5);}
 80027a0:	797b      	ldrb	r3, [r7, #5]
 80027a2:	2b08      	cmp	r3, #8
 80027a4:	d106      	bne.n	80027b4 <GPIO_VidPin_Mode_Output+0x1564>
 80027a6:	4a36      	ldr	r2, [pc, #216]	; (8002880 <GPIO_VidPin_Mode_Output+0x1630>)
 80027a8:	4b35      	ldr	r3, [pc, #212]	; (8002880 <GPIO_VidPin_Mode_Output+0x1630>)
 80027aa:	685b      	ldr	r3, [r3, #4]
 80027ac:	f023 0320 	bic.w	r3, r3, #32
 80027b0:	6053      	str	r3, [r2, #4]
 80027b2:	e00e      	b.n	80027d2 <GPIO_VidPin_Mode_Output+0x1582>
						else if (Copy_u8Type==Open_Drain)
 80027b4:	797b      	ldrb	r3, [r7, #5]
 80027b6:	2b09      	cmp	r3, #9
 80027b8:	d10b      	bne.n	80027d2 <GPIO_VidPin_Mode_Output+0x1582>
						{
							Set_Bit(GPIO_C->OTYPER,GPIO_OTYPER_5);
 80027ba:	4a31      	ldr	r2, [pc, #196]	; (8002880 <GPIO_VidPin_Mode_Output+0x1630>)
 80027bc:	4b30      	ldr	r3, [pc, #192]	; (8002880 <GPIO_VidPin_Mode_Output+0x1630>)
 80027be:	685b      	ldr	r3, [r3, #4]
 80027c0:	f043 0320 	orr.w	r3, r3, #32
 80027c4:	6053      	str	r3, [r2, #4]
						#if Open_Drain_Pull == Pull_Up
							Set_Bit(GPIO_C->PUPDR,GPIO_PUPDR_5_Pull_Up);
 80027c6:	4a2e      	ldr	r2, [pc, #184]	; (8002880 <GPIO_VidPin_Mode_Output+0x1630>)
 80027c8:	4b2d      	ldr	r3, [pc, #180]	; (8002880 <GPIO_VidPin_Mode_Output+0x1630>)
 80027ca:	68db      	ldr	r3, [r3, #12]
 80027cc:	f443 6380 	orr.w	r3, r3, #1024	; 0x400
 80027d0:	60d3      	str	r3, [r2, #12]
						#elif Open_Drain_Pull == Pull_Down
							Set_Bit(GPIO_C->PUPDR,GPIO_PUPDR_5_Pull_Down);
						#endif
						}
						/*Select Operating Speed*/
						if(Copy_u8Speed==Low_Speed){Clear_Bit(GPIO_C->OSPEEDR,GPIO_OSPEEDR_5_HI);}
 80027d2:	793b      	ldrb	r3, [r7, #4]
 80027d4:	2b04      	cmp	r3, #4
 80027d6:	d106      	bne.n	80027e6 <GPIO_VidPin_Mode_Output+0x1596>
 80027d8:	4a29      	ldr	r2, [pc, #164]	; (8002880 <GPIO_VidPin_Mode_Output+0x1630>)
 80027da:	4b29      	ldr	r3, [pc, #164]	; (8002880 <GPIO_VidPin_Mode_Output+0x1630>)
 80027dc:	689b      	ldr	r3, [r3, #8]
 80027de:	f423 6340 	bic.w	r3, r3, #3072	; 0xc00
 80027e2:	6093      	str	r3, [r2, #8]
						else if(Copy_u8Speed==Medium_Speed){Set_Bit(GPIO_C->OSPEEDR,GPIO_OSPEEDR_5_Medium);}
						else if(Copy_u8Speed==Fast_Speed){/*Enable Compensation Cell*/Set_Bit(GPIO_C->OSPEEDR,GPIO_OSPEEDR_5_Fast);}
						else if(Copy_u8Speed==High_Speed){/*Enable Compensation Cell*/Set_Bit(GPIO_C->OSPEEDR,GPIO_OSPEEDR_5_HI);}
				break;
 80027e4:	e2ca      	b.n	8002d7c <GPIO_VidPin_Mode_Output+0x1b2c>
						else if(Copy_u8Speed==Medium_Speed){Set_Bit(GPIO_C->OSPEEDR,GPIO_OSPEEDR_5_Medium);}
 80027e6:	793b      	ldrb	r3, [r7, #4]
 80027e8:	2b05      	cmp	r3, #5
 80027ea:	d106      	bne.n	80027fa <GPIO_VidPin_Mode_Output+0x15aa>
 80027ec:	4a24      	ldr	r2, [pc, #144]	; (8002880 <GPIO_VidPin_Mode_Output+0x1630>)
 80027ee:	4b24      	ldr	r3, [pc, #144]	; (8002880 <GPIO_VidPin_Mode_Output+0x1630>)
 80027f0:	689b      	ldr	r3, [r3, #8]
 80027f2:	f443 6380 	orr.w	r3, r3, #1024	; 0x400
 80027f6:	6093      	str	r3, [r2, #8]
				break;
 80027f8:	e2c0      	b.n	8002d7c <GPIO_VidPin_Mode_Output+0x1b2c>
						else if(Copy_u8Speed==Fast_Speed){/*Enable Compensation Cell*/Set_Bit(GPIO_C->OSPEEDR,GPIO_OSPEEDR_5_Fast);}
 80027fa:	793b      	ldrb	r3, [r7, #4]
 80027fc:	2b06      	cmp	r3, #6
 80027fe:	d106      	bne.n	800280e <GPIO_VidPin_Mode_Output+0x15be>
 8002800:	4a1f      	ldr	r2, [pc, #124]	; (8002880 <GPIO_VidPin_Mode_Output+0x1630>)
 8002802:	4b1f      	ldr	r3, [pc, #124]	; (8002880 <GPIO_VidPin_Mode_Output+0x1630>)
 8002804:	689b      	ldr	r3, [r3, #8]
 8002806:	f443 6300 	orr.w	r3, r3, #2048	; 0x800
 800280a:	6093      	str	r3, [r2, #8]
				break;
 800280c:	e2b6      	b.n	8002d7c <GPIO_VidPin_Mode_Output+0x1b2c>
						else if(Copy_u8Speed==High_Speed){/*Enable Compensation Cell*/Set_Bit(GPIO_C->OSPEEDR,GPIO_OSPEEDR_5_HI);}
 800280e:	793b      	ldrb	r3, [r7, #4]
 8002810:	2b07      	cmp	r3, #7
 8002812:	f040 82b3 	bne.w	8002d7c <GPIO_VidPin_Mode_Output+0x1b2c>
 8002816:	4a1a      	ldr	r2, [pc, #104]	; (8002880 <GPIO_VidPin_Mode_Output+0x1630>)
 8002818:	4b19      	ldr	r3, [pc, #100]	; (8002880 <GPIO_VidPin_Mode_Output+0x1630>)
 800281a:	689b      	ldr	r3, [r3, #8]
 800281c:	f443 6340 	orr.w	r3, r3, #3072	; 0xc00
 8002820:	6093      	str	r3, [r2, #8]
				break;
 8002822:	e2ab      	b.n	8002d7c <GPIO_VidPin_Mode_Output+0x1b2c>
				case (Pin_6):
						/*Select Output Type*/
						if(Copy_u8Type==Push_Pull){Clear_Bit(GPIO_C->OTYPER,GPIO_OTYPER_6);}
 8002824:	797b      	ldrb	r3, [r7, #5]
 8002826:	2b08      	cmp	r3, #8
 8002828:	d106      	bne.n	8002838 <GPIO_VidPin_Mode_Output+0x15e8>
 800282a:	4a15      	ldr	r2, [pc, #84]	; (8002880 <GPIO_VidPin_Mode_Output+0x1630>)
 800282c:	4b14      	ldr	r3, [pc, #80]	; (8002880 <GPIO_VidPin_Mode_Output+0x1630>)
 800282e:	685b      	ldr	r3, [r3, #4]
 8002830:	f023 0340 	bic.w	r3, r3, #64	; 0x40
 8002834:	6053      	str	r3, [r2, #4]
 8002836:	e00e      	b.n	8002856 <GPIO_VidPin_Mode_Output+0x1606>
						else if (Copy_u8Type==Open_Drain)
 8002838:	797b      	ldrb	r3, [r7, #5]
 800283a:	2b09      	cmp	r3, #9
 800283c:	d10b      	bne.n	8002856 <GPIO_VidPin_Mode_Output+0x1606>
						{
							Set_Bit(GPIO_C->OTYPER,GPIO_OTYPER_6);
 800283e:	4a10      	ldr	r2, [pc, #64]	; (8002880 <GPIO_VidPin_Mode_Output+0x1630>)
 8002840:	4b0f      	ldr	r3, [pc, #60]	; (8002880 <GPIO_VidPin_Mode_Output+0x1630>)
 8002842:	685b      	ldr	r3, [r3, #4]
 8002844:	f043 0340 	orr.w	r3, r3, #64	; 0x40
 8002848:	6053      	str	r3, [r2, #4]
						#if Open_Drain_Pull == Pull_Up
							Set_Bit(GPIO_C->PUPDR,GPIO_PUPDR_6_Pull_Up);
 800284a:	4a0d      	ldr	r2, [pc, #52]	; (8002880 <GPIO_VidPin_Mode_Output+0x1630>)
 800284c:	4b0c      	ldr	r3, [pc, #48]	; (8002880 <GPIO_VidPin_Mode_Output+0x1630>)
 800284e:	68db      	ldr	r3, [r3, #12]
 8002850:	f443 5380 	orr.w	r3, r3, #4096	; 0x1000
 8002854:	60d3      	str	r3, [r2, #12]
						#elif Open_Drain_Pull == Pull_Down
							Set_Bit(GPIO_C->PUPDR,GPIO_PUPDR_6_Pull_Down);
						#endif
						}
						/*Select Operating Speed*/
						if(Copy_u8Speed==Low_Speed){Clear_Bit(GPIO_C->OSPEEDR,GPIO_OSPEEDR_6_HI);}
 8002856:	793b      	ldrb	r3, [r7, #4]
 8002858:	2b04      	cmp	r3, #4
 800285a:	d106      	bne.n	800286a <GPIO_VidPin_Mode_Output+0x161a>
 800285c:	4a08      	ldr	r2, [pc, #32]	; (8002880 <GPIO_VidPin_Mode_Output+0x1630>)
 800285e:	4b08      	ldr	r3, [pc, #32]	; (8002880 <GPIO_VidPin_Mode_Output+0x1630>)
 8002860:	689b      	ldr	r3, [r3, #8]
 8002862:	f423 5340 	bic.w	r3, r3, #12288	; 0x3000
 8002866:	6093      	str	r3, [r2, #8]
						else if(Copy_u8Speed==Medium_Speed){Set_Bit(GPIO_C->OSPEEDR,GPIO_OSPEEDR_6_Medium);}
						else if(Copy_u8Speed==Fast_Speed){/*Enable Compensation Cell*/Set_Bit(GPIO_C->OSPEEDR,GPIO_OSPEEDR_6_Fast);}
						else if(Copy_u8Speed==High_Speed){/*Enable Compensation Cell*/Set_Bit(GPIO_C->OSPEEDR,GPIO_OSPEEDR_6_HI);}
				break;
 8002868:	e28b      	b.n	8002d82 <GPIO_VidPin_Mode_Output+0x1b32>
						else if(Copy_u8Speed==Medium_Speed){Set_Bit(GPIO_C->OSPEEDR,GPIO_OSPEEDR_6_Medium);}
 800286a:	793b      	ldrb	r3, [r7, #4]
 800286c:	2b05      	cmp	r3, #5
 800286e:	d109      	bne.n	8002884 <GPIO_VidPin_Mode_Output+0x1634>
 8002870:	4a03      	ldr	r2, [pc, #12]	; (8002880 <GPIO_VidPin_Mode_Output+0x1630>)
 8002872:	4b03      	ldr	r3, [pc, #12]	; (8002880 <GPIO_VidPin_Mode_Output+0x1630>)
 8002874:	689b      	ldr	r3, [r3, #8]
 8002876:	f443 5380 	orr.w	r3, r3, #4096	; 0x1000
 800287a:	6093      	str	r3, [r2, #8]
				break;
 800287c:	e281      	b.n	8002d82 <GPIO_VidPin_Mode_Output+0x1b32>
 800287e:	bf00      	nop
 8002880:	40020800 	.word	0x40020800
						else if(Copy_u8Speed==Fast_Speed){/*Enable Compensation Cell*/Set_Bit(GPIO_C->OSPEEDR,GPIO_OSPEEDR_6_Fast);}
 8002884:	793b      	ldrb	r3, [r7, #4]
 8002886:	2b06      	cmp	r3, #6
 8002888:	d106      	bne.n	8002898 <GPIO_VidPin_Mode_Output+0x1648>
 800288a:	4a92      	ldr	r2, [pc, #584]	; (8002ad4 <GPIO_VidPin_Mode_Output+0x1884>)
 800288c:	4b91      	ldr	r3, [pc, #580]	; (8002ad4 <GPIO_VidPin_Mode_Output+0x1884>)
 800288e:	689b      	ldr	r3, [r3, #8]
 8002890:	f443 5300 	orr.w	r3, r3, #8192	; 0x2000
 8002894:	6093      	str	r3, [r2, #8]
				break;
 8002896:	e274      	b.n	8002d82 <GPIO_VidPin_Mode_Output+0x1b32>
						else if(Copy_u8Speed==High_Speed){/*Enable Compensation Cell*/Set_Bit(GPIO_C->OSPEEDR,GPIO_OSPEEDR_6_HI);}
 8002898:	793b      	ldrb	r3, [r7, #4]
 800289a:	2b07      	cmp	r3, #7
 800289c:	f040 8271 	bne.w	8002d82 <GPIO_VidPin_Mode_Output+0x1b32>
 80028a0:	4a8c      	ldr	r2, [pc, #560]	; (8002ad4 <GPIO_VidPin_Mode_Output+0x1884>)
 80028a2:	4b8c      	ldr	r3, [pc, #560]	; (8002ad4 <GPIO_VidPin_Mode_Output+0x1884>)
 80028a4:	689b      	ldr	r3, [r3, #8]
 80028a6:	f443 5340 	orr.w	r3, r3, #12288	; 0x3000
 80028aa:	6093      	str	r3, [r2, #8]
				break;
 80028ac:	e269      	b.n	8002d82 <GPIO_VidPin_Mode_Output+0x1b32>
				case (Pin_7):
						/*Select Output Type*/
						if(Copy_u8Type==Push_Pull){Clear_Bit(GPIO_C->OTYPER,GPIO_OTYPER_7);}
 80028ae:	797b      	ldrb	r3, [r7, #5]
 80028b0:	2b08      	cmp	r3, #8
 80028b2:	d106      	bne.n	80028c2 <GPIO_VidPin_Mode_Output+0x1672>
 80028b4:	4a87      	ldr	r2, [pc, #540]	; (8002ad4 <GPIO_VidPin_Mode_Output+0x1884>)
 80028b6:	4b87      	ldr	r3, [pc, #540]	; (8002ad4 <GPIO_VidPin_Mode_Output+0x1884>)
 80028b8:	685b      	ldr	r3, [r3, #4]
 80028ba:	f023 0380 	bic.w	r3, r3, #128	; 0x80
 80028be:	6053      	str	r3, [r2, #4]
 80028c0:	e00e      	b.n	80028e0 <GPIO_VidPin_Mode_Output+0x1690>
						else if (Copy_u8Type==Open_Drain)
 80028c2:	797b      	ldrb	r3, [r7, #5]
 80028c4:	2b09      	cmp	r3, #9
 80028c6:	d10b      	bne.n	80028e0 <GPIO_VidPin_Mode_Output+0x1690>
						{
							Set_Bit(GPIO_C->OTYPER,GPIO_OTYPER_7);
 80028c8:	4a82      	ldr	r2, [pc, #520]	; (8002ad4 <GPIO_VidPin_Mode_Output+0x1884>)
 80028ca:	4b82      	ldr	r3, [pc, #520]	; (8002ad4 <GPIO_VidPin_Mode_Output+0x1884>)
 80028cc:	685b      	ldr	r3, [r3, #4]
 80028ce:	f043 0380 	orr.w	r3, r3, #128	; 0x80
 80028d2:	6053      	str	r3, [r2, #4]
						#if Open_Drain_Pull == Pull_Up
							Set_Bit(GPIO_C->PUPDR,GPIO_PUPDR_7_Pull_Up);
 80028d4:	4a7f      	ldr	r2, [pc, #508]	; (8002ad4 <GPIO_VidPin_Mode_Output+0x1884>)
 80028d6:	4b7f      	ldr	r3, [pc, #508]	; (8002ad4 <GPIO_VidPin_Mode_Output+0x1884>)
 80028d8:	68db      	ldr	r3, [r3, #12]
 80028da:	f443 4380 	orr.w	r3, r3, #16384	; 0x4000
 80028de:	60d3      	str	r3, [r2, #12]
						#elif Open_Drain_Pull == Pull_Down
							Set_Bit(GPIO_C->PUPDR,GPIO_PUPDR_7_Pull_Down);
						#endif
						}
						/*Select Operating Speed*/
						if(Copy_u8Speed==Low_Speed){Clear_Bit(GPIO_C->OSPEEDR,GPIO_OSPEEDR_7_HI);}
 80028e0:	793b      	ldrb	r3, [r7, #4]
 80028e2:	2b04      	cmp	r3, #4
 80028e4:	d106      	bne.n	80028f4 <GPIO_VidPin_Mode_Output+0x16a4>
 80028e6:	4a7b      	ldr	r2, [pc, #492]	; (8002ad4 <GPIO_VidPin_Mode_Output+0x1884>)
 80028e8:	4b7a      	ldr	r3, [pc, #488]	; (8002ad4 <GPIO_VidPin_Mode_Output+0x1884>)
 80028ea:	689b      	ldr	r3, [r3, #8]
 80028ec:	f423 4340 	bic.w	r3, r3, #49152	; 0xc000
 80028f0:	6093      	str	r3, [r2, #8]
						else if(Copy_u8Speed==Medium_Speed){Set_Bit(GPIO_C->OSPEEDR,GPIO_OSPEEDR_7_Medium);}
						else if(Copy_u8Speed==Fast_Speed){/*Enable Compensation Cell*/Set_Bit(GPIO_C->OSPEEDR,GPIO_OSPEEDR_7_Fast);}
						else if(Copy_u8Speed==High_Speed){/*Enable Compensation Cell*/Set_Bit(GPIO_C->OSPEEDR,GPIO_OSPEEDR_7_HI);}
				break;
 80028f2:	e249      	b.n	8002d88 <GPIO_VidPin_Mode_Output+0x1b38>
						else if(Copy_u8Speed==Medium_Speed){Set_Bit(GPIO_C->OSPEEDR,GPIO_OSPEEDR_7_Medium);}
 80028f4:	793b      	ldrb	r3, [r7, #4]
 80028f6:	2b05      	cmp	r3, #5
 80028f8:	d106      	bne.n	8002908 <GPIO_VidPin_Mode_Output+0x16b8>
 80028fa:	4a76      	ldr	r2, [pc, #472]	; (8002ad4 <GPIO_VidPin_Mode_Output+0x1884>)
 80028fc:	4b75      	ldr	r3, [pc, #468]	; (8002ad4 <GPIO_VidPin_Mode_Output+0x1884>)
 80028fe:	689b      	ldr	r3, [r3, #8]
 8002900:	f443 4380 	orr.w	r3, r3, #16384	; 0x4000
 8002904:	6093      	str	r3, [r2, #8]
				break;
 8002906:	e23f      	b.n	8002d88 <GPIO_VidPin_Mode_Output+0x1b38>
						else if(Copy_u8Speed==Fast_Speed){/*Enable Compensation Cell*/Set_Bit(GPIO_C->OSPEEDR,GPIO_OSPEEDR_7_Fast);}
 8002908:	793b      	ldrb	r3, [r7, #4]
 800290a:	2b06      	cmp	r3, #6
 800290c:	d106      	bne.n	800291c <GPIO_VidPin_Mode_Output+0x16cc>
 800290e:	4a71      	ldr	r2, [pc, #452]	; (8002ad4 <GPIO_VidPin_Mode_Output+0x1884>)
 8002910:	4b70      	ldr	r3, [pc, #448]	; (8002ad4 <GPIO_VidPin_Mode_Output+0x1884>)
 8002912:	689b      	ldr	r3, [r3, #8]
 8002914:	f443 4300 	orr.w	r3, r3, #32768	; 0x8000
 8002918:	6093      	str	r3, [r2, #8]
				break;
 800291a:	e235      	b.n	8002d88 <GPIO_VidPin_Mode_Output+0x1b38>
						else if(Copy_u8Speed==High_Speed){/*Enable Compensation Cell*/Set_Bit(GPIO_C->OSPEEDR,GPIO_OSPEEDR_7_HI);}
 800291c:	793b      	ldrb	r3, [r7, #4]
 800291e:	2b07      	cmp	r3, #7
 8002920:	f040 8232 	bne.w	8002d88 <GPIO_VidPin_Mode_Output+0x1b38>
 8002924:	4a6b      	ldr	r2, [pc, #428]	; (8002ad4 <GPIO_VidPin_Mode_Output+0x1884>)
 8002926:	4b6b      	ldr	r3, [pc, #428]	; (8002ad4 <GPIO_VidPin_Mode_Output+0x1884>)
 8002928:	689b      	ldr	r3, [r3, #8]
 800292a:	f443 4340 	orr.w	r3, r3, #49152	; 0xc000
 800292e:	6093      	str	r3, [r2, #8]
				break;
 8002930:	e22a      	b.n	8002d88 <GPIO_VidPin_Mode_Output+0x1b38>
				case (Pin_8):
						/*Select Output Type*/
						if(Copy_u8Type==Push_Pull){Clear_Bit(GPIO_C->OTYPER,GPIO_OTYPER_8);}
 8002932:	797b      	ldrb	r3, [r7, #5]
 8002934:	2b08      	cmp	r3, #8
 8002936:	d106      	bne.n	8002946 <GPIO_VidPin_Mode_Output+0x16f6>
 8002938:	4a66      	ldr	r2, [pc, #408]	; (8002ad4 <GPIO_VidPin_Mode_Output+0x1884>)
 800293a:	4b66      	ldr	r3, [pc, #408]	; (8002ad4 <GPIO_VidPin_Mode_Output+0x1884>)
 800293c:	685b      	ldr	r3, [r3, #4]
 800293e:	f423 7380 	bic.w	r3, r3, #256	; 0x100
 8002942:	6053      	str	r3, [r2, #4]
 8002944:	e00e      	b.n	8002964 <GPIO_VidPin_Mode_Output+0x1714>
						else if (Copy_u8Type==Open_Drain)
 8002946:	797b      	ldrb	r3, [r7, #5]
 8002948:	2b09      	cmp	r3, #9
 800294a:	d10b      	bne.n	8002964 <GPIO_VidPin_Mode_Output+0x1714>
						{
							Set_Bit(GPIO_C->OTYPER,GPIO_OTYPER_8);
 800294c:	4a61      	ldr	r2, [pc, #388]	; (8002ad4 <GPIO_VidPin_Mode_Output+0x1884>)
 800294e:	4b61      	ldr	r3, [pc, #388]	; (8002ad4 <GPIO_VidPin_Mode_Output+0x1884>)
 8002950:	685b      	ldr	r3, [r3, #4]
 8002952:	f443 7380 	orr.w	r3, r3, #256	; 0x100
 8002956:	6053      	str	r3, [r2, #4]
						#if Open_Drain_Pull == Pull_Up
							Set_Bit(GPIO_C->PUPDR,GPIO_PUPDR_8_Pull_Up);
 8002958:	4a5e      	ldr	r2, [pc, #376]	; (8002ad4 <GPIO_VidPin_Mode_Output+0x1884>)
 800295a:	4b5e      	ldr	r3, [pc, #376]	; (8002ad4 <GPIO_VidPin_Mode_Output+0x1884>)
 800295c:	68db      	ldr	r3, [r3, #12]
 800295e:	f443 3380 	orr.w	r3, r3, #65536	; 0x10000
 8002962:	60d3      	str	r3, [r2, #12]
						#elif Open_Drain_Pull == Pull_Down
							Set_Bit(GPIO_C->PUPDR,GPIO_PUPDR_8_Pull_Down);
						#endif
						}
						/*Select Operating Speed*/
						if(Copy_u8Speed==Low_Speed){Clear_Bit(GPIO_C->OSPEEDR,GPIO_OSPEEDR_8_HI);}
 8002964:	793b      	ldrb	r3, [r7, #4]
 8002966:	2b04      	cmp	r3, #4
 8002968:	d106      	bne.n	8002978 <GPIO_VidPin_Mode_Output+0x1728>
 800296a:	4a5a      	ldr	r2, [pc, #360]	; (8002ad4 <GPIO_VidPin_Mode_Output+0x1884>)
 800296c:	4b59      	ldr	r3, [pc, #356]	; (8002ad4 <GPIO_VidPin_Mode_Output+0x1884>)
 800296e:	689b      	ldr	r3, [r3, #8]
 8002970:	f423 3340 	bic.w	r3, r3, #196608	; 0x30000
 8002974:	6093      	str	r3, [r2, #8]
						else if(Copy_u8Speed==Medium_Speed){Set_Bit(GPIO_C->OSPEEDR,GPIO_OSPEEDR_8_Medium);}
						else if(Copy_u8Speed==Fast_Speed){/*Enable Compensation Cell*/Set_Bit(GPIO_C->OSPEEDR,GPIO_OSPEEDR_8_Fast);}
						else if(Copy_u8Speed==High_Speed){/*Enable Compensation Cell*/Set_Bit(GPIO_C->OSPEEDR,GPIO_OSPEEDR_8_HI);}
				break;
 8002976:	e20a      	b.n	8002d8e <GPIO_VidPin_Mode_Output+0x1b3e>
						else if(Copy_u8Speed==Medium_Speed){Set_Bit(GPIO_C->OSPEEDR,GPIO_OSPEEDR_8_Medium);}
 8002978:	793b      	ldrb	r3, [r7, #4]
 800297a:	2b05      	cmp	r3, #5
 800297c:	d106      	bne.n	800298c <GPIO_VidPin_Mode_Output+0x173c>
 800297e:	4a55      	ldr	r2, [pc, #340]	; (8002ad4 <GPIO_VidPin_Mode_Output+0x1884>)
 8002980:	4b54      	ldr	r3, [pc, #336]	; (8002ad4 <GPIO_VidPin_Mode_Output+0x1884>)
 8002982:	689b      	ldr	r3, [r3, #8]
 8002984:	f443 3380 	orr.w	r3, r3, #65536	; 0x10000
 8002988:	6093      	str	r3, [r2, #8]
				break;
 800298a:	e200      	b.n	8002d8e <GPIO_VidPin_Mode_Output+0x1b3e>
						else if(Copy_u8Speed==Fast_Speed){/*Enable Compensation Cell*/Set_Bit(GPIO_C->OSPEEDR,GPIO_OSPEEDR_8_Fast);}
 800298c:	793b      	ldrb	r3, [r7, #4]
 800298e:	2b06      	cmp	r3, #6
 8002990:	d106      	bne.n	80029a0 <GPIO_VidPin_Mode_Output+0x1750>
 8002992:	4a50      	ldr	r2, [pc, #320]	; (8002ad4 <GPIO_VidPin_Mode_Output+0x1884>)
 8002994:	4b4f      	ldr	r3, [pc, #316]	; (8002ad4 <GPIO_VidPin_Mode_Output+0x1884>)
 8002996:	689b      	ldr	r3, [r3, #8]
 8002998:	f443 3300 	orr.w	r3, r3, #131072	; 0x20000
 800299c:	6093      	str	r3, [r2, #8]
				break;
 800299e:	e1f6      	b.n	8002d8e <GPIO_VidPin_Mode_Output+0x1b3e>
						else if(Copy_u8Speed==High_Speed){/*Enable Compensation Cell*/Set_Bit(GPIO_C->OSPEEDR,GPIO_OSPEEDR_8_HI);}
 80029a0:	793b      	ldrb	r3, [r7, #4]
 80029a2:	2b07      	cmp	r3, #7
 80029a4:	f040 81f3 	bne.w	8002d8e <GPIO_VidPin_Mode_Output+0x1b3e>
 80029a8:	4a4a      	ldr	r2, [pc, #296]	; (8002ad4 <GPIO_VidPin_Mode_Output+0x1884>)
 80029aa:	4b4a      	ldr	r3, [pc, #296]	; (8002ad4 <GPIO_VidPin_Mode_Output+0x1884>)
 80029ac:	689b      	ldr	r3, [r3, #8]
 80029ae:	f443 3340 	orr.w	r3, r3, #196608	; 0x30000
 80029b2:	6093      	str	r3, [r2, #8]
				break;
 80029b4:	e1eb      	b.n	8002d8e <GPIO_VidPin_Mode_Output+0x1b3e>
				case (Pin_9):
						/*Select Output Type*/
						if(Copy_u8Type==Push_Pull){Clear_Bit(GPIO_C->OTYPER,GPIO_OTYPER_9);}
 80029b6:	797b      	ldrb	r3, [r7, #5]
 80029b8:	2b08      	cmp	r3, #8
 80029ba:	d106      	bne.n	80029ca <GPIO_VidPin_Mode_Output+0x177a>
 80029bc:	4a45      	ldr	r2, [pc, #276]	; (8002ad4 <GPIO_VidPin_Mode_Output+0x1884>)
 80029be:	4b45      	ldr	r3, [pc, #276]	; (8002ad4 <GPIO_VidPin_Mode_Output+0x1884>)
 80029c0:	685b      	ldr	r3, [r3, #4]
 80029c2:	f423 7300 	bic.w	r3, r3, #512	; 0x200
 80029c6:	6053      	str	r3, [r2, #4]
 80029c8:	e00e      	b.n	80029e8 <GPIO_VidPin_Mode_Output+0x1798>
						else if (Copy_u8Type==Open_Drain)
 80029ca:	797b      	ldrb	r3, [r7, #5]
 80029cc:	2b09      	cmp	r3, #9
 80029ce:	d10b      	bne.n	80029e8 <GPIO_VidPin_Mode_Output+0x1798>
						{
							Set_Bit(GPIO_C->OTYPER,GPIO_OTYPER_9);
 80029d0:	4a40      	ldr	r2, [pc, #256]	; (8002ad4 <GPIO_VidPin_Mode_Output+0x1884>)
 80029d2:	4b40      	ldr	r3, [pc, #256]	; (8002ad4 <GPIO_VidPin_Mode_Output+0x1884>)
 80029d4:	685b      	ldr	r3, [r3, #4]
 80029d6:	f443 7300 	orr.w	r3, r3, #512	; 0x200
 80029da:	6053      	str	r3, [r2, #4]
						#if Open_Drain_Pull == Pull_Up
							Set_Bit(GPIO_C->PUPDR,GPIO_PUPDR_9_Pull_Up);
 80029dc:	4a3d      	ldr	r2, [pc, #244]	; (8002ad4 <GPIO_VidPin_Mode_Output+0x1884>)
 80029de:	4b3d      	ldr	r3, [pc, #244]	; (8002ad4 <GPIO_VidPin_Mode_Output+0x1884>)
 80029e0:	68db      	ldr	r3, [r3, #12]
 80029e2:	f443 2380 	orr.w	r3, r3, #262144	; 0x40000
 80029e6:	60d3      	str	r3, [r2, #12]
						#elif Open_Drain_Pull == Pull_Down
							Set_Bit(GPIO_C->PUPDR,GPIO_PUPDR_9_Pull_Down);
						#endif
						}
						/*Select Operating Speed*/
						if(Copy_u8Speed==Low_Speed){Clear_Bit(GPIO_C->OSPEEDR,GPIO_OSPEEDR_9_HI);}
 80029e8:	793b      	ldrb	r3, [r7, #4]
 80029ea:	2b04      	cmp	r3, #4
 80029ec:	d106      	bne.n	80029fc <GPIO_VidPin_Mode_Output+0x17ac>
 80029ee:	4a39      	ldr	r2, [pc, #228]	; (8002ad4 <GPIO_VidPin_Mode_Output+0x1884>)
 80029f0:	4b38      	ldr	r3, [pc, #224]	; (8002ad4 <GPIO_VidPin_Mode_Output+0x1884>)
 80029f2:	689b      	ldr	r3, [r3, #8]
 80029f4:	f423 2340 	bic.w	r3, r3, #786432	; 0xc0000
 80029f8:	6093      	str	r3, [r2, #8]
						else if(Copy_u8Speed==Medium_Speed){Set_Bit(GPIO_C->OSPEEDR,GPIO_OSPEEDR_9_Medium);}
						else if(Copy_u8Speed==Fast_Speed){/*Enable Compensation Cell*/Set_Bit(GPIO_C->OSPEEDR,GPIO_OSPEEDR_9_Fast);}
						else if(Copy_u8Speed==High_Speed){/*Enable Compensation Cell*/Set_Bit(GPIO_C->OSPEEDR,GPIO_OSPEEDR_9_HI);}
				break;
 80029fa:	e1cb      	b.n	8002d94 <GPIO_VidPin_Mode_Output+0x1b44>
						else if(Copy_u8Speed==Medium_Speed){Set_Bit(GPIO_C->OSPEEDR,GPIO_OSPEEDR_9_Medium);}
 80029fc:	793b      	ldrb	r3, [r7, #4]
 80029fe:	2b05      	cmp	r3, #5
 8002a00:	d106      	bne.n	8002a10 <GPIO_VidPin_Mode_Output+0x17c0>
 8002a02:	4a34      	ldr	r2, [pc, #208]	; (8002ad4 <GPIO_VidPin_Mode_Output+0x1884>)
 8002a04:	4b33      	ldr	r3, [pc, #204]	; (8002ad4 <GPIO_VidPin_Mode_Output+0x1884>)
 8002a06:	689b      	ldr	r3, [r3, #8]
 8002a08:	f443 2380 	orr.w	r3, r3, #262144	; 0x40000
 8002a0c:	6093      	str	r3, [r2, #8]
				break;
 8002a0e:	e1c1      	b.n	8002d94 <GPIO_VidPin_Mode_Output+0x1b44>
						else if(Copy_u8Speed==Fast_Speed){/*Enable Compensation Cell*/Set_Bit(GPIO_C->OSPEEDR,GPIO_OSPEEDR_9_Fast);}
 8002a10:	793b      	ldrb	r3, [r7, #4]
 8002a12:	2b06      	cmp	r3, #6
 8002a14:	d106      	bne.n	8002a24 <GPIO_VidPin_Mode_Output+0x17d4>
 8002a16:	4a2f      	ldr	r2, [pc, #188]	; (8002ad4 <GPIO_VidPin_Mode_Output+0x1884>)
 8002a18:	4b2e      	ldr	r3, [pc, #184]	; (8002ad4 <GPIO_VidPin_Mode_Output+0x1884>)
 8002a1a:	689b      	ldr	r3, [r3, #8]
 8002a1c:	f443 2300 	orr.w	r3, r3, #524288	; 0x80000
 8002a20:	6093      	str	r3, [r2, #8]
				break;
 8002a22:	e1b7      	b.n	8002d94 <GPIO_VidPin_Mode_Output+0x1b44>
						else if(Copy_u8Speed==High_Speed){/*Enable Compensation Cell*/Set_Bit(GPIO_C->OSPEEDR,GPIO_OSPEEDR_9_HI);}
 8002a24:	793b      	ldrb	r3, [r7, #4]
 8002a26:	2b07      	cmp	r3, #7
 8002a28:	f040 81b4 	bne.w	8002d94 <GPIO_VidPin_Mode_Output+0x1b44>
 8002a2c:	4a29      	ldr	r2, [pc, #164]	; (8002ad4 <GPIO_VidPin_Mode_Output+0x1884>)
 8002a2e:	4b29      	ldr	r3, [pc, #164]	; (8002ad4 <GPIO_VidPin_Mode_Output+0x1884>)
 8002a30:	689b      	ldr	r3, [r3, #8]
 8002a32:	f443 2340 	orr.w	r3, r3, #786432	; 0xc0000
 8002a36:	6093      	str	r3, [r2, #8]
				break;
 8002a38:	e1ac      	b.n	8002d94 <GPIO_VidPin_Mode_Output+0x1b44>
				case (Pin_10):
						/*Select Output Type*/
						if(Copy_u8Type==Push_Pull){Clear_Bit(GPIO_C->OTYPER,GPIO_OTYPER_10);}
 8002a3a:	797b      	ldrb	r3, [r7, #5]
 8002a3c:	2b08      	cmp	r3, #8
 8002a3e:	d106      	bne.n	8002a4e <GPIO_VidPin_Mode_Output+0x17fe>
 8002a40:	4a24      	ldr	r2, [pc, #144]	; (8002ad4 <GPIO_VidPin_Mode_Output+0x1884>)
 8002a42:	4b24      	ldr	r3, [pc, #144]	; (8002ad4 <GPIO_VidPin_Mode_Output+0x1884>)
 8002a44:	685b      	ldr	r3, [r3, #4]
 8002a46:	f423 6380 	bic.w	r3, r3, #1024	; 0x400
 8002a4a:	6053      	str	r3, [r2, #4]
 8002a4c:	e00e      	b.n	8002a6c <GPIO_VidPin_Mode_Output+0x181c>
						else if (Copy_u8Type==Open_Drain)
 8002a4e:	797b      	ldrb	r3, [r7, #5]
 8002a50:	2b09      	cmp	r3, #9
 8002a52:	d10b      	bne.n	8002a6c <GPIO_VidPin_Mode_Output+0x181c>
						{
							Set_Bit(GPIO_C->OTYPER,GPIO_OTYPER_10);
 8002a54:	4a1f      	ldr	r2, [pc, #124]	; (8002ad4 <GPIO_VidPin_Mode_Output+0x1884>)
 8002a56:	4b1f      	ldr	r3, [pc, #124]	; (8002ad4 <GPIO_VidPin_Mode_Output+0x1884>)
 8002a58:	685b      	ldr	r3, [r3, #4]
 8002a5a:	f443 6380 	orr.w	r3, r3, #1024	; 0x400
 8002a5e:	6053      	str	r3, [r2, #4]
						#if Open_Drain_Pull == Pull_Up
							Set_Bit(GPIO_C->PUPDR,GPIO_PUPDR_10_Pull_Up);
 8002a60:	4a1c      	ldr	r2, [pc, #112]	; (8002ad4 <GPIO_VidPin_Mode_Output+0x1884>)
 8002a62:	4b1c      	ldr	r3, [pc, #112]	; (8002ad4 <GPIO_VidPin_Mode_Output+0x1884>)
 8002a64:	68db      	ldr	r3, [r3, #12]
 8002a66:	f443 1380 	orr.w	r3, r3, #1048576	; 0x100000
 8002a6a:	60d3      	str	r3, [r2, #12]
						#elif Open_Drain_Pull == Pull_Down
							Set_Bit(GPIO_C->PUPDR,GPIO_PUPDR_10_Pull_Down);
						#endif
						}
						/*Select Operating Speed*/
						if(Copy_u8Speed==Low_Speed){Clear_Bit(GPIO_C->OSPEEDR,GPIO_OSPEEDR_10_HI);}
 8002a6c:	793b      	ldrb	r3, [r7, #4]
 8002a6e:	2b04      	cmp	r3, #4
 8002a70:	d106      	bne.n	8002a80 <GPIO_VidPin_Mode_Output+0x1830>
 8002a72:	4a18      	ldr	r2, [pc, #96]	; (8002ad4 <GPIO_VidPin_Mode_Output+0x1884>)
 8002a74:	4b17      	ldr	r3, [pc, #92]	; (8002ad4 <GPIO_VidPin_Mode_Output+0x1884>)
 8002a76:	689b      	ldr	r3, [r3, #8]
 8002a78:	f423 1340 	bic.w	r3, r3, #3145728	; 0x300000
 8002a7c:	6093      	str	r3, [r2, #8]
						else if(Copy_u8Speed==Medium_Speed){Set_Bit(GPIO_C->OSPEEDR,GPIO_OSPEEDR_10_Medium);}
						else if(Copy_u8Speed==Fast_Speed){/*Enable Compensation Cell*/Set_Bit(GPIO_C->OSPEEDR,GPIO_OSPEEDR_10_Fast);}
						else if(Copy_u8Speed==High_Speed){/*Enable Compensation Cell*/Set_Bit(GPIO_C->OSPEEDR,GPIO_OSPEEDR_10_HI);}
				break;
 8002a7e:	e18c      	b.n	8002d9a <GPIO_VidPin_Mode_Output+0x1b4a>
						else if(Copy_u8Speed==Medium_Speed){Set_Bit(GPIO_C->OSPEEDR,GPIO_OSPEEDR_10_Medium);}
 8002a80:	793b      	ldrb	r3, [r7, #4]
 8002a82:	2b05      	cmp	r3, #5
 8002a84:	d106      	bne.n	8002a94 <GPIO_VidPin_Mode_Output+0x1844>
 8002a86:	4a13      	ldr	r2, [pc, #76]	; (8002ad4 <GPIO_VidPin_Mode_Output+0x1884>)
 8002a88:	4b12      	ldr	r3, [pc, #72]	; (8002ad4 <GPIO_VidPin_Mode_Output+0x1884>)
 8002a8a:	689b      	ldr	r3, [r3, #8]
 8002a8c:	f443 1380 	orr.w	r3, r3, #1048576	; 0x100000
 8002a90:	6093      	str	r3, [r2, #8]
				break;
 8002a92:	e182      	b.n	8002d9a <GPIO_VidPin_Mode_Output+0x1b4a>
						else if(Copy_u8Speed==Fast_Speed){/*Enable Compensation Cell*/Set_Bit(GPIO_C->OSPEEDR,GPIO_OSPEEDR_10_Fast);}
 8002a94:	793b      	ldrb	r3, [r7, #4]
 8002a96:	2b06      	cmp	r3, #6
 8002a98:	d106      	bne.n	8002aa8 <GPIO_VidPin_Mode_Output+0x1858>
 8002a9a:	4a0e      	ldr	r2, [pc, #56]	; (8002ad4 <GPIO_VidPin_Mode_Output+0x1884>)
 8002a9c:	4b0d      	ldr	r3, [pc, #52]	; (8002ad4 <GPIO_VidPin_Mode_Output+0x1884>)
 8002a9e:	689b      	ldr	r3, [r3, #8]
 8002aa0:	f443 1300 	orr.w	r3, r3, #2097152	; 0x200000
 8002aa4:	6093      	str	r3, [r2, #8]
				break;
 8002aa6:	e178      	b.n	8002d9a <GPIO_VidPin_Mode_Output+0x1b4a>
						else if(Copy_u8Speed==High_Speed){/*Enable Compensation Cell*/Set_Bit(GPIO_C->OSPEEDR,GPIO_OSPEEDR_10_HI);}
 8002aa8:	793b      	ldrb	r3, [r7, #4]
 8002aaa:	2b07      	cmp	r3, #7
 8002aac:	f040 8175 	bne.w	8002d9a <GPIO_VidPin_Mode_Output+0x1b4a>
 8002ab0:	4a08      	ldr	r2, [pc, #32]	; (8002ad4 <GPIO_VidPin_Mode_Output+0x1884>)
 8002ab2:	4b08      	ldr	r3, [pc, #32]	; (8002ad4 <GPIO_VidPin_Mode_Output+0x1884>)
 8002ab4:	689b      	ldr	r3, [r3, #8]
 8002ab6:	f443 1340 	orr.w	r3, r3, #3145728	; 0x300000
 8002aba:	6093      	str	r3, [r2, #8]
				break;
 8002abc:	e16d      	b.n	8002d9a <GPIO_VidPin_Mode_Output+0x1b4a>
				case (Pin_11):
						/*Select Output Type*/
						if(Copy_u8Type==Push_Pull){Clear_Bit(GPIO_C->OTYPER,GPIO_OTYPER_11);}
 8002abe:	797b      	ldrb	r3, [r7, #5]
 8002ac0:	2b08      	cmp	r3, #8
 8002ac2:	d109      	bne.n	8002ad8 <GPIO_VidPin_Mode_Output+0x1888>
 8002ac4:	4a03      	ldr	r2, [pc, #12]	; (8002ad4 <GPIO_VidPin_Mode_Output+0x1884>)
 8002ac6:	4b03      	ldr	r3, [pc, #12]	; (8002ad4 <GPIO_VidPin_Mode_Output+0x1884>)
 8002ac8:	685b      	ldr	r3, [r3, #4]
 8002aca:	f423 6300 	bic.w	r3, r3, #2048	; 0x800
 8002ace:	6053      	str	r3, [r2, #4]
 8002ad0:	e011      	b.n	8002af6 <GPIO_VidPin_Mode_Output+0x18a6>
 8002ad2:	bf00      	nop
 8002ad4:	40020800 	.word	0x40020800
						else if (Copy_u8Type==Open_Drain)
 8002ad8:	797b      	ldrb	r3, [r7, #5]
 8002ada:	2b09      	cmp	r3, #9
 8002adc:	d10b      	bne.n	8002af6 <GPIO_VidPin_Mode_Output+0x18a6>
						{
							Set_Bit(GPIO_C->OTYPER,GPIO_OTYPER_11);
 8002ade:	4a93      	ldr	r2, [pc, #588]	; (8002d2c <GPIO_VidPin_Mode_Output+0x1adc>)
 8002ae0:	4b92      	ldr	r3, [pc, #584]	; (8002d2c <GPIO_VidPin_Mode_Output+0x1adc>)
 8002ae2:	685b      	ldr	r3, [r3, #4]
 8002ae4:	f443 6300 	orr.w	r3, r3, #2048	; 0x800
 8002ae8:	6053      	str	r3, [r2, #4]
						#if Open_Drain_Pull == Pull_Up
							Set_Bit(GPIO_C->PUPDR,GPIO_PUPDR_11_Pull_Up);
 8002aea:	4a90      	ldr	r2, [pc, #576]	; (8002d2c <GPIO_VidPin_Mode_Output+0x1adc>)
 8002aec:	4b8f      	ldr	r3, [pc, #572]	; (8002d2c <GPIO_VidPin_Mode_Output+0x1adc>)
 8002aee:	68db      	ldr	r3, [r3, #12]
 8002af0:	f443 0380 	orr.w	r3, r3, #4194304	; 0x400000
 8002af4:	60d3      	str	r3, [r2, #12]
						#elif Open_Drain_Pull == Pull_Down
							Set_Bit(GPIO_C->PUPDR,GPIO_PUPDR_11_Pull_Down);
						#endif
						}
						/*Select Operating Speed*/
						if(Copy_u8Speed==Low_Speed){Clear_Bit(GPIO_C->OSPEEDR,GPIO_OSPEEDR_11_HI);}
 8002af6:	793b      	ldrb	r3, [r7, #4]
 8002af8:	2b04      	cmp	r3, #4
 8002afa:	d106      	bne.n	8002b0a <GPIO_VidPin_Mode_Output+0x18ba>
 8002afc:	4a8b      	ldr	r2, [pc, #556]	; (8002d2c <GPIO_VidPin_Mode_Output+0x1adc>)
 8002afe:	4b8b      	ldr	r3, [pc, #556]	; (8002d2c <GPIO_VidPin_Mode_Output+0x1adc>)
 8002b00:	689b      	ldr	r3, [r3, #8]
 8002b02:	f423 0340 	bic.w	r3, r3, #12582912	; 0xc00000
 8002b06:	6093      	str	r3, [r2, #8]
						else if(Copy_u8Speed==Medium_Speed){Set_Bit(GPIO_C->OSPEEDR,GPIO_OSPEEDR_11_Medium);}
						else if(Copy_u8Speed==Fast_Speed){/*Enable Compensation Cell*/Set_Bit(GPIO_C->OSPEEDR,GPIO_OSPEEDR_11_Fast);}
						else if(Copy_u8Speed==High_Speed){/*Enable Compensation Cell*/Set_Bit(GPIO_C->OSPEEDR,GPIO_OSPEEDR_11_HI);}
				break;
 8002b08:	e14a      	b.n	8002da0 <GPIO_VidPin_Mode_Output+0x1b50>
						else if(Copy_u8Speed==Medium_Speed){Set_Bit(GPIO_C->OSPEEDR,GPIO_OSPEEDR_11_Medium);}
 8002b0a:	793b      	ldrb	r3, [r7, #4]
 8002b0c:	2b05      	cmp	r3, #5
 8002b0e:	d106      	bne.n	8002b1e <GPIO_VidPin_Mode_Output+0x18ce>
 8002b10:	4a86      	ldr	r2, [pc, #536]	; (8002d2c <GPIO_VidPin_Mode_Output+0x1adc>)
 8002b12:	4b86      	ldr	r3, [pc, #536]	; (8002d2c <GPIO_VidPin_Mode_Output+0x1adc>)
 8002b14:	689b      	ldr	r3, [r3, #8]
 8002b16:	f443 0380 	orr.w	r3, r3, #4194304	; 0x400000
 8002b1a:	6093      	str	r3, [r2, #8]
				break;
 8002b1c:	e140      	b.n	8002da0 <GPIO_VidPin_Mode_Output+0x1b50>
						else if(Copy_u8Speed==Fast_Speed){/*Enable Compensation Cell*/Set_Bit(GPIO_C->OSPEEDR,GPIO_OSPEEDR_11_Fast);}
 8002b1e:	793b      	ldrb	r3, [r7, #4]
 8002b20:	2b06      	cmp	r3, #6
 8002b22:	d106      	bne.n	8002b32 <GPIO_VidPin_Mode_Output+0x18e2>
 8002b24:	4a81      	ldr	r2, [pc, #516]	; (8002d2c <GPIO_VidPin_Mode_Output+0x1adc>)
 8002b26:	4b81      	ldr	r3, [pc, #516]	; (8002d2c <GPIO_VidPin_Mode_Output+0x1adc>)
 8002b28:	689b      	ldr	r3, [r3, #8]
 8002b2a:	f443 0300 	orr.w	r3, r3, #8388608	; 0x800000
 8002b2e:	6093      	str	r3, [r2, #8]
				break;
 8002b30:	e136      	b.n	8002da0 <GPIO_VidPin_Mode_Output+0x1b50>
						else if(Copy_u8Speed==High_Speed){/*Enable Compensation Cell*/Set_Bit(GPIO_C->OSPEEDR,GPIO_OSPEEDR_11_HI);}
 8002b32:	793b      	ldrb	r3, [r7, #4]
 8002b34:	2b07      	cmp	r3, #7
 8002b36:	f040 8133 	bne.w	8002da0 <GPIO_VidPin_Mode_Output+0x1b50>
 8002b3a:	4a7c      	ldr	r2, [pc, #496]	; (8002d2c <GPIO_VidPin_Mode_Output+0x1adc>)
 8002b3c:	4b7b      	ldr	r3, [pc, #492]	; (8002d2c <GPIO_VidPin_Mode_Output+0x1adc>)
 8002b3e:	689b      	ldr	r3, [r3, #8]
 8002b40:	f443 0340 	orr.w	r3, r3, #12582912	; 0xc00000
 8002b44:	6093      	str	r3, [r2, #8]
				break;
 8002b46:	e12b      	b.n	8002da0 <GPIO_VidPin_Mode_Output+0x1b50>
				case (Pin_12):
						/*Select Output Type*/
						if(Copy_u8Type==Push_Pull){Clear_Bit(GPIO_C->OTYPER,GPIO_OTYPER_12);}
 8002b48:	797b      	ldrb	r3, [r7, #5]
 8002b4a:	2b08      	cmp	r3, #8
 8002b4c:	d106      	bne.n	8002b5c <GPIO_VidPin_Mode_Output+0x190c>
 8002b4e:	4a77      	ldr	r2, [pc, #476]	; (8002d2c <GPIO_VidPin_Mode_Output+0x1adc>)
 8002b50:	4b76      	ldr	r3, [pc, #472]	; (8002d2c <GPIO_VidPin_Mode_Output+0x1adc>)
 8002b52:	685b      	ldr	r3, [r3, #4]
 8002b54:	f423 5380 	bic.w	r3, r3, #4096	; 0x1000
 8002b58:	6053      	str	r3, [r2, #4]
 8002b5a:	e00e      	b.n	8002b7a <GPIO_VidPin_Mode_Output+0x192a>
						else if (Copy_u8Type==Open_Drain)
 8002b5c:	797b      	ldrb	r3, [r7, #5]
 8002b5e:	2b09      	cmp	r3, #9
 8002b60:	d10b      	bne.n	8002b7a <GPIO_VidPin_Mode_Output+0x192a>
						{
							Set_Bit(GPIO_C->OTYPER,GPIO_OTYPER_12);
 8002b62:	4a72      	ldr	r2, [pc, #456]	; (8002d2c <GPIO_VidPin_Mode_Output+0x1adc>)
 8002b64:	4b71      	ldr	r3, [pc, #452]	; (8002d2c <GPIO_VidPin_Mode_Output+0x1adc>)
 8002b66:	685b      	ldr	r3, [r3, #4]
 8002b68:	f443 5380 	orr.w	r3, r3, #4096	; 0x1000
 8002b6c:	6053      	str	r3, [r2, #4]
						#if Open_Drain_Pull == Pull_Up
							Set_Bit(GPIO_C->PUPDR,GPIO_PUPDR_12_Pull_Up);
 8002b6e:	4a6f      	ldr	r2, [pc, #444]	; (8002d2c <GPIO_VidPin_Mode_Output+0x1adc>)
 8002b70:	4b6e      	ldr	r3, [pc, #440]	; (8002d2c <GPIO_VidPin_Mode_Output+0x1adc>)
 8002b72:	68db      	ldr	r3, [r3, #12]
 8002b74:	f043 7380 	orr.w	r3, r3, #16777216	; 0x1000000
 8002b78:	60d3      	str	r3, [r2, #12]
						#elif Open_Drain_Pull == Pull_Down
							Set_Bit(GPIO_C->PUPDR,GPIO_PUPDR_12_Pull_Down);
						#endif
						}
						/*Select Operating Speed*/
						if(Copy_u8Speed==Low_Speed){Clear_Bit(GPIO_C->OSPEEDR,GPIO_OSPEEDR_12_HI);}
 8002b7a:	793b      	ldrb	r3, [r7, #4]
 8002b7c:	2b04      	cmp	r3, #4
 8002b7e:	d106      	bne.n	8002b8e <GPIO_VidPin_Mode_Output+0x193e>
 8002b80:	4a6a      	ldr	r2, [pc, #424]	; (8002d2c <GPIO_VidPin_Mode_Output+0x1adc>)
 8002b82:	4b6a      	ldr	r3, [pc, #424]	; (8002d2c <GPIO_VidPin_Mode_Output+0x1adc>)
 8002b84:	689b      	ldr	r3, [r3, #8]
 8002b86:	f023 7340 	bic.w	r3, r3, #50331648	; 0x3000000
 8002b8a:	6093      	str	r3, [r2, #8]
						else if(Copy_u8Speed==Medium_Speed){Set_Bit(GPIO_C->OSPEEDR,GPIO_OSPEEDR_12_Medium);}
						else if(Copy_u8Speed==Fast_Speed){/*Enable Compensation Cell*/Set_Bit(GPIO_C->OSPEEDR,GPIO_OSPEEDR_12_Fast);}
						else if(Copy_u8Speed==High_Speed){/*Enable Compensation Cell*/Set_Bit(GPIO_C->OSPEEDR,GPIO_OSPEEDR_12_HI);}
				break;
 8002b8c:	e10b      	b.n	8002da6 <GPIO_VidPin_Mode_Output+0x1b56>
						else if(Copy_u8Speed==Medium_Speed){Set_Bit(GPIO_C->OSPEEDR,GPIO_OSPEEDR_12_Medium);}
 8002b8e:	793b      	ldrb	r3, [r7, #4]
 8002b90:	2b05      	cmp	r3, #5
 8002b92:	d106      	bne.n	8002ba2 <GPIO_VidPin_Mode_Output+0x1952>
 8002b94:	4a65      	ldr	r2, [pc, #404]	; (8002d2c <GPIO_VidPin_Mode_Output+0x1adc>)
 8002b96:	4b65      	ldr	r3, [pc, #404]	; (8002d2c <GPIO_VidPin_Mode_Output+0x1adc>)
 8002b98:	689b      	ldr	r3, [r3, #8]
 8002b9a:	f043 7380 	orr.w	r3, r3, #16777216	; 0x1000000
 8002b9e:	6093      	str	r3, [r2, #8]
				break;
 8002ba0:	e101      	b.n	8002da6 <GPIO_VidPin_Mode_Output+0x1b56>
						else if(Copy_u8Speed==Fast_Speed){/*Enable Compensation Cell*/Set_Bit(GPIO_C->OSPEEDR,GPIO_OSPEEDR_12_Fast);}
 8002ba2:	793b      	ldrb	r3, [r7, #4]
 8002ba4:	2b06      	cmp	r3, #6
 8002ba6:	d106      	bne.n	8002bb6 <GPIO_VidPin_Mode_Output+0x1966>
 8002ba8:	4a60      	ldr	r2, [pc, #384]	; (8002d2c <GPIO_VidPin_Mode_Output+0x1adc>)
 8002baa:	4b60      	ldr	r3, [pc, #384]	; (8002d2c <GPIO_VidPin_Mode_Output+0x1adc>)
 8002bac:	689b      	ldr	r3, [r3, #8]
 8002bae:	f043 7300 	orr.w	r3, r3, #33554432	; 0x2000000
 8002bb2:	6093      	str	r3, [r2, #8]
				break;
 8002bb4:	e0f7      	b.n	8002da6 <GPIO_VidPin_Mode_Output+0x1b56>
						else if(Copy_u8Speed==High_Speed){/*Enable Compensation Cell*/Set_Bit(GPIO_C->OSPEEDR,GPIO_OSPEEDR_12_HI);}
 8002bb6:	793b      	ldrb	r3, [r7, #4]
 8002bb8:	2b07      	cmp	r3, #7
 8002bba:	f040 80f4 	bne.w	8002da6 <GPIO_VidPin_Mode_Output+0x1b56>
 8002bbe:	4a5b      	ldr	r2, [pc, #364]	; (8002d2c <GPIO_VidPin_Mode_Output+0x1adc>)
 8002bc0:	4b5a      	ldr	r3, [pc, #360]	; (8002d2c <GPIO_VidPin_Mode_Output+0x1adc>)
 8002bc2:	689b      	ldr	r3, [r3, #8]
 8002bc4:	f043 7340 	orr.w	r3, r3, #50331648	; 0x3000000
 8002bc8:	6093      	str	r3, [r2, #8]
				break;
 8002bca:	e0ec      	b.n	8002da6 <GPIO_VidPin_Mode_Output+0x1b56>
				case (Pin_13):
						/*Select Output Type*/
						if(Copy_u8Type==Push_Pull){Clear_Bit(GPIO_C->OTYPER,GPIO_OTYPER_13);}
 8002bcc:	797b      	ldrb	r3, [r7, #5]
 8002bce:	2b08      	cmp	r3, #8
 8002bd0:	d106      	bne.n	8002be0 <GPIO_VidPin_Mode_Output+0x1990>
 8002bd2:	4a56      	ldr	r2, [pc, #344]	; (8002d2c <GPIO_VidPin_Mode_Output+0x1adc>)
 8002bd4:	4b55      	ldr	r3, [pc, #340]	; (8002d2c <GPIO_VidPin_Mode_Output+0x1adc>)
 8002bd6:	685b      	ldr	r3, [r3, #4]
 8002bd8:	f423 5300 	bic.w	r3, r3, #8192	; 0x2000
 8002bdc:	6053      	str	r3, [r2, #4]
 8002bde:	e00e      	b.n	8002bfe <GPIO_VidPin_Mode_Output+0x19ae>
						else if (Copy_u8Type==Open_Drain)
 8002be0:	797b      	ldrb	r3, [r7, #5]
 8002be2:	2b09      	cmp	r3, #9
 8002be4:	d10b      	bne.n	8002bfe <GPIO_VidPin_Mode_Output+0x19ae>
						{
							Set_Bit(GPIO_C->OTYPER,GPIO_OTYPER_13);
 8002be6:	4a51      	ldr	r2, [pc, #324]	; (8002d2c <GPIO_VidPin_Mode_Output+0x1adc>)
 8002be8:	4b50      	ldr	r3, [pc, #320]	; (8002d2c <GPIO_VidPin_Mode_Output+0x1adc>)
 8002bea:	685b      	ldr	r3, [r3, #4]
 8002bec:	f443 5300 	orr.w	r3, r3, #8192	; 0x2000
 8002bf0:	6053      	str	r3, [r2, #4]
						#if Open_Drain_Pull == Pull_Up
							Set_Bit(GPIO_C->PUPDR,GPIO_PUPDR_13_Pull_Up);
 8002bf2:	4a4e      	ldr	r2, [pc, #312]	; (8002d2c <GPIO_VidPin_Mode_Output+0x1adc>)
 8002bf4:	4b4d      	ldr	r3, [pc, #308]	; (8002d2c <GPIO_VidPin_Mode_Output+0x1adc>)
 8002bf6:	68db      	ldr	r3, [r3, #12]
 8002bf8:	f043 6380 	orr.w	r3, r3, #67108864	; 0x4000000
 8002bfc:	60d3      	str	r3, [r2, #12]
						#elif Open_Drain_Pull == Pull_Down
							Set_Bit(GPIO_C->PUPDR,GPIO_PUPDR_13_Pull_Down);
						#endif
						}
						/*Select Operating Speed*/
						if(Copy_u8Speed==Low_Speed){Clear_Bit(GPIO_C->OSPEEDR,GPIO_OSPEEDR_13_HI);}
 8002bfe:	793b      	ldrb	r3, [r7, #4]
 8002c00:	2b04      	cmp	r3, #4
 8002c02:	d106      	bne.n	8002c12 <GPIO_VidPin_Mode_Output+0x19c2>
 8002c04:	4a49      	ldr	r2, [pc, #292]	; (8002d2c <GPIO_VidPin_Mode_Output+0x1adc>)
 8002c06:	4b49      	ldr	r3, [pc, #292]	; (8002d2c <GPIO_VidPin_Mode_Output+0x1adc>)
 8002c08:	689b      	ldr	r3, [r3, #8]
 8002c0a:	f023 6340 	bic.w	r3, r3, #201326592	; 0xc000000
 8002c0e:	6093      	str	r3, [r2, #8]
						else if(Copy_u8Speed==Medium_Speed){Set_Bit(GPIO_C->OSPEEDR,GPIO_OSPEEDR_13_Medium);}
						else if(Copy_u8Speed==Fast_Speed){/*Enable Compensation Cell*/Set_Bit(GPIO_C->OSPEEDR,GPIO_OSPEEDR_13_Fast);}
						else if(Copy_u8Speed==High_Speed){/*Enable Compensation Cell*/Set_Bit(GPIO_C->OSPEEDR,GPIO_OSPEEDR_13_HI);}
				break;
 8002c10:	e0cc      	b.n	8002dac <GPIO_VidPin_Mode_Output+0x1b5c>
						else if(Copy_u8Speed==Medium_Speed){Set_Bit(GPIO_C->OSPEEDR,GPIO_OSPEEDR_13_Medium);}
 8002c12:	793b      	ldrb	r3, [r7, #4]
 8002c14:	2b05      	cmp	r3, #5
 8002c16:	d106      	bne.n	8002c26 <GPIO_VidPin_Mode_Output+0x19d6>
 8002c18:	4a44      	ldr	r2, [pc, #272]	; (8002d2c <GPIO_VidPin_Mode_Output+0x1adc>)
 8002c1a:	4b44      	ldr	r3, [pc, #272]	; (8002d2c <GPIO_VidPin_Mode_Output+0x1adc>)
 8002c1c:	689b      	ldr	r3, [r3, #8]
 8002c1e:	f043 6380 	orr.w	r3, r3, #67108864	; 0x4000000
 8002c22:	6093      	str	r3, [r2, #8]
				break;
 8002c24:	e0c2      	b.n	8002dac <GPIO_VidPin_Mode_Output+0x1b5c>
						else if(Copy_u8Speed==Fast_Speed){/*Enable Compensation Cell*/Set_Bit(GPIO_C->OSPEEDR,GPIO_OSPEEDR_13_Fast);}
 8002c26:	793b      	ldrb	r3, [r7, #4]
 8002c28:	2b06      	cmp	r3, #6
 8002c2a:	d106      	bne.n	8002c3a <GPIO_VidPin_Mode_Output+0x19ea>
 8002c2c:	4a3f      	ldr	r2, [pc, #252]	; (8002d2c <GPIO_VidPin_Mode_Output+0x1adc>)
 8002c2e:	4b3f      	ldr	r3, [pc, #252]	; (8002d2c <GPIO_VidPin_Mode_Output+0x1adc>)
 8002c30:	689b      	ldr	r3, [r3, #8]
 8002c32:	f043 6300 	orr.w	r3, r3, #134217728	; 0x8000000
 8002c36:	6093      	str	r3, [r2, #8]
				break;
 8002c38:	e0b8      	b.n	8002dac <GPIO_VidPin_Mode_Output+0x1b5c>
						else if(Copy_u8Speed==High_Speed){/*Enable Compensation Cell*/Set_Bit(GPIO_C->OSPEEDR,GPIO_OSPEEDR_13_HI);}
 8002c3a:	793b      	ldrb	r3, [r7, #4]
 8002c3c:	2b07      	cmp	r3, #7
 8002c3e:	f040 80b5 	bne.w	8002dac <GPIO_VidPin_Mode_Output+0x1b5c>
 8002c42:	4a3a      	ldr	r2, [pc, #232]	; (8002d2c <GPIO_VidPin_Mode_Output+0x1adc>)
 8002c44:	4b39      	ldr	r3, [pc, #228]	; (8002d2c <GPIO_VidPin_Mode_Output+0x1adc>)
 8002c46:	689b      	ldr	r3, [r3, #8]
 8002c48:	f043 6340 	orr.w	r3, r3, #201326592	; 0xc000000
 8002c4c:	6093      	str	r3, [r2, #8]
				break;
 8002c4e:	e0ad      	b.n	8002dac <GPIO_VidPin_Mode_Output+0x1b5c>
				case (Pin_14):
						/*Select Output Type*/
						if(Copy_u8Type==Push_Pull){Clear_Bit(GPIO_C->OTYPER,GPIO_OTYPER_14);}
 8002c50:	797b      	ldrb	r3, [r7, #5]
 8002c52:	2b08      	cmp	r3, #8
 8002c54:	d106      	bne.n	8002c64 <GPIO_VidPin_Mode_Output+0x1a14>
 8002c56:	4a35      	ldr	r2, [pc, #212]	; (8002d2c <GPIO_VidPin_Mode_Output+0x1adc>)
 8002c58:	4b34      	ldr	r3, [pc, #208]	; (8002d2c <GPIO_VidPin_Mode_Output+0x1adc>)
 8002c5a:	685b      	ldr	r3, [r3, #4]
 8002c5c:	f423 4380 	bic.w	r3, r3, #16384	; 0x4000
 8002c60:	6053      	str	r3, [r2, #4]
 8002c62:	e00e      	b.n	8002c82 <GPIO_VidPin_Mode_Output+0x1a32>
						else if (Copy_u8Type==Open_Drain)
 8002c64:	797b      	ldrb	r3, [r7, #5]
 8002c66:	2b09      	cmp	r3, #9
 8002c68:	d10b      	bne.n	8002c82 <GPIO_VidPin_Mode_Output+0x1a32>
						{
							Set_Bit(GPIO_C->OTYPER,GPIO_OTYPER_14);
 8002c6a:	4a30      	ldr	r2, [pc, #192]	; (8002d2c <GPIO_VidPin_Mode_Output+0x1adc>)
 8002c6c:	4b2f      	ldr	r3, [pc, #188]	; (8002d2c <GPIO_VidPin_Mode_Output+0x1adc>)
 8002c6e:	685b      	ldr	r3, [r3, #4]
 8002c70:	f443 4380 	orr.w	r3, r3, #16384	; 0x4000
 8002c74:	6053      	str	r3, [r2, #4]
						#if Open_Drain_Pull == Pull_Up
							Set_Bit(GPIO_C->PUPDR,GPIO_PUPDR_14_Pull_Up);
 8002c76:	4a2d      	ldr	r2, [pc, #180]	; (8002d2c <GPIO_VidPin_Mode_Output+0x1adc>)
 8002c78:	4b2c      	ldr	r3, [pc, #176]	; (8002d2c <GPIO_VidPin_Mode_Output+0x1adc>)
 8002c7a:	68db      	ldr	r3, [r3, #12]
 8002c7c:	f043 5380 	orr.w	r3, r3, #268435456	; 0x10000000
 8002c80:	60d3      	str	r3, [r2, #12]
						#elif Open_Drain_Pull == Pull_Down
							Set_Bit(GPIO_C->PUPDR,GPIO_PUPDR_14_Pull_Down);
						#endif
						}
						/*Select Operating Speed*/
						if(Copy_u8Speed==Low_Speed){Clear_Bit(GPIO_C->OSPEEDR,GPIO_OSPEEDR_14_HI);}
 8002c82:	793b      	ldrb	r3, [r7, #4]
 8002c84:	2b04      	cmp	r3, #4
 8002c86:	d106      	bne.n	8002c96 <GPIO_VidPin_Mode_Output+0x1a46>
 8002c88:	4a28      	ldr	r2, [pc, #160]	; (8002d2c <GPIO_VidPin_Mode_Output+0x1adc>)
 8002c8a:	4b28      	ldr	r3, [pc, #160]	; (8002d2c <GPIO_VidPin_Mode_Output+0x1adc>)
 8002c8c:	689b      	ldr	r3, [r3, #8]
 8002c8e:	f023 5340 	bic.w	r3, r3, #805306368	; 0x30000000
 8002c92:	6093      	str	r3, [r2, #8]
						else if(Copy_u8Speed==Medium_Speed){Set_Bit(GPIO_C->OSPEEDR,GPIO_OSPEEDR_14_Medium);}
						else if(Copy_u8Speed==Fast_Speed){/*Enable Compensation Cell*/Set_Bit(GPIO_C->OSPEEDR,GPIO_OSPEEDR_14_Fast);}
						else if(Copy_u8Speed==High_Speed){/*Enable Compensation Cell*/Set_Bit(GPIO_C->OSPEEDR,GPIO_OSPEEDR_14_HI);}
				break;
 8002c94:	e08d      	b.n	8002db2 <GPIO_VidPin_Mode_Output+0x1b62>
						else if(Copy_u8Speed==Medium_Speed){Set_Bit(GPIO_C->OSPEEDR,GPIO_OSPEEDR_14_Medium);}
 8002c96:	793b      	ldrb	r3, [r7, #4]
 8002c98:	2b05      	cmp	r3, #5
 8002c9a:	d106      	bne.n	8002caa <GPIO_VidPin_Mode_Output+0x1a5a>
 8002c9c:	4a23      	ldr	r2, [pc, #140]	; (8002d2c <GPIO_VidPin_Mode_Output+0x1adc>)
 8002c9e:	4b23      	ldr	r3, [pc, #140]	; (8002d2c <GPIO_VidPin_Mode_Output+0x1adc>)
 8002ca0:	689b      	ldr	r3, [r3, #8]
 8002ca2:	f043 5380 	orr.w	r3, r3, #268435456	; 0x10000000
 8002ca6:	6093      	str	r3, [r2, #8]
				break;
 8002ca8:	e083      	b.n	8002db2 <GPIO_VidPin_Mode_Output+0x1b62>
						else if(Copy_u8Speed==Fast_Speed){/*Enable Compensation Cell*/Set_Bit(GPIO_C->OSPEEDR,GPIO_OSPEEDR_14_Fast);}
 8002caa:	793b      	ldrb	r3, [r7, #4]
 8002cac:	2b06      	cmp	r3, #6
 8002cae:	d106      	bne.n	8002cbe <GPIO_VidPin_Mode_Output+0x1a6e>
 8002cb0:	4a1e      	ldr	r2, [pc, #120]	; (8002d2c <GPIO_VidPin_Mode_Output+0x1adc>)
 8002cb2:	4b1e      	ldr	r3, [pc, #120]	; (8002d2c <GPIO_VidPin_Mode_Output+0x1adc>)
 8002cb4:	689b      	ldr	r3, [r3, #8]
 8002cb6:	f043 5300 	orr.w	r3, r3, #536870912	; 0x20000000
 8002cba:	6093      	str	r3, [r2, #8]
				break;
 8002cbc:	e079      	b.n	8002db2 <GPIO_VidPin_Mode_Output+0x1b62>
						else if(Copy_u8Speed==High_Speed){/*Enable Compensation Cell*/Set_Bit(GPIO_C->OSPEEDR,GPIO_OSPEEDR_14_HI);}
 8002cbe:	793b      	ldrb	r3, [r7, #4]
 8002cc0:	2b07      	cmp	r3, #7
 8002cc2:	d176      	bne.n	8002db2 <GPIO_VidPin_Mode_Output+0x1b62>
 8002cc4:	4a19      	ldr	r2, [pc, #100]	; (8002d2c <GPIO_VidPin_Mode_Output+0x1adc>)
 8002cc6:	4b19      	ldr	r3, [pc, #100]	; (8002d2c <GPIO_VidPin_Mode_Output+0x1adc>)
 8002cc8:	689b      	ldr	r3, [r3, #8]
 8002cca:	f043 5340 	orr.w	r3, r3, #805306368	; 0x30000000
 8002cce:	6093      	str	r3, [r2, #8]
				break;
 8002cd0:	e06f      	b.n	8002db2 <GPIO_VidPin_Mode_Output+0x1b62>
				case (Pin_15):
						/*Select Output Type*/
						if(Copy_u8Type==Push_Pull){Clear_Bit(GPIO_C->OTYPER,GPIO_OTYPER_15);}
 8002cd2:	797b      	ldrb	r3, [r7, #5]
 8002cd4:	2b08      	cmp	r3, #8
 8002cd6:	d106      	bne.n	8002ce6 <GPIO_VidPin_Mode_Output+0x1a96>
 8002cd8:	4a14      	ldr	r2, [pc, #80]	; (8002d2c <GPIO_VidPin_Mode_Output+0x1adc>)
 8002cda:	4b14      	ldr	r3, [pc, #80]	; (8002d2c <GPIO_VidPin_Mode_Output+0x1adc>)
 8002cdc:	685b      	ldr	r3, [r3, #4]
 8002cde:	f423 4300 	bic.w	r3, r3, #32768	; 0x8000
 8002ce2:	6053      	str	r3, [r2, #4]
 8002ce4:	e00e      	b.n	8002d04 <GPIO_VidPin_Mode_Output+0x1ab4>
						else if (Copy_u8Type==Open_Drain)
 8002ce6:	797b      	ldrb	r3, [r7, #5]
 8002ce8:	2b09      	cmp	r3, #9
 8002cea:	d10b      	bne.n	8002d04 <GPIO_VidPin_Mode_Output+0x1ab4>
						{
							Set_Bit(GPIO_C->OTYPER,GPIO_OTYPER_15);
 8002cec:	4a0f      	ldr	r2, [pc, #60]	; (8002d2c <GPIO_VidPin_Mode_Output+0x1adc>)
 8002cee:	4b0f      	ldr	r3, [pc, #60]	; (8002d2c <GPIO_VidPin_Mode_Output+0x1adc>)
 8002cf0:	685b      	ldr	r3, [r3, #4]
 8002cf2:	f443 4300 	orr.w	r3, r3, #32768	; 0x8000
 8002cf6:	6053      	str	r3, [r2, #4]
						#if Open_Drain_Pull == Pull_Up
							Set_Bit(GPIO_C->PUPDR,GPIO_PUPDR_15_Pull_Up);
 8002cf8:	4a0c      	ldr	r2, [pc, #48]	; (8002d2c <GPIO_VidPin_Mode_Output+0x1adc>)
 8002cfa:	4b0c      	ldr	r3, [pc, #48]	; (8002d2c <GPIO_VidPin_Mode_Output+0x1adc>)
 8002cfc:	68db      	ldr	r3, [r3, #12]
 8002cfe:	f043 4380 	orr.w	r3, r3, #1073741824	; 0x40000000
 8002d02:	60d3      	str	r3, [r2, #12]
						#elif Open_Drain_Pull == Pull_Down
							Set_Bit(GPIO_C->PUPDR,GPIO_PUPDR_15_Pull_Down);
						#endif
						}
						/*Select Operating Speed*/
						if(Copy_u8Speed==Low_Speed){Clear_Bit(GPIO_C->OSPEEDR,GPIO_OSPEEDR_15_HI);}
 8002d04:	793b      	ldrb	r3, [r7, #4]
 8002d06:	2b04      	cmp	r3, #4
 8002d08:	d106      	bne.n	8002d18 <GPIO_VidPin_Mode_Output+0x1ac8>
 8002d0a:	4a08      	ldr	r2, [pc, #32]	; (8002d2c <GPIO_VidPin_Mode_Output+0x1adc>)
 8002d0c:	4b07      	ldr	r3, [pc, #28]	; (8002d2c <GPIO_VidPin_Mode_Output+0x1adc>)
 8002d0e:	689b      	ldr	r3, [r3, #8]
 8002d10:	f023 4340 	bic.w	r3, r3, #3221225472	; 0xc0000000
 8002d14:	6093      	str	r3, [r2, #8]
						else if(Copy_u8Speed==Medium_Speed){Set_Bit(GPIO_C->OSPEEDR,GPIO_OSPEEDR_15_Medium);}
						else if(Copy_u8Speed==Fast_Speed){/*Enable Compensation Cell*/Set_Bit(GPIO_C->OSPEEDR,GPIO_OSPEEDR_15_Fast);}
						else if(Copy_u8Speed==High_Speed){/*Enable Compensation Cell*/Set_Bit(GPIO_C->OSPEEDR,GPIO_OSPEEDR_15_HI);}
				break;
 8002d16:	e04f      	b.n	8002db8 <GPIO_VidPin_Mode_Output+0x1b68>
						else if(Copy_u8Speed==Medium_Speed){Set_Bit(GPIO_C->OSPEEDR,GPIO_OSPEEDR_15_Medium);}
 8002d18:	793b      	ldrb	r3, [r7, #4]
 8002d1a:	2b05      	cmp	r3, #5
 8002d1c:	d108      	bne.n	8002d30 <GPIO_VidPin_Mode_Output+0x1ae0>
 8002d1e:	4a03      	ldr	r2, [pc, #12]	; (8002d2c <GPIO_VidPin_Mode_Output+0x1adc>)
 8002d20:	4b02      	ldr	r3, [pc, #8]	; (8002d2c <GPIO_VidPin_Mode_Output+0x1adc>)
 8002d22:	689b      	ldr	r3, [r3, #8]
 8002d24:	f043 4380 	orr.w	r3, r3, #1073741824	; 0x40000000
 8002d28:	6093      	str	r3, [r2, #8]
				break;
 8002d2a:	e045      	b.n	8002db8 <GPIO_VidPin_Mode_Output+0x1b68>
 8002d2c:	40020800 	.word	0x40020800
						else if(Copy_u8Speed==Fast_Speed){/*Enable Compensation Cell*/Set_Bit(GPIO_C->OSPEEDR,GPIO_OSPEEDR_15_Fast);}
 8002d30:	793b      	ldrb	r3, [r7, #4]
 8002d32:	2b06      	cmp	r3, #6
 8002d34:	d106      	bne.n	8002d44 <GPIO_VidPin_Mode_Output+0x1af4>
 8002d36:	4a9e      	ldr	r2, [pc, #632]	; (8002fb0 <GPIO_VidPin_Mode_Output+0x1d60>)
 8002d38:	4b9d      	ldr	r3, [pc, #628]	; (8002fb0 <GPIO_VidPin_Mode_Output+0x1d60>)
 8002d3a:	689b      	ldr	r3, [r3, #8]
 8002d3c:	f043 4300 	orr.w	r3, r3, #2147483648	; 0x80000000
 8002d40:	6093      	str	r3, [r2, #8]
				break;
 8002d42:	e039      	b.n	8002db8 <GPIO_VidPin_Mode_Output+0x1b68>
						else if(Copy_u8Speed==High_Speed){/*Enable Compensation Cell*/Set_Bit(GPIO_C->OSPEEDR,GPIO_OSPEEDR_15_HI);}
 8002d44:	793b      	ldrb	r3, [r7, #4]
 8002d46:	2b07      	cmp	r3, #7
 8002d48:	d136      	bne.n	8002db8 <GPIO_VidPin_Mode_Output+0x1b68>
 8002d4a:	4a99      	ldr	r2, [pc, #612]	; (8002fb0 <GPIO_VidPin_Mode_Output+0x1d60>)
 8002d4c:	4b98      	ldr	r3, [pc, #608]	; (8002fb0 <GPIO_VidPin_Mode_Output+0x1d60>)
 8002d4e:	689b      	ldr	r3, [r3, #8]
 8002d50:	f043 4340 	orr.w	r3, r3, #3221225472	; 0xc0000000
 8002d54:	6093      	str	r3, [r2, #8]
				break;
 8002d56:	e02f      	b.n	8002db8 <GPIO_VidPin_Mode_Output+0x1b68>
				default:break;
 8002d58:	bf00      	nop
 8002d5a:	f001 b929 	b.w	8003fb0 <GPIO_VidPin_Mode_Output+0x2d60>
				break;
 8002d5e:	bf00      	nop
 8002d60:	f001 b926 	b.w	8003fb0 <GPIO_VidPin_Mode_Output+0x2d60>
				break;
 8002d64:	bf00      	nop
 8002d66:	f001 b923 	b.w	8003fb0 <GPIO_VidPin_Mode_Output+0x2d60>
				break;
 8002d6a:	bf00      	nop
 8002d6c:	f001 b920 	b.w	8003fb0 <GPIO_VidPin_Mode_Output+0x2d60>
				break;
 8002d70:	bf00      	nop
 8002d72:	f001 b91d 	b.w	8003fb0 <GPIO_VidPin_Mode_Output+0x2d60>
				break;
 8002d76:	bf00      	nop
 8002d78:	f001 b91a 	b.w	8003fb0 <GPIO_VidPin_Mode_Output+0x2d60>
				break;
 8002d7c:	bf00      	nop
 8002d7e:	f001 b917 	b.w	8003fb0 <GPIO_VidPin_Mode_Output+0x2d60>
				break;
 8002d82:	bf00      	nop
 8002d84:	f001 b914 	b.w	8003fb0 <GPIO_VidPin_Mode_Output+0x2d60>
				break;
 8002d88:	bf00      	nop
 8002d8a:	f001 b911 	b.w	8003fb0 <GPIO_VidPin_Mode_Output+0x2d60>
				break;
 8002d8e:	bf00      	nop
 8002d90:	f001 b90e 	b.w	8003fb0 <GPIO_VidPin_Mode_Output+0x2d60>
				break;
 8002d94:	bf00      	nop
 8002d96:	f001 b90b 	b.w	8003fb0 <GPIO_VidPin_Mode_Output+0x2d60>
				break;
 8002d9a:	bf00      	nop
 8002d9c:	f001 b908 	b.w	8003fb0 <GPIO_VidPin_Mode_Output+0x2d60>
				break;
 8002da0:	bf00      	nop
 8002da2:	f001 b905 	b.w	8003fb0 <GPIO_VidPin_Mode_Output+0x2d60>
				break;
 8002da6:	bf00      	nop
 8002da8:	f001 b902 	b.w	8003fb0 <GPIO_VidPin_Mode_Output+0x2d60>
				break;
 8002dac:	bf00      	nop
 8002dae:	f001 b8ff 	b.w	8003fb0 <GPIO_VidPin_Mode_Output+0x2d60>
				break;
 8002db2:	bf00      	nop
 8002db4:	f001 b8fc 	b.w	8003fb0 <GPIO_VidPin_Mode_Output+0x2d60>
				break;
 8002db8:	bf00      	nop
			}
		break;
 8002dba:	f001 b8f9 	b.w	8003fb0 <GPIO_VidPin_Mode_Output+0x2d60>
		case(Port_D):
			switch (Copy_u8Pin)
 8002dbe:	79bb      	ldrb	r3, [r7, #6]
 8002dc0:	2b0f      	cmp	r3, #15
 8002dc2:	f200 844d 	bhi.w	8003660 <GPIO_VidPin_Mode_Output+0x2410>
 8002dc6:	a201      	add	r2, pc, #4	; (adr r2, 8002dcc <GPIO_VidPin_Mode_Output+0x1b7c>)
 8002dc8:	f852 f023 	ldr.w	pc, [r2, r3, lsl #2]
 8002dcc:	08002e0d 	.word	0x08002e0d
 8002dd0:	08002e93 	.word	0x08002e93
 8002dd4:	08002f17 	.word	0x08002f17
 8002dd8:	08002f9b 	.word	0x08002f9b
 8002ddc:	08003029 	.word	0x08003029
 8002de0:	080030ad 	.word	0x080030ad
 8002de4:	08003131 	.word	0x08003131
 8002de8:	080031b5 	.word	0x080031b5
 8002dec:	0800323f 	.word	0x0800323f
 8002df0:	080032c3 	.word	0x080032c3
 8002df4:	08003347 	.word	0x08003347
 8002df8:	080033cb 	.word	0x080033cb
 8002dfc:	0800344f 	.word	0x0800344f
 8002e00:	080034d9 	.word	0x080034d9
 8002e04:	0800355d 	.word	0x0800355d
 8002e08:	080035df 	.word	0x080035df
			{
				case (Pin_0):
						/*Select Output Type*/
						if(Copy_u8Type==Push_Pull){Clear_Bit(GPIO_D->OTYPER,GPIO_OTYPER_0);}
 8002e0c:	797b      	ldrb	r3, [r7, #5]
 8002e0e:	2b08      	cmp	r3, #8
 8002e10:	d106      	bne.n	8002e20 <GPIO_VidPin_Mode_Output+0x1bd0>
 8002e12:	4a68      	ldr	r2, [pc, #416]	; (8002fb4 <GPIO_VidPin_Mode_Output+0x1d64>)
 8002e14:	4b67      	ldr	r3, [pc, #412]	; (8002fb4 <GPIO_VidPin_Mode_Output+0x1d64>)
 8002e16:	685b      	ldr	r3, [r3, #4]
 8002e18:	f023 0301 	bic.w	r3, r3, #1
 8002e1c:	6053      	str	r3, [r2, #4]
 8002e1e:	e00e      	b.n	8002e3e <GPIO_VidPin_Mode_Output+0x1bee>
						else if (Copy_u8Type==Open_Drain)
 8002e20:	797b      	ldrb	r3, [r7, #5]
 8002e22:	2b09      	cmp	r3, #9
 8002e24:	d10b      	bne.n	8002e3e <GPIO_VidPin_Mode_Output+0x1bee>
						{
							Set_Bit(GPIO_D->OTYPER,GPIO_OTYPER_0);
 8002e26:	4a63      	ldr	r2, [pc, #396]	; (8002fb4 <GPIO_VidPin_Mode_Output+0x1d64>)
 8002e28:	4b62      	ldr	r3, [pc, #392]	; (8002fb4 <GPIO_VidPin_Mode_Output+0x1d64>)
 8002e2a:	685b      	ldr	r3, [r3, #4]
 8002e2c:	f043 0301 	orr.w	r3, r3, #1
 8002e30:	6053      	str	r3, [r2, #4]
						#if Open_Drain_Pull == Pull_Up
							Set_Bit(GPIO_D->PUPDR,GPIO_PUPDR_0_Pull_Up);
 8002e32:	4a60      	ldr	r2, [pc, #384]	; (8002fb4 <GPIO_VidPin_Mode_Output+0x1d64>)
 8002e34:	4b5f      	ldr	r3, [pc, #380]	; (8002fb4 <GPIO_VidPin_Mode_Output+0x1d64>)
 8002e36:	68db      	ldr	r3, [r3, #12]
 8002e38:	f043 0301 	orr.w	r3, r3, #1
 8002e3c:	60d3      	str	r3, [r2, #12]
						#elif Open_Drain_Pull == Pull_Down
							Set_Bit(Copy_u8PortAddress->PUPDR,GPIO_PUPDR_0_Pull_Down);
						#endif
						}
						/*Select Operating Speed*/
						if(Copy_u8Speed==Low_Speed){Clear_Bit(GPIO_D->OSPEEDR,GPIO_OSPEEDR_0_HI);}
 8002e3e:	793b      	ldrb	r3, [r7, #4]
 8002e40:	2b04      	cmp	r3, #4
 8002e42:	d107      	bne.n	8002e54 <GPIO_VidPin_Mode_Output+0x1c04>
 8002e44:	4a5b      	ldr	r2, [pc, #364]	; (8002fb4 <GPIO_VidPin_Mode_Output+0x1d64>)
 8002e46:	4b5b      	ldr	r3, [pc, #364]	; (8002fb4 <GPIO_VidPin_Mode_Output+0x1d64>)
 8002e48:	689b      	ldr	r3, [r3, #8]
 8002e4a:	f023 0303 	bic.w	r3, r3, #3
 8002e4e:	6093      	str	r3, [r2, #8]
						else if(Copy_u8Speed==Medium_Speed){Set_Bit(GPIO_D->OSPEEDR,GPIO_OSPEEDR_0_Medium);}
						else if(Copy_u8Speed==Fast_Speed){/*Enable Compensation Cell*/Set_Bit(GPIO_D->OSPEEDR,GPIO_OSPEEDR_0_Fast);}
						else if(Copy_u8Speed==High_Speed){/*Enable Compensation Cell*/Set_Bit(GPIO_D->OSPEEDR,GPIO_OSPEEDR_0_HI);}
				break;
 8002e50:	f000 bc09 	b.w	8003666 <GPIO_VidPin_Mode_Output+0x2416>
						else if(Copy_u8Speed==Medium_Speed){Set_Bit(GPIO_D->OSPEEDR,GPIO_OSPEEDR_0_Medium);}
 8002e54:	793b      	ldrb	r3, [r7, #4]
 8002e56:	2b05      	cmp	r3, #5
 8002e58:	d106      	bne.n	8002e68 <GPIO_VidPin_Mode_Output+0x1c18>
 8002e5a:	4a56      	ldr	r2, [pc, #344]	; (8002fb4 <GPIO_VidPin_Mode_Output+0x1d64>)
 8002e5c:	4b55      	ldr	r3, [pc, #340]	; (8002fb4 <GPIO_VidPin_Mode_Output+0x1d64>)
 8002e5e:	689b      	ldr	r3, [r3, #8]
 8002e60:	f043 0301 	orr.w	r3, r3, #1
 8002e64:	6093      	str	r3, [r2, #8]
				break;
 8002e66:	e3fe      	b.n	8003666 <GPIO_VidPin_Mode_Output+0x2416>
						else if(Copy_u8Speed==Fast_Speed){/*Enable Compensation Cell*/Set_Bit(GPIO_D->OSPEEDR,GPIO_OSPEEDR_0_Fast);}
 8002e68:	793b      	ldrb	r3, [r7, #4]
 8002e6a:	2b06      	cmp	r3, #6
 8002e6c:	d106      	bne.n	8002e7c <GPIO_VidPin_Mode_Output+0x1c2c>
 8002e6e:	4a51      	ldr	r2, [pc, #324]	; (8002fb4 <GPIO_VidPin_Mode_Output+0x1d64>)
 8002e70:	4b50      	ldr	r3, [pc, #320]	; (8002fb4 <GPIO_VidPin_Mode_Output+0x1d64>)
 8002e72:	689b      	ldr	r3, [r3, #8]
 8002e74:	f043 0302 	orr.w	r3, r3, #2
 8002e78:	6093      	str	r3, [r2, #8]
				break;
 8002e7a:	e3f4      	b.n	8003666 <GPIO_VidPin_Mode_Output+0x2416>
						else if(Copy_u8Speed==High_Speed){/*Enable Compensation Cell*/Set_Bit(GPIO_D->OSPEEDR,GPIO_OSPEEDR_0_HI);}
 8002e7c:	793b      	ldrb	r3, [r7, #4]
 8002e7e:	2b07      	cmp	r3, #7
 8002e80:	f040 83f1 	bne.w	8003666 <GPIO_VidPin_Mode_Output+0x2416>
 8002e84:	4a4b      	ldr	r2, [pc, #300]	; (8002fb4 <GPIO_VidPin_Mode_Output+0x1d64>)
 8002e86:	4b4b      	ldr	r3, [pc, #300]	; (8002fb4 <GPIO_VidPin_Mode_Output+0x1d64>)
 8002e88:	689b      	ldr	r3, [r3, #8]
 8002e8a:	f043 0303 	orr.w	r3, r3, #3
 8002e8e:	6093      	str	r3, [r2, #8]
				break;
 8002e90:	e3e9      	b.n	8003666 <GPIO_VidPin_Mode_Output+0x2416>
				case (Pin_1):
						/*Select Output Type*/
						if(Copy_u8Type==Push_Pull){Clear_Bit(GPIO_D->OTYPER,GPIO_OTYPER_1);}
 8002e92:	797b      	ldrb	r3, [r7, #5]
 8002e94:	2b08      	cmp	r3, #8
 8002e96:	d106      	bne.n	8002ea6 <GPIO_VidPin_Mode_Output+0x1c56>
 8002e98:	4a46      	ldr	r2, [pc, #280]	; (8002fb4 <GPIO_VidPin_Mode_Output+0x1d64>)
 8002e9a:	4b46      	ldr	r3, [pc, #280]	; (8002fb4 <GPIO_VidPin_Mode_Output+0x1d64>)
 8002e9c:	685b      	ldr	r3, [r3, #4]
 8002e9e:	f023 0302 	bic.w	r3, r3, #2
 8002ea2:	6053      	str	r3, [r2, #4]
 8002ea4:	e00e      	b.n	8002ec4 <GPIO_VidPin_Mode_Output+0x1c74>
						else if (Copy_u8Type==Open_Drain)
 8002ea6:	797b      	ldrb	r3, [r7, #5]
 8002ea8:	2b09      	cmp	r3, #9
 8002eaa:	d10b      	bne.n	8002ec4 <GPIO_VidPin_Mode_Output+0x1c74>
						{
							Set_Bit(GPIO_D->OTYPER,GPIO_OTYPER_1);
 8002eac:	4a41      	ldr	r2, [pc, #260]	; (8002fb4 <GPIO_VidPin_Mode_Output+0x1d64>)
 8002eae:	4b41      	ldr	r3, [pc, #260]	; (8002fb4 <GPIO_VidPin_Mode_Output+0x1d64>)
 8002eb0:	685b      	ldr	r3, [r3, #4]
 8002eb2:	f043 0302 	orr.w	r3, r3, #2
 8002eb6:	6053      	str	r3, [r2, #4]
						#if Open_Drain_Pull == Pull_Up
							Set_Bit(GPIO_D->PUPDR,GPIO_PUPDR_1_Pull_Up);
 8002eb8:	4a3e      	ldr	r2, [pc, #248]	; (8002fb4 <GPIO_VidPin_Mode_Output+0x1d64>)
 8002eba:	4b3e      	ldr	r3, [pc, #248]	; (8002fb4 <GPIO_VidPin_Mode_Output+0x1d64>)
 8002ebc:	68db      	ldr	r3, [r3, #12]
 8002ebe:	f043 0304 	orr.w	r3, r3, #4
 8002ec2:	60d3      	str	r3, [r2, #12]
						#elif Open_Drain_Pull == Pull_Down
							Set_Bit(GPIO_D->PUPDR,GPIO_PUPDR_1_Pull_Down);
						#endif
						}
						/*Select Operating Speed*/
						if(Copy_u8Speed==Low_Speed){Clear_Bit(GPIO_D->OSPEEDR,GPIO_OSPEEDR_1_HI);}
 8002ec4:	793b      	ldrb	r3, [r7, #4]
 8002ec6:	2b04      	cmp	r3, #4
 8002ec8:	d106      	bne.n	8002ed8 <GPIO_VidPin_Mode_Output+0x1c88>
 8002eca:	4a3a      	ldr	r2, [pc, #232]	; (8002fb4 <GPIO_VidPin_Mode_Output+0x1d64>)
 8002ecc:	4b39      	ldr	r3, [pc, #228]	; (8002fb4 <GPIO_VidPin_Mode_Output+0x1d64>)
 8002ece:	689b      	ldr	r3, [r3, #8]
 8002ed0:	f023 030c 	bic.w	r3, r3, #12
 8002ed4:	6093      	str	r3, [r2, #8]
						else if(Copy_u8Speed==Medium_Speed){Set_Bit(GPIO_D->OSPEEDR,GPIO_OSPEEDR_1_Medium);}
						else if(Copy_u8Speed==Fast_Speed){/*Enable Compensation Cell*/Set_Bit(GPIO_D->OSPEEDR,GPIO_OSPEEDR_1_Fast);}
						else if(Copy_u8Speed==High_Speed){/*Enable Compensation Cell*/Set_Bit(GPIO_D->OSPEEDR,GPIO_OSPEEDR_1_HI);}
				break;
 8002ed6:	e3c9      	b.n	800366c <GPIO_VidPin_Mode_Output+0x241c>
						else if(Copy_u8Speed==Medium_Speed){Set_Bit(GPIO_D->OSPEEDR,GPIO_OSPEEDR_1_Medium);}
 8002ed8:	793b      	ldrb	r3, [r7, #4]
 8002eda:	2b05      	cmp	r3, #5
 8002edc:	d106      	bne.n	8002eec <GPIO_VidPin_Mode_Output+0x1c9c>
 8002ede:	4a35      	ldr	r2, [pc, #212]	; (8002fb4 <GPIO_VidPin_Mode_Output+0x1d64>)
 8002ee0:	4b34      	ldr	r3, [pc, #208]	; (8002fb4 <GPIO_VidPin_Mode_Output+0x1d64>)
 8002ee2:	689b      	ldr	r3, [r3, #8]
 8002ee4:	f043 0304 	orr.w	r3, r3, #4
 8002ee8:	6093      	str	r3, [r2, #8]
				break;
 8002eea:	e3bf      	b.n	800366c <GPIO_VidPin_Mode_Output+0x241c>
						else if(Copy_u8Speed==Fast_Speed){/*Enable Compensation Cell*/Set_Bit(GPIO_D->OSPEEDR,GPIO_OSPEEDR_1_Fast);}
 8002eec:	793b      	ldrb	r3, [r7, #4]
 8002eee:	2b06      	cmp	r3, #6
 8002ef0:	d106      	bne.n	8002f00 <GPIO_VidPin_Mode_Output+0x1cb0>
 8002ef2:	4a30      	ldr	r2, [pc, #192]	; (8002fb4 <GPIO_VidPin_Mode_Output+0x1d64>)
 8002ef4:	4b2f      	ldr	r3, [pc, #188]	; (8002fb4 <GPIO_VidPin_Mode_Output+0x1d64>)
 8002ef6:	689b      	ldr	r3, [r3, #8]
 8002ef8:	f043 0308 	orr.w	r3, r3, #8
 8002efc:	6093      	str	r3, [r2, #8]
				break;
 8002efe:	e3b5      	b.n	800366c <GPIO_VidPin_Mode_Output+0x241c>
						else if(Copy_u8Speed==High_Speed){/*Enable Compensation Cell*/Set_Bit(GPIO_D->OSPEEDR,GPIO_OSPEEDR_1_HI);}
 8002f00:	793b      	ldrb	r3, [r7, #4]
 8002f02:	2b07      	cmp	r3, #7
 8002f04:	f040 83b2 	bne.w	800366c <GPIO_VidPin_Mode_Output+0x241c>
 8002f08:	4a2a      	ldr	r2, [pc, #168]	; (8002fb4 <GPIO_VidPin_Mode_Output+0x1d64>)
 8002f0a:	4b2a      	ldr	r3, [pc, #168]	; (8002fb4 <GPIO_VidPin_Mode_Output+0x1d64>)
 8002f0c:	689b      	ldr	r3, [r3, #8]
 8002f0e:	f043 030c 	orr.w	r3, r3, #12
 8002f12:	6093      	str	r3, [r2, #8]
				break;
 8002f14:	e3aa      	b.n	800366c <GPIO_VidPin_Mode_Output+0x241c>
				case (Pin_2):
						/*Select Output Type*/
						if(Copy_u8Type==Push_Pull){Clear_Bit(GPIO_D->OTYPER,GPIO_OTYPER_2);}
 8002f16:	797b      	ldrb	r3, [r7, #5]
 8002f18:	2b08      	cmp	r3, #8
 8002f1a:	d106      	bne.n	8002f2a <GPIO_VidPin_Mode_Output+0x1cda>
 8002f1c:	4a25      	ldr	r2, [pc, #148]	; (8002fb4 <GPIO_VidPin_Mode_Output+0x1d64>)
 8002f1e:	4b25      	ldr	r3, [pc, #148]	; (8002fb4 <GPIO_VidPin_Mode_Output+0x1d64>)
 8002f20:	685b      	ldr	r3, [r3, #4]
 8002f22:	f023 0304 	bic.w	r3, r3, #4
 8002f26:	6053      	str	r3, [r2, #4]
 8002f28:	e00e      	b.n	8002f48 <GPIO_VidPin_Mode_Output+0x1cf8>
						else if (Copy_u8Type==Open_Drain)
 8002f2a:	797b      	ldrb	r3, [r7, #5]
 8002f2c:	2b09      	cmp	r3, #9
 8002f2e:	d10b      	bne.n	8002f48 <GPIO_VidPin_Mode_Output+0x1cf8>
						{
							Set_Bit(GPIO_D->OTYPER,GPIO_OTYPER_2);
 8002f30:	4a20      	ldr	r2, [pc, #128]	; (8002fb4 <GPIO_VidPin_Mode_Output+0x1d64>)
 8002f32:	4b20      	ldr	r3, [pc, #128]	; (8002fb4 <GPIO_VidPin_Mode_Output+0x1d64>)
 8002f34:	685b      	ldr	r3, [r3, #4]
 8002f36:	f043 0304 	orr.w	r3, r3, #4
 8002f3a:	6053      	str	r3, [r2, #4]
						#if Open_Drain_Pull == Pull_Up
							Set_Bit(GPIO_D->PUPDR,GPIO_PUPDR_2_Pull_Up);
 8002f3c:	4a1d      	ldr	r2, [pc, #116]	; (8002fb4 <GPIO_VidPin_Mode_Output+0x1d64>)
 8002f3e:	4b1d      	ldr	r3, [pc, #116]	; (8002fb4 <GPIO_VidPin_Mode_Output+0x1d64>)
 8002f40:	68db      	ldr	r3, [r3, #12]
 8002f42:	f043 0310 	orr.w	r3, r3, #16
 8002f46:	60d3      	str	r3, [r2, #12]
						#elif Open_Drain_Pull == Pull_Down
							Set_Bit(GPIO_D->PUPDR,GPIO_PUPDR_2_Pull_Down);
						#endif
						}
						/*Select Operating Speed*/
						if(Copy_u8Speed==Low_Speed){Clear_Bit(GPIO_D->OSPEEDR,GPIO_OSPEEDR_2_HI);}
 8002f48:	793b      	ldrb	r3, [r7, #4]
 8002f4a:	2b04      	cmp	r3, #4
 8002f4c:	d106      	bne.n	8002f5c <GPIO_VidPin_Mode_Output+0x1d0c>
 8002f4e:	4a19      	ldr	r2, [pc, #100]	; (8002fb4 <GPIO_VidPin_Mode_Output+0x1d64>)
 8002f50:	4b18      	ldr	r3, [pc, #96]	; (8002fb4 <GPIO_VidPin_Mode_Output+0x1d64>)
 8002f52:	689b      	ldr	r3, [r3, #8]
 8002f54:	f023 0330 	bic.w	r3, r3, #48	; 0x30
 8002f58:	6093      	str	r3, [r2, #8]
						else if(Copy_u8Speed==Medium_Speed){Set_Bit(GPIO_D->OSPEEDR,GPIO_OSPEEDR_2_Medium);}
						else if(Copy_u8Speed==Fast_Speed){/*Enable Compensation Cell*/Set_Bit(GPIO_D->OSPEEDR,GPIO_OSPEEDR_2_Fast);}
						else if(Copy_u8Speed==High_Speed){/*Enable Compensation Cell*/Set_Bit(GPIO_D->OSPEEDR,GPIO_OSPEEDR_2_HI);}
				break;
 8002f5a:	e38a      	b.n	8003672 <GPIO_VidPin_Mode_Output+0x2422>
						else if(Copy_u8Speed==Medium_Speed){Set_Bit(GPIO_D->OSPEEDR,GPIO_OSPEEDR_2_Medium);}
 8002f5c:	793b      	ldrb	r3, [r7, #4]
 8002f5e:	2b05      	cmp	r3, #5
 8002f60:	d106      	bne.n	8002f70 <GPIO_VidPin_Mode_Output+0x1d20>
 8002f62:	4a14      	ldr	r2, [pc, #80]	; (8002fb4 <GPIO_VidPin_Mode_Output+0x1d64>)
 8002f64:	4b13      	ldr	r3, [pc, #76]	; (8002fb4 <GPIO_VidPin_Mode_Output+0x1d64>)
 8002f66:	689b      	ldr	r3, [r3, #8]
 8002f68:	f043 0310 	orr.w	r3, r3, #16
 8002f6c:	6093      	str	r3, [r2, #8]
				break;
 8002f6e:	e380      	b.n	8003672 <GPIO_VidPin_Mode_Output+0x2422>
						else if(Copy_u8Speed==Fast_Speed){/*Enable Compensation Cell*/Set_Bit(GPIO_D->OSPEEDR,GPIO_OSPEEDR_2_Fast);}
 8002f70:	793b      	ldrb	r3, [r7, #4]
 8002f72:	2b06      	cmp	r3, #6
 8002f74:	d106      	bne.n	8002f84 <GPIO_VidPin_Mode_Output+0x1d34>
 8002f76:	4a0f      	ldr	r2, [pc, #60]	; (8002fb4 <GPIO_VidPin_Mode_Output+0x1d64>)
 8002f78:	4b0e      	ldr	r3, [pc, #56]	; (8002fb4 <GPIO_VidPin_Mode_Output+0x1d64>)
 8002f7a:	689b      	ldr	r3, [r3, #8]
 8002f7c:	f043 0320 	orr.w	r3, r3, #32
 8002f80:	6093      	str	r3, [r2, #8]
				break;
 8002f82:	e376      	b.n	8003672 <GPIO_VidPin_Mode_Output+0x2422>
						else if(Copy_u8Speed==High_Speed){/*Enable Compensation Cell*/Set_Bit(GPIO_D->OSPEEDR,GPIO_OSPEEDR_2_HI);}
 8002f84:	793b      	ldrb	r3, [r7, #4]
 8002f86:	2b07      	cmp	r3, #7
 8002f88:	f040 8373 	bne.w	8003672 <GPIO_VidPin_Mode_Output+0x2422>
 8002f8c:	4a09      	ldr	r2, [pc, #36]	; (8002fb4 <GPIO_VidPin_Mode_Output+0x1d64>)
 8002f8e:	4b09      	ldr	r3, [pc, #36]	; (8002fb4 <GPIO_VidPin_Mode_Output+0x1d64>)
 8002f90:	689b      	ldr	r3, [r3, #8]
 8002f92:	f043 0330 	orr.w	r3, r3, #48	; 0x30
 8002f96:	6093      	str	r3, [r2, #8]
				break;
 8002f98:	e36b      	b.n	8003672 <GPIO_VidPin_Mode_Output+0x2422>
				case (Pin_3):
						/*Select Output Type*/
						if(Copy_u8Type==Push_Pull){Clear_Bit(GPIO_D->OTYPER,GPIO_OTYPER_3);}
 8002f9a:	797b      	ldrb	r3, [r7, #5]
 8002f9c:	2b08      	cmp	r3, #8
 8002f9e:	d10b      	bne.n	8002fb8 <GPIO_VidPin_Mode_Output+0x1d68>
 8002fa0:	4a04      	ldr	r2, [pc, #16]	; (8002fb4 <GPIO_VidPin_Mode_Output+0x1d64>)
 8002fa2:	4b04      	ldr	r3, [pc, #16]	; (8002fb4 <GPIO_VidPin_Mode_Output+0x1d64>)
 8002fa4:	685b      	ldr	r3, [r3, #4]
 8002fa6:	f023 0308 	bic.w	r3, r3, #8
 8002faa:	6053      	str	r3, [r2, #4]
 8002fac:	e013      	b.n	8002fd6 <GPIO_VidPin_Mode_Output+0x1d86>
 8002fae:	bf00      	nop
 8002fb0:	40020800 	.word	0x40020800
 8002fb4:	40020c00 	.word	0x40020c00
						else if (Copy_u8Type==Open_Drain)
 8002fb8:	797b      	ldrb	r3, [r7, #5]
 8002fba:	2b09      	cmp	r3, #9
 8002fbc:	d10b      	bne.n	8002fd6 <GPIO_VidPin_Mode_Output+0x1d86>
						{
							Set_Bit(GPIO_D->OTYPER,GPIO_OTYPER_3);
 8002fbe:	4a94      	ldr	r2, [pc, #592]	; (8003210 <GPIO_VidPin_Mode_Output+0x1fc0>)
 8002fc0:	4b93      	ldr	r3, [pc, #588]	; (8003210 <GPIO_VidPin_Mode_Output+0x1fc0>)
 8002fc2:	685b      	ldr	r3, [r3, #4]
 8002fc4:	f043 0308 	orr.w	r3, r3, #8
 8002fc8:	6053      	str	r3, [r2, #4]
						#if Open_Drain_Pull == Pull_Up
							Set_Bit(GPIO_D->PUPDR,GPIO_PUPDR_3_Pull_Up);
 8002fca:	4a91      	ldr	r2, [pc, #580]	; (8003210 <GPIO_VidPin_Mode_Output+0x1fc0>)
 8002fcc:	4b90      	ldr	r3, [pc, #576]	; (8003210 <GPIO_VidPin_Mode_Output+0x1fc0>)
 8002fce:	68db      	ldr	r3, [r3, #12]
 8002fd0:	f043 0340 	orr.w	r3, r3, #64	; 0x40
 8002fd4:	60d3      	str	r3, [r2, #12]
						#elif Open_Drain_Pull == Pull_Down
							Set_Bit(GPIO_D->PUPDR,GPIO_PUPDR_3_Pull_Down);
						#endif
						}
						/*Select Operating Speed*/
						if(Copy_u8Speed==Low_Speed){Clear_Bit(GPIO_D->OSPEEDR,GPIO_OSPEEDR_3_HI);}
 8002fd6:	793b      	ldrb	r3, [r7, #4]
 8002fd8:	2b04      	cmp	r3, #4
 8002fda:	d106      	bne.n	8002fea <GPIO_VidPin_Mode_Output+0x1d9a>
 8002fdc:	4a8c      	ldr	r2, [pc, #560]	; (8003210 <GPIO_VidPin_Mode_Output+0x1fc0>)
 8002fde:	4b8c      	ldr	r3, [pc, #560]	; (8003210 <GPIO_VidPin_Mode_Output+0x1fc0>)
 8002fe0:	689b      	ldr	r3, [r3, #8]
 8002fe2:	f023 03c0 	bic.w	r3, r3, #192	; 0xc0
 8002fe6:	6093      	str	r3, [r2, #8]
						else if(Copy_u8Speed==Medium_Speed){Set_Bit(GPIO_D->OSPEEDR,GPIO_OSPEEDR_3_Medium);}
						else if(Copy_u8Speed==Fast_Speed){/*Enable Compensation Cell*/Set_Bit(GPIO_D->OSPEEDR,GPIO_OSPEEDR_3_Fast);}
						else if(Copy_u8Speed==High_Speed){/*Enable Compensation Cell*/Set_Bit(GPIO_D->OSPEEDR,GPIO_OSPEEDR_3_HI);}
				break;
 8002fe8:	e346      	b.n	8003678 <GPIO_VidPin_Mode_Output+0x2428>
						else if(Copy_u8Speed==Medium_Speed){Set_Bit(GPIO_D->OSPEEDR,GPIO_OSPEEDR_3_Medium);}
 8002fea:	793b      	ldrb	r3, [r7, #4]
 8002fec:	2b05      	cmp	r3, #5
 8002fee:	d106      	bne.n	8002ffe <GPIO_VidPin_Mode_Output+0x1dae>
 8002ff0:	4a87      	ldr	r2, [pc, #540]	; (8003210 <GPIO_VidPin_Mode_Output+0x1fc0>)
 8002ff2:	4b87      	ldr	r3, [pc, #540]	; (8003210 <GPIO_VidPin_Mode_Output+0x1fc0>)
 8002ff4:	689b      	ldr	r3, [r3, #8]
 8002ff6:	f043 0340 	orr.w	r3, r3, #64	; 0x40
 8002ffa:	6093      	str	r3, [r2, #8]
				break;
 8002ffc:	e33c      	b.n	8003678 <GPIO_VidPin_Mode_Output+0x2428>
						else if(Copy_u8Speed==Fast_Speed){/*Enable Compensation Cell*/Set_Bit(GPIO_D->OSPEEDR,GPIO_OSPEEDR_3_Fast);}
 8002ffe:	793b      	ldrb	r3, [r7, #4]
 8003000:	2b06      	cmp	r3, #6
 8003002:	d106      	bne.n	8003012 <GPIO_VidPin_Mode_Output+0x1dc2>
 8003004:	4a82      	ldr	r2, [pc, #520]	; (8003210 <GPIO_VidPin_Mode_Output+0x1fc0>)
 8003006:	4b82      	ldr	r3, [pc, #520]	; (8003210 <GPIO_VidPin_Mode_Output+0x1fc0>)
 8003008:	689b      	ldr	r3, [r3, #8]
 800300a:	f043 0380 	orr.w	r3, r3, #128	; 0x80
 800300e:	6093      	str	r3, [r2, #8]
				break;
 8003010:	e332      	b.n	8003678 <GPIO_VidPin_Mode_Output+0x2428>
						else if(Copy_u8Speed==High_Speed){/*Enable Compensation Cell*/Set_Bit(GPIO_D->OSPEEDR,GPIO_OSPEEDR_3_HI);}
 8003012:	793b      	ldrb	r3, [r7, #4]
 8003014:	2b07      	cmp	r3, #7
 8003016:	f040 832f 	bne.w	8003678 <GPIO_VidPin_Mode_Output+0x2428>
 800301a:	4a7d      	ldr	r2, [pc, #500]	; (8003210 <GPIO_VidPin_Mode_Output+0x1fc0>)
 800301c:	4b7c      	ldr	r3, [pc, #496]	; (8003210 <GPIO_VidPin_Mode_Output+0x1fc0>)
 800301e:	689b      	ldr	r3, [r3, #8]
 8003020:	f043 03c0 	orr.w	r3, r3, #192	; 0xc0
 8003024:	6093      	str	r3, [r2, #8]
				break;
 8003026:	e327      	b.n	8003678 <GPIO_VidPin_Mode_Output+0x2428>
				case (Pin_4):
						/*Select Output Type*/
						if(Copy_u8Type==Push_Pull){Clear_Bit(GPIO_D->OTYPER,GPIO_OTYPER_4);}
 8003028:	797b      	ldrb	r3, [r7, #5]
 800302a:	2b08      	cmp	r3, #8
 800302c:	d106      	bne.n	800303c <GPIO_VidPin_Mode_Output+0x1dec>
 800302e:	4a78      	ldr	r2, [pc, #480]	; (8003210 <GPIO_VidPin_Mode_Output+0x1fc0>)
 8003030:	4b77      	ldr	r3, [pc, #476]	; (8003210 <GPIO_VidPin_Mode_Output+0x1fc0>)
 8003032:	685b      	ldr	r3, [r3, #4]
 8003034:	f023 0310 	bic.w	r3, r3, #16
 8003038:	6053      	str	r3, [r2, #4]
 800303a:	e00e      	b.n	800305a <GPIO_VidPin_Mode_Output+0x1e0a>
						else if (Copy_u8Type==Open_Drain)
 800303c:	797b      	ldrb	r3, [r7, #5]
 800303e:	2b09      	cmp	r3, #9
 8003040:	d10b      	bne.n	800305a <GPIO_VidPin_Mode_Output+0x1e0a>
						{
							Set_Bit(GPIO_D->OTYPER,GPIO_OTYPER_4);
 8003042:	4a73      	ldr	r2, [pc, #460]	; (8003210 <GPIO_VidPin_Mode_Output+0x1fc0>)
 8003044:	4b72      	ldr	r3, [pc, #456]	; (8003210 <GPIO_VidPin_Mode_Output+0x1fc0>)
 8003046:	685b      	ldr	r3, [r3, #4]
 8003048:	f043 0310 	orr.w	r3, r3, #16
 800304c:	6053      	str	r3, [r2, #4]
						#if Open_Drain_Pull == Pull_Up
							Set_Bit(GPIO_D->PUPDR,GPIO_PUPDR_4_Pull_Up);
 800304e:	4a70      	ldr	r2, [pc, #448]	; (8003210 <GPIO_VidPin_Mode_Output+0x1fc0>)
 8003050:	4b6f      	ldr	r3, [pc, #444]	; (8003210 <GPIO_VidPin_Mode_Output+0x1fc0>)
 8003052:	68db      	ldr	r3, [r3, #12]
 8003054:	f443 7380 	orr.w	r3, r3, #256	; 0x100
 8003058:	60d3      	str	r3, [r2, #12]
						#elif Open_Drain_Pull == Pull_Down
							Set_Bit(GPIO_D->PUPDR,GPIO_PUPDR_4_Pull_Down);
						#endif
						}
						/*Select Operating Speed*/
						if(Copy_u8Speed==Low_Speed){Clear_Bit(GPIO_D->OSPEEDR,GPIO_OSPEEDR_4_HI);}
 800305a:	793b      	ldrb	r3, [r7, #4]
 800305c:	2b04      	cmp	r3, #4
 800305e:	d106      	bne.n	800306e <GPIO_VidPin_Mode_Output+0x1e1e>
 8003060:	4a6b      	ldr	r2, [pc, #428]	; (8003210 <GPIO_VidPin_Mode_Output+0x1fc0>)
 8003062:	4b6b      	ldr	r3, [pc, #428]	; (8003210 <GPIO_VidPin_Mode_Output+0x1fc0>)
 8003064:	689b      	ldr	r3, [r3, #8]
 8003066:	f423 7340 	bic.w	r3, r3, #768	; 0x300
 800306a:	6093      	str	r3, [r2, #8]
						else if(Copy_u8Speed==Medium_Speed){Set_Bit(GPIO_D->OSPEEDR,GPIO_OSPEEDR_4_Medium);}
						else if(Copy_u8Speed==Fast_Speed){/*Enable Compensation Cell*/Set_Bit(GPIO_D->OSPEEDR,GPIO_OSPEEDR_4_Fast);}
						else if(Copy_u8Speed==High_Speed){/*Enable Compensation Cell*/Set_Bit(GPIO_D->OSPEEDR,GPIO_OSPEEDR_4_HI);}
				break;
 800306c:	e307      	b.n	800367e <GPIO_VidPin_Mode_Output+0x242e>
						else if(Copy_u8Speed==Medium_Speed){Set_Bit(GPIO_D->OSPEEDR,GPIO_OSPEEDR_4_Medium);}
 800306e:	793b      	ldrb	r3, [r7, #4]
 8003070:	2b05      	cmp	r3, #5
 8003072:	d106      	bne.n	8003082 <GPIO_VidPin_Mode_Output+0x1e32>
 8003074:	4a66      	ldr	r2, [pc, #408]	; (8003210 <GPIO_VidPin_Mode_Output+0x1fc0>)
 8003076:	4b66      	ldr	r3, [pc, #408]	; (8003210 <GPIO_VidPin_Mode_Output+0x1fc0>)
 8003078:	689b      	ldr	r3, [r3, #8]
 800307a:	f443 7380 	orr.w	r3, r3, #256	; 0x100
 800307e:	6093      	str	r3, [r2, #8]
				break;
 8003080:	e2fd      	b.n	800367e <GPIO_VidPin_Mode_Output+0x242e>
						else if(Copy_u8Speed==Fast_Speed){/*Enable Compensation Cell*/Set_Bit(GPIO_D->OSPEEDR,GPIO_OSPEEDR_4_Fast);}
 8003082:	793b      	ldrb	r3, [r7, #4]
 8003084:	2b06      	cmp	r3, #6
 8003086:	d106      	bne.n	8003096 <GPIO_VidPin_Mode_Output+0x1e46>
 8003088:	4a61      	ldr	r2, [pc, #388]	; (8003210 <GPIO_VidPin_Mode_Output+0x1fc0>)
 800308a:	4b61      	ldr	r3, [pc, #388]	; (8003210 <GPIO_VidPin_Mode_Output+0x1fc0>)
 800308c:	689b      	ldr	r3, [r3, #8]
 800308e:	f443 7300 	orr.w	r3, r3, #512	; 0x200
 8003092:	6093      	str	r3, [r2, #8]
				break;
 8003094:	e2f3      	b.n	800367e <GPIO_VidPin_Mode_Output+0x242e>
						else if(Copy_u8Speed==High_Speed){/*Enable Compensation Cell*/Set_Bit(GPIO_D->OSPEEDR,GPIO_OSPEEDR_4_HI);}
 8003096:	793b      	ldrb	r3, [r7, #4]
 8003098:	2b07      	cmp	r3, #7
 800309a:	f040 82f0 	bne.w	800367e <GPIO_VidPin_Mode_Output+0x242e>
 800309e:	4a5c      	ldr	r2, [pc, #368]	; (8003210 <GPIO_VidPin_Mode_Output+0x1fc0>)
 80030a0:	4b5b      	ldr	r3, [pc, #364]	; (8003210 <GPIO_VidPin_Mode_Output+0x1fc0>)
 80030a2:	689b      	ldr	r3, [r3, #8]
 80030a4:	f443 7340 	orr.w	r3, r3, #768	; 0x300
 80030a8:	6093      	str	r3, [r2, #8]
				break;
 80030aa:	e2e8      	b.n	800367e <GPIO_VidPin_Mode_Output+0x242e>
				case (Pin_5):
						/*Select Output Type*/
						if(Copy_u8Type==Push_Pull){Clear_Bit(GPIO_D->OTYPER,GPIO_OTYPER_5);}
 80030ac:	797b      	ldrb	r3, [r7, #5]
 80030ae:	2b08      	cmp	r3, #8
 80030b0:	d106      	bne.n	80030c0 <GPIO_VidPin_Mode_Output+0x1e70>
 80030b2:	4a57      	ldr	r2, [pc, #348]	; (8003210 <GPIO_VidPin_Mode_Output+0x1fc0>)
 80030b4:	4b56      	ldr	r3, [pc, #344]	; (8003210 <GPIO_VidPin_Mode_Output+0x1fc0>)
 80030b6:	685b      	ldr	r3, [r3, #4]
 80030b8:	f023 0320 	bic.w	r3, r3, #32
 80030bc:	6053      	str	r3, [r2, #4]
 80030be:	e00e      	b.n	80030de <GPIO_VidPin_Mode_Output+0x1e8e>
						else if (Copy_u8Type==Open_Drain)
 80030c0:	797b      	ldrb	r3, [r7, #5]
 80030c2:	2b09      	cmp	r3, #9
 80030c4:	d10b      	bne.n	80030de <GPIO_VidPin_Mode_Output+0x1e8e>
						{
							Set_Bit(GPIO_D->OTYPER,GPIO_OTYPER_5);
 80030c6:	4a52      	ldr	r2, [pc, #328]	; (8003210 <GPIO_VidPin_Mode_Output+0x1fc0>)
 80030c8:	4b51      	ldr	r3, [pc, #324]	; (8003210 <GPIO_VidPin_Mode_Output+0x1fc0>)
 80030ca:	685b      	ldr	r3, [r3, #4]
 80030cc:	f043 0320 	orr.w	r3, r3, #32
 80030d0:	6053      	str	r3, [r2, #4]
						#if Open_Drain_Pull == Pull_Up
							Set_Bit(GPIO_D->PUPDR,GPIO_PUPDR_5_Pull_Up);
 80030d2:	4a4f      	ldr	r2, [pc, #316]	; (8003210 <GPIO_VidPin_Mode_Output+0x1fc0>)
 80030d4:	4b4e      	ldr	r3, [pc, #312]	; (8003210 <GPIO_VidPin_Mode_Output+0x1fc0>)
 80030d6:	68db      	ldr	r3, [r3, #12]
 80030d8:	f443 6380 	orr.w	r3, r3, #1024	; 0x400
 80030dc:	60d3      	str	r3, [r2, #12]
						#elif Open_Drain_Pull == Pull_Down
							Set_Bit(GPIO_D->PUPDR,GPIO_PUPDR_5_Pull_Down);
						#endif
						}
						/*Select Operating Speed*/
						if(Copy_u8Speed==Low_Speed){Clear_Bit(GPIO_D->OSPEEDR,GPIO_OSPEEDR_5_HI);}
 80030de:	793b      	ldrb	r3, [r7, #4]
 80030e0:	2b04      	cmp	r3, #4
 80030e2:	d106      	bne.n	80030f2 <GPIO_VidPin_Mode_Output+0x1ea2>
 80030e4:	4a4a      	ldr	r2, [pc, #296]	; (8003210 <GPIO_VidPin_Mode_Output+0x1fc0>)
 80030e6:	4b4a      	ldr	r3, [pc, #296]	; (8003210 <GPIO_VidPin_Mode_Output+0x1fc0>)
 80030e8:	689b      	ldr	r3, [r3, #8]
 80030ea:	f423 6340 	bic.w	r3, r3, #3072	; 0xc00
 80030ee:	6093      	str	r3, [r2, #8]
						else if(Copy_u8Speed==Medium_Speed){Set_Bit(GPIO_D->OSPEEDR,GPIO_OSPEEDR_5_Medium);}
						else if(Copy_u8Speed==Fast_Speed){/*Enable Compensation Cell*/Set_Bit(GPIO_D->OSPEEDR,GPIO_OSPEEDR_5_Fast);}
						else if(Copy_u8Speed==High_Speed){/*Enable Compensation Cell*/Set_Bit(GPIO_D->OSPEEDR,GPIO_OSPEEDR_5_HI);}
				break;
 80030f0:	e2c8      	b.n	8003684 <GPIO_VidPin_Mode_Output+0x2434>
						else if(Copy_u8Speed==Medium_Speed){Set_Bit(GPIO_D->OSPEEDR,GPIO_OSPEEDR_5_Medium);}
 80030f2:	793b      	ldrb	r3, [r7, #4]
 80030f4:	2b05      	cmp	r3, #5
 80030f6:	d106      	bne.n	8003106 <GPIO_VidPin_Mode_Output+0x1eb6>
 80030f8:	4a45      	ldr	r2, [pc, #276]	; (8003210 <GPIO_VidPin_Mode_Output+0x1fc0>)
 80030fa:	4b45      	ldr	r3, [pc, #276]	; (8003210 <GPIO_VidPin_Mode_Output+0x1fc0>)
 80030fc:	689b      	ldr	r3, [r3, #8]
 80030fe:	f443 6380 	orr.w	r3, r3, #1024	; 0x400
 8003102:	6093      	str	r3, [r2, #8]
				break;
 8003104:	e2be      	b.n	8003684 <GPIO_VidPin_Mode_Output+0x2434>
						else if(Copy_u8Speed==Fast_Speed){/*Enable Compensation Cell*/Set_Bit(GPIO_D->OSPEEDR,GPIO_OSPEEDR_5_Fast);}
 8003106:	793b      	ldrb	r3, [r7, #4]
 8003108:	2b06      	cmp	r3, #6
 800310a:	d106      	bne.n	800311a <GPIO_VidPin_Mode_Output+0x1eca>
 800310c:	4a40      	ldr	r2, [pc, #256]	; (8003210 <GPIO_VidPin_Mode_Output+0x1fc0>)
 800310e:	4b40      	ldr	r3, [pc, #256]	; (8003210 <GPIO_VidPin_Mode_Output+0x1fc0>)
 8003110:	689b      	ldr	r3, [r3, #8]
 8003112:	f443 6300 	orr.w	r3, r3, #2048	; 0x800
 8003116:	6093      	str	r3, [r2, #8]
				break;
 8003118:	e2b4      	b.n	8003684 <GPIO_VidPin_Mode_Output+0x2434>
						else if(Copy_u8Speed==High_Speed){/*Enable Compensation Cell*/Set_Bit(GPIO_D->OSPEEDR,GPIO_OSPEEDR_5_HI);}
 800311a:	793b      	ldrb	r3, [r7, #4]
 800311c:	2b07      	cmp	r3, #7
 800311e:	f040 82b1 	bne.w	8003684 <GPIO_VidPin_Mode_Output+0x2434>
 8003122:	4a3b      	ldr	r2, [pc, #236]	; (8003210 <GPIO_VidPin_Mode_Output+0x1fc0>)
 8003124:	4b3a      	ldr	r3, [pc, #232]	; (8003210 <GPIO_VidPin_Mode_Output+0x1fc0>)
 8003126:	689b      	ldr	r3, [r3, #8]
 8003128:	f443 6340 	orr.w	r3, r3, #3072	; 0xc00
 800312c:	6093      	str	r3, [r2, #8]
				break;
 800312e:	e2a9      	b.n	8003684 <GPIO_VidPin_Mode_Output+0x2434>
				case (Pin_6):
						/*Select Output Type*/
						if(Copy_u8Type==Push_Pull){Clear_Bit(GPIO_D->OTYPER,GPIO_OTYPER_6);}
 8003130:	797b      	ldrb	r3, [r7, #5]
 8003132:	2b08      	cmp	r3, #8
 8003134:	d106      	bne.n	8003144 <GPIO_VidPin_Mode_Output+0x1ef4>
 8003136:	4a36      	ldr	r2, [pc, #216]	; (8003210 <GPIO_VidPin_Mode_Output+0x1fc0>)
 8003138:	4b35      	ldr	r3, [pc, #212]	; (8003210 <GPIO_VidPin_Mode_Output+0x1fc0>)
 800313a:	685b      	ldr	r3, [r3, #4]
 800313c:	f023 0340 	bic.w	r3, r3, #64	; 0x40
 8003140:	6053      	str	r3, [r2, #4]
 8003142:	e00e      	b.n	8003162 <GPIO_VidPin_Mode_Output+0x1f12>
						else if (Copy_u8Type==Open_Drain)
 8003144:	797b      	ldrb	r3, [r7, #5]
 8003146:	2b09      	cmp	r3, #9
 8003148:	d10b      	bne.n	8003162 <GPIO_VidPin_Mode_Output+0x1f12>
						{
							Set_Bit(GPIO_D->OTYPER,GPIO_OTYPER_6);
 800314a:	4a31      	ldr	r2, [pc, #196]	; (8003210 <GPIO_VidPin_Mode_Output+0x1fc0>)
 800314c:	4b30      	ldr	r3, [pc, #192]	; (8003210 <GPIO_VidPin_Mode_Output+0x1fc0>)
 800314e:	685b      	ldr	r3, [r3, #4]
 8003150:	f043 0340 	orr.w	r3, r3, #64	; 0x40
 8003154:	6053      	str	r3, [r2, #4]
						#if Open_Drain_Pull == Pull_Up
							Set_Bit(GPIO_D->PUPDR,GPIO_PUPDR_6_Pull_Up);
 8003156:	4a2e      	ldr	r2, [pc, #184]	; (8003210 <GPIO_VidPin_Mode_Output+0x1fc0>)
 8003158:	4b2d      	ldr	r3, [pc, #180]	; (8003210 <GPIO_VidPin_Mode_Output+0x1fc0>)
 800315a:	68db      	ldr	r3, [r3, #12]
 800315c:	f443 5380 	orr.w	r3, r3, #4096	; 0x1000
 8003160:	60d3      	str	r3, [r2, #12]
						#elif Open_Drain_Pull == Pull_Down
							Set_Bit(GPIO_D->PUPDR,GPIO_PUPDR_6_Pull_Down);
						#endif
						}
						/*Select Operating Speed*/
						if(Copy_u8Speed==Low_Speed){Clear_Bit(GPIO_D->OSPEEDR,GPIO_OSPEEDR_6_HI);}
 8003162:	793b      	ldrb	r3, [r7, #4]
 8003164:	2b04      	cmp	r3, #4
 8003166:	d106      	bne.n	8003176 <GPIO_VidPin_Mode_Output+0x1f26>
 8003168:	4a29      	ldr	r2, [pc, #164]	; (8003210 <GPIO_VidPin_Mode_Output+0x1fc0>)
 800316a:	4b29      	ldr	r3, [pc, #164]	; (8003210 <GPIO_VidPin_Mode_Output+0x1fc0>)
 800316c:	689b      	ldr	r3, [r3, #8]
 800316e:	f423 5340 	bic.w	r3, r3, #12288	; 0x3000
 8003172:	6093      	str	r3, [r2, #8]
						else if(Copy_u8Speed==Medium_Speed){Set_Bit(GPIO_D->OSPEEDR,GPIO_OSPEEDR_6_Medium);}
						else if(Copy_u8Speed==Fast_Speed){/*Enable Compensation Cell*/Set_Bit(GPIO_D->OSPEEDR,GPIO_OSPEEDR_6_Fast);}
						else if(Copy_u8Speed==High_Speed){/*Enable Compensation Cell*/Set_Bit(GPIO_D->OSPEEDR,GPIO_OSPEEDR_6_HI);}
				break;
 8003174:	e289      	b.n	800368a <GPIO_VidPin_Mode_Output+0x243a>
						else if(Copy_u8Speed==Medium_Speed){Set_Bit(GPIO_D->OSPEEDR,GPIO_OSPEEDR_6_Medium);}
 8003176:	793b      	ldrb	r3, [r7, #4]
 8003178:	2b05      	cmp	r3, #5
 800317a:	d106      	bne.n	800318a <GPIO_VidPin_Mode_Output+0x1f3a>
 800317c:	4a24      	ldr	r2, [pc, #144]	; (8003210 <GPIO_VidPin_Mode_Output+0x1fc0>)
 800317e:	4b24      	ldr	r3, [pc, #144]	; (8003210 <GPIO_VidPin_Mode_Output+0x1fc0>)
 8003180:	689b      	ldr	r3, [r3, #8]
 8003182:	f443 5380 	orr.w	r3, r3, #4096	; 0x1000
 8003186:	6093      	str	r3, [r2, #8]
				break;
 8003188:	e27f      	b.n	800368a <GPIO_VidPin_Mode_Output+0x243a>
						else if(Copy_u8Speed==Fast_Speed){/*Enable Compensation Cell*/Set_Bit(GPIO_D->OSPEEDR,GPIO_OSPEEDR_6_Fast);}
 800318a:	793b      	ldrb	r3, [r7, #4]
 800318c:	2b06      	cmp	r3, #6
 800318e:	d106      	bne.n	800319e <GPIO_VidPin_Mode_Output+0x1f4e>
 8003190:	4a1f      	ldr	r2, [pc, #124]	; (8003210 <GPIO_VidPin_Mode_Output+0x1fc0>)
 8003192:	4b1f      	ldr	r3, [pc, #124]	; (8003210 <GPIO_VidPin_Mode_Output+0x1fc0>)
 8003194:	689b      	ldr	r3, [r3, #8]
 8003196:	f443 5300 	orr.w	r3, r3, #8192	; 0x2000
 800319a:	6093      	str	r3, [r2, #8]
				break;
 800319c:	e275      	b.n	800368a <GPIO_VidPin_Mode_Output+0x243a>
						else if(Copy_u8Speed==High_Speed){/*Enable Compensation Cell*/Set_Bit(GPIO_D->OSPEEDR,GPIO_OSPEEDR_6_HI);}
 800319e:	793b      	ldrb	r3, [r7, #4]
 80031a0:	2b07      	cmp	r3, #7
 80031a2:	f040 8272 	bne.w	800368a <GPIO_VidPin_Mode_Output+0x243a>
 80031a6:	4a1a      	ldr	r2, [pc, #104]	; (8003210 <GPIO_VidPin_Mode_Output+0x1fc0>)
 80031a8:	4b19      	ldr	r3, [pc, #100]	; (8003210 <GPIO_VidPin_Mode_Output+0x1fc0>)
 80031aa:	689b      	ldr	r3, [r3, #8]
 80031ac:	f443 5340 	orr.w	r3, r3, #12288	; 0x3000
 80031b0:	6093      	str	r3, [r2, #8]
				break;
 80031b2:	e26a      	b.n	800368a <GPIO_VidPin_Mode_Output+0x243a>
				case (Pin_7):
						/*Select Output Type*/
						if(Copy_u8Type==Push_Pull){Clear_Bit(GPIO_D->OTYPER,GPIO_OTYPER_7);}
 80031b4:	797b      	ldrb	r3, [r7, #5]
 80031b6:	2b08      	cmp	r3, #8
 80031b8:	d106      	bne.n	80031c8 <GPIO_VidPin_Mode_Output+0x1f78>
 80031ba:	4a15      	ldr	r2, [pc, #84]	; (8003210 <GPIO_VidPin_Mode_Output+0x1fc0>)
 80031bc:	4b14      	ldr	r3, [pc, #80]	; (8003210 <GPIO_VidPin_Mode_Output+0x1fc0>)
 80031be:	685b      	ldr	r3, [r3, #4]
 80031c0:	f023 0380 	bic.w	r3, r3, #128	; 0x80
 80031c4:	6053      	str	r3, [r2, #4]
 80031c6:	e00e      	b.n	80031e6 <GPIO_VidPin_Mode_Output+0x1f96>
						else if (Copy_u8Type==Open_Drain)
 80031c8:	797b      	ldrb	r3, [r7, #5]
 80031ca:	2b09      	cmp	r3, #9
 80031cc:	d10b      	bne.n	80031e6 <GPIO_VidPin_Mode_Output+0x1f96>
						{
							Set_Bit(GPIO_D->OTYPER,GPIO_OTYPER_7);
 80031ce:	4a10      	ldr	r2, [pc, #64]	; (8003210 <GPIO_VidPin_Mode_Output+0x1fc0>)
 80031d0:	4b0f      	ldr	r3, [pc, #60]	; (8003210 <GPIO_VidPin_Mode_Output+0x1fc0>)
 80031d2:	685b      	ldr	r3, [r3, #4]
 80031d4:	f043 0380 	orr.w	r3, r3, #128	; 0x80
 80031d8:	6053      	str	r3, [r2, #4]
						#if Open_Drain_Pull == Pull_Up
							Set_Bit(GPIO_D->PUPDR,GPIO_PUPDR_7_Pull_Up);
 80031da:	4a0d      	ldr	r2, [pc, #52]	; (8003210 <GPIO_VidPin_Mode_Output+0x1fc0>)
 80031dc:	4b0c      	ldr	r3, [pc, #48]	; (8003210 <GPIO_VidPin_Mode_Output+0x1fc0>)
 80031de:	68db      	ldr	r3, [r3, #12]
 80031e0:	f443 4380 	orr.w	r3, r3, #16384	; 0x4000
 80031e4:	60d3      	str	r3, [r2, #12]
						#elif Open_Drain_Pull == Pull_Down
							Set_Bit(GPIO_D->PUPDR,GPIO_PUPDR_7_Pull_Down);
						#endif
						}
						/*Select Operating Speed*/
						if(Copy_u8Speed==Low_Speed){Clear_Bit(GPIO_D->OSPEEDR,GPIO_OSPEEDR_7_HI);}
 80031e6:	793b      	ldrb	r3, [r7, #4]
 80031e8:	2b04      	cmp	r3, #4
 80031ea:	d106      	bne.n	80031fa <GPIO_VidPin_Mode_Output+0x1faa>
 80031ec:	4a08      	ldr	r2, [pc, #32]	; (8003210 <GPIO_VidPin_Mode_Output+0x1fc0>)
 80031ee:	4b08      	ldr	r3, [pc, #32]	; (8003210 <GPIO_VidPin_Mode_Output+0x1fc0>)
 80031f0:	689b      	ldr	r3, [r3, #8]
 80031f2:	f423 4340 	bic.w	r3, r3, #49152	; 0xc000
 80031f6:	6093      	str	r3, [r2, #8]
						else if(Copy_u8Speed==Medium_Speed){Set_Bit(GPIO_D->OSPEEDR,GPIO_OSPEEDR_7_Medium);}
						else if(Copy_u8Speed==Fast_Speed){/*Enable Compensation Cell*/Set_Bit(GPIO_D->OSPEEDR,GPIO_OSPEEDR_7_Fast);}
						else if(Copy_u8Speed==High_Speed){/*Enable Compensation Cell*/Set_Bit(GPIO_D->OSPEEDR,GPIO_OSPEEDR_7_HI);}
				break;
 80031f8:	e24a      	b.n	8003690 <GPIO_VidPin_Mode_Output+0x2440>
						else if(Copy_u8Speed==Medium_Speed){Set_Bit(GPIO_D->OSPEEDR,GPIO_OSPEEDR_7_Medium);}
 80031fa:	793b      	ldrb	r3, [r7, #4]
 80031fc:	2b05      	cmp	r3, #5
 80031fe:	d109      	bne.n	8003214 <GPIO_VidPin_Mode_Output+0x1fc4>
 8003200:	4a03      	ldr	r2, [pc, #12]	; (8003210 <GPIO_VidPin_Mode_Output+0x1fc0>)
 8003202:	4b03      	ldr	r3, [pc, #12]	; (8003210 <GPIO_VidPin_Mode_Output+0x1fc0>)
 8003204:	689b      	ldr	r3, [r3, #8]
 8003206:	f443 4380 	orr.w	r3, r3, #16384	; 0x4000
 800320a:	6093      	str	r3, [r2, #8]
				break;
 800320c:	e240      	b.n	8003690 <GPIO_VidPin_Mode_Output+0x2440>
 800320e:	bf00      	nop
 8003210:	40020c00 	.word	0x40020c00
						else if(Copy_u8Speed==Fast_Speed){/*Enable Compensation Cell*/Set_Bit(GPIO_D->OSPEEDR,GPIO_OSPEEDR_7_Fast);}
 8003214:	793b      	ldrb	r3, [r7, #4]
 8003216:	2b06      	cmp	r3, #6
 8003218:	d106      	bne.n	8003228 <GPIO_VidPin_Mode_Output+0x1fd8>
 800321a:	4a92      	ldr	r2, [pc, #584]	; (8003464 <GPIO_VidPin_Mode_Output+0x2214>)
 800321c:	4b91      	ldr	r3, [pc, #580]	; (8003464 <GPIO_VidPin_Mode_Output+0x2214>)
 800321e:	689b      	ldr	r3, [r3, #8]
 8003220:	f443 4300 	orr.w	r3, r3, #32768	; 0x8000
 8003224:	6093      	str	r3, [r2, #8]
				break;
 8003226:	e233      	b.n	8003690 <GPIO_VidPin_Mode_Output+0x2440>
						else if(Copy_u8Speed==High_Speed){/*Enable Compensation Cell*/Set_Bit(GPIO_D->OSPEEDR,GPIO_OSPEEDR_7_HI);}
 8003228:	793b      	ldrb	r3, [r7, #4]
 800322a:	2b07      	cmp	r3, #7
 800322c:	f040 8230 	bne.w	8003690 <GPIO_VidPin_Mode_Output+0x2440>
 8003230:	4a8c      	ldr	r2, [pc, #560]	; (8003464 <GPIO_VidPin_Mode_Output+0x2214>)
 8003232:	4b8c      	ldr	r3, [pc, #560]	; (8003464 <GPIO_VidPin_Mode_Output+0x2214>)
 8003234:	689b      	ldr	r3, [r3, #8]
 8003236:	f443 4340 	orr.w	r3, r3, #49152	; 0xc000
 800323a:	6093      	str	r3, [r2, #8]
				break;
 800323c:	e228      	b.n	8003690 <GPIO_VidPin_Mode_Output+0x2440>
				case (Pin_8):
						/*Select Output Type*/
						if(Copy_u8Type==Push_Pull){Clear_Bit(GPIO_D->OTYPER,GPIO_OTYPER_8);}
 800323e:	797b      	ldrb	r3, [r7, #5]
 8003240:	2b08      	cmp	r3, #8
 8003242:	d106      	bne.n	8003252 <GPIO_VidPin_Mode_Output+0x2002>
 8003244:	4a87      	ldr	r2, [pc, #540]	; (8003464 <GPIO_VidPin_Mode_Output+0x2214>)
 8003246:	4b87      	ldr	r3, [pc, #540]	; (8003464 <GPIO_VidPin_Mode_Output+0x2214>)
 8003248:	685b      	ldr	r3, [r3, #4]
 800324a:	f423 7380 	bic.w	r3, r3, #256	; 0x100
 800324e:	6053      	str	r3, [r2, #4]
 8003250:	e00e      	b.n	8003270 <GPIO_VidPin_Mode_Output+0x2020>
						else if (Copy_u8Type==Open_Drain)
 8003252:	797b      	ldrb	r3, [r7, #5]
 8003254:	2b09      	cmp	r3, #9
 8003256:	d10b      	bne.n	8003270 <GPIO_VidPin_Mode_Output+0x2020>
						{
							Set_Bit(GPIO_D->OTYPER,GPIO_OTYPER_8);
 8003258:	4a82      	ldr	r2, [pc, #520]	; (8003464 <GPIO_VidPin_Mode_Output+0x2214>)
 800325a:	4b82      	ldr	r3, [pc, #520]	; (8003464 <GPIO_VidPin_Mode_Output+0x2214>)
 800325c:	685b      	ldr	r3, [r3, #4]
 800325e:	f443 7380 	orr.w	r3, r3, #256	; 0x100
 8003262:	6053      	str	r3, [r2, #4]
						#if Open_Drain_Pull == Pull_Up
							Set_Bit(GPIO_D->PUPDR,GPIO_PUPDR_8_Pull_Up);
 8003264:	4a7f      	ldr	r2, [pc, #508]	; (8003464 <GPIO_VidPin_Mode_Output+0x2214>)
 8003266:	4b7f      	ldr	r3, [pc, #508]	; (8003464 <GPIO_VidPin_Mode_Output+0x2214>)
 8003268:	68db      	ldr	r3, [r3, #12]
 800326a:	f443 3380 	orr.w	r3, r3, #65536	; 0x10000
 800326e:	60d3      	str	r3, [r2, #12]
						#elif Open_Drain_Pull == Pull_Down
							Set_Bit(GPIO_D->PUPDR,GPIO_PUPDR_8_Pull_Down);
						#endif
						}
						/*Select Operating Speed*/
						if(Copy_u8Speed==Low_Speed){Clear_Bit(GPIO_D->OSPEEDR,GPIO_OSPEEDR_8_HI);}
 8003270:	793b      	ldrb	r3, [r7, #4]
 8003272:	2b04      	cmp	r3, #4
 8003274:	d106      	bne.n	8003284 <GPIO_VidPin_Mode_Output+0x2034>
 8003276:	4a7b      	ldr	r2, [pc, #492]	; (8003464 <GPIO_VidPin_Mode_Output+0x2214>)
 8003278:	4b7a      	ldr	r3, [pc, #488]	; (8003464 <GPIO_VidPin_Mode_Output+0x2214>)
 800327a:	689b      	ldr	r3, [r3, #8]
 800327c:	f423 3340 	bic.w	r3, r3, #196608	; 0x30000
 8003280:	6093      	str	r3, [r2, #8]
						else if(Copy_u8Speed==Medium_Speed){Set_Bit(GPIO_D->OSPEEDR,GPIO_OSPEEDR_8_Medium);}
						else if(Copy_u8Speed==Fast_Speed){/*Enable Compensation Cell*/Set_Bit(GPIO_D->OSPEEDR,GPIO_OSPEEDR_8_Fast);}
						else if(Copy_u8Speed==High_Speed){/*Enable Compensation Cell*/Set_Bit(GPIO_D->OSPEEDR,GPIO_OSPEEDR_8_HI);}
				break;
 8003282:	e208      	b.n	8003696 <GPIO_VidPin_Mode_Output+0x2446>
						else if(Copy_u8Speed==Medium_Speed){Set_Bit(GPIO_D->OSPEEDR,GPIO_OSPEEDR_8_Medium);}
 8003284:	793b      	ldrb	r3, [r7, #4]
 8003286:	2b05      	cmp	r3, #5
 8003288:	d106      	bne.n	8003298 <GPIO_VidPin_Mode_Output+0x2048>
 800328a:	4a76      	ldr	r2, [pc, #472]	; (8003464 <GPIO_VidPin_Mode_Output+0x2214>)
 800328c:	4b75      	ldr	r3, [pc, #468]	; (8003464 <GPIO_VidPin_Mode_Output+0x2214>)
 800328e:	689b      	ldr	r3, [r3, #8]
 8003290:	f443 3380 	orr.w	r3, r3, #65536	; 0x10000
 8003294:	6093      	str	r3, [r2, #8]
				break;
 8003296:	e1fe      	b.n	8003696 <GPIO_VidPin_Mode_Output+0x2446>
						else if(Copy_u8Speed==Fast_Speed){/*Enable Compensation Cell*/Set_Bit(GPIO_D->OSPEEDR,GPIO_OSPEEDR_8_Fast);}
 8003298:	793b      	ldrb	r3, [r7, #4]
 800329a:	2b06      	cmp	r3, #6
 800329c:	d106      	bne.n	80032ac <GPIO_VidPin_Mode_Output+0x205c>
 800329e:	4a71      	ldr	r2, [pc, #452]	; (8003464 <GPIO_VidPin_Mode_Output+0x2214>)
 80032a0:	4b70      	ldr	r3, [pc, #448]	; (8003464 <GPIO_VidPin_Mode_Output+0x2214>)
 80032a2:	689b      	ldr	r3, [r3, #8]
 80032a4:	f443 3300 	orr.w	r3, r3, #131072	; 0x20000
 80032a8:	6093      	str	r3, [r2, #8]
				break;
 80032aa:	e1f4      	b.n	8003696 <GPIO_VidPin_Mode_Output+0x2446>
						else if(Copy_u8Speed==High_Speed){/*Enable Compensation Cell*/Set_Bit(GPIO_D->OSPEEDR,GPIO_OSPEEDR_8_HI);}
 80032ac:	793b      	ldrb	r3, [r7, #4]
 80032ae:	2b07      	cmp	r3, #7
 80032b0:	f040 81f1 	bne.w	8003696 <GPIO_VidPin_Mode_Output+0x2446>
 80032b4:	4a6b      	ldr	r2, [pc, #428]	; (8003464 <GPIO_VidPin_Mode_Output+0x2214>)
 80032b6:	4b6b      	ldr	r3, [pc, #428]	; (8003464 <GPIO_VidPin_Mode_Output+0x2214>)
 80032b8:	689b      	ldr	r3, [r3, #8]
 80032ba:	f443 3340 	orr.w	r3, r3, #196608	; 0x30000
 80032be:	6093      	str	r3, [r2, #8]
				break;
 80032c0:	e1e9      	b.n	8003696 <GPIO_VidPin_Mode_Output+0x2446>
				case (Pin_9):
						/*Select Output Type*/
						if(Copy_u8Type==Push_Pull){Clear_Bit(GPIO_D->OTYPER,GPIO_OTYPER_9);}
 80032c2:	797b      	ldrb	r3, [r7, #5]
 80032c4:	2b08      	cmp	r3, #8
 80032c6:	d106      	bne.n	80032d6 <GPIO_VidPin_Mode_Output+0x2086>
 80032c8:	4a66      	ldr	r2, [pc, #408]	; (8003464 <GPIO_VidPin_Mode_Output+0x2214>)
 80032ca:	4b66      	ldr	r3, [pc, #408]	; (8003464 <GPIO_VidPin_Mode_Output+0x2214>)
 80032cc:	685b      	ldr	r3, [r3, #4]
 80032ce:	f423 7300 	bic.w	r3, r3, #512	; 0x200
 80032d2:	6053      	str	r3, [r2, #4]
 80032d4:	e00e      	b.n	80032f4 <GPIO_VidPin_Mode_Output+0x20a4>
						else if (Copy_u8Type==Open_Drain)
 80032d6:	797b      	ldrb	r3, [r7, #5]
 80032d8:	2b09      	cmp	r3, #9
 80032da:	d10b      	bne.n	80032f4 <GPIO_VidPin_Mode_Output+0x20a4>
						{
							Set_Bit(GPIO_D->OTYPER,GPIO_OTYPER_9);
 80032dc:	4a61      	ldr	r2, [pc, #388]	; (8003464 <GPIO_VidPin_Mode_Output+0x2214>)
 80032de:	4b61      	ldr	r3, [pc, #388]	; (8003464 <GPIO_VidPin_Mode_Output+0x2214>)
 80032e0:	685b      	ldr	r3, [r3, #4]
 80032e2:	f443 7300 	orr.w	r3, r3, #512	; 0x200
 80032e6:	6053      	str	r3, [r2, #4]
						#if Open_Drain_Pull == Pull_Up
							Set_Bit(GPIO_D->PUPDR,GPIO_PUPDR_9_Pull_Up);
 80032e8:	4a5e      	ldr	r2, [pc, #376]	; (8003464 <GPIO_VidPin_Mode_Output+0x2214>)
 80032ea:	4b5e      	ldr	r3, [pc, #376]	; (8003464 <GPIO_VidPin_Mode_Output+0x2214>)
 80032ec:	68db      	ldr	r3, [r3, #12]
 80032ee:	f443 2380 	orr.w	r3, r3, #262144	; 0x40000
 80032f2:	60d3      	str	r3, [r2, #12]
						#elif Open_Drain_Pull == Pull_Down
							Set_Bit(GPIO_D->PUPDR,GPIO_PUPDR_9_Pull_Down);
						#endif
						}
						/*Select Operating Speed*/
						if(Copy_u8Speed==Low_Speed){Clear_Bit(GPIO_D->OSPEEDR,GPIO_OSPEEDR_9_HI);}
 80032f4:	793b      	ldrb	r3, [r7, #4]
 80032f6:	2b04      	cmp	r3, #4
 80032f8:	d106      	bne.n	8003308 <GPIO_VidPin_Mode_Output+0x20b8>
 80032fa:	4a5a      	ldr	r2, [pc, #360]	; (8003464 <GPIO_VidPin_Mode_Output+0x2214>)
 80032fc:	4b59      	ldr	r3, [pc, #356]	; (8003464 <GPIO_VidPin_Mode_Output+0x2214>)
 80032fe:	689b      	ldr	r3, [r3, #8]
 8003300:	f423 2340 	bic.w	r3, r3, #786432	; 0xc0000
 8003304:	6093      	str	r3, [r2, #8]
						else if(Copy_u8Speed==Medium_Speed){Set_Bit(GPIO_D->OSPEEDR,GPIO_OSPEEDR_9_Medium);}
						else if(Copy_u8Speed==Fast_Speed){/*Enable Compensation Cell*/Set_Bit(GPIO_D->OSPEEDR,GPIO_OSPEEDR_9_Fast);}
						else if(Copy_u8Speed==High_Speed){/*Enable Compensation Cell*/Set_Bit(GPIO_D->OSPEEDR,GPIO_OSPEEDR_9_HI);}
				break;
 8003306:	e1c9      	b.n	800369c <GPIO_VidPin_Mode_Output+0x244c>
						else if(Copy_u8Speed==Medium_Speed){Set_Bit(GPIO_D->OSPEEDR,GPIO_OSPEEDR_9_Medium);}
 8003308:	793b      	ldrb	r3, [r7, #4]
 800330a:	2b05      	cmp	r3, #5
 800330c:	d106      	bne.n	800331c <GPIO_VidPin_Mode_Output+0x20cc>
 800330e:	4a55      	ldr	r2, [pc, #340]	; (8003464 <GPIO_VidPin_Mode_Output+0x2214>)
 8003310:	4b54      	ldr	r3, [pc, #336]	; (8003464 <GPIO_VidPin_Mode_Output+0x2214>)
 8003312:	689b      	ldr	r3, [r3, #8]
 8003314:	f443 2380 	orr.w	r3, r3, #262144	; 0x40000
 8003318:	6093      	str	r3, [r2, #8]
				break;
 800331a:	e1bf      	b.n	800369c <GPIO_VidPin_Mode_Output+0x244c>
						else if(Copy_u8Speed==Fast_Speed){/*Enable Compensation Cell*/Set_Bit(GPIO_D->OSPEEDR,GPIO_OSPEEDR_9_Fast);}
 800331c:	793b      	ldrb	r3, [r7, #4]
 800331e:	2b06      	cmp	r3, #6
 8003320:	d106      	bne.n	8003330 <GPIO_VidPin_Mode_Output+0x20e0>
 8003322:	4a50      	ldr	r2, [pc, #320]	; (8003464 <GPIO_VidPin_Mode_Output+0x2214>)
 8003324:	4b4f      	ldr	r3, [pc, #316]	; (8003464 <GPIO_VidPin_Mode_Output+0x2214>)
 8003326:	689b      	ldr	r3, [r3, #8]
 8003328:	f443 2300 	orr.w	r3, r3, #524288	; 0x80000
 800332c:	6093      	str	r3, [r2, #8]
				break;
 800332e:	e1b5      	b.n	800369c <GPIO_VidPin_Mode_Output+0x244c>
						else if(Copy_u8Speed==High_Speed){/*Enable Compensation Cell*/Set_Bit(GPIO_D->OSPEEDR,GPIO_OSPEEDR_9_HI);}
 8003330:	793b      	ldrb	r3, [r7, #4]
 8003332:	2b07      	cmp	r3, #7
 8003334:	f040 81b2 	bne.w	800369c <GPIO_VidPin_Mode_Output+0x244c>
 8003338:	4a4a      	ldr	r2, [pc, #296]	; (8003464 <GPIO_VidPin_Mode_Output+0x2214>)
 800333a:	4b4a      	ldr	r3, [pc, #296]	; (8003464 <GPIO_VidPin_Mode_Output+0x2214>)
 800333c:	689b      	ldr	r3, [r3, #8]
 800333e:	f443 2340 	orr.w	r3, r3, #786432	; 0xc0000
 8003342:	6093      	str	r3, [r2, #8]
				break;
 8003344:	e1aa      	b.n	800369c <GPIO_VidPin_Mode_Output+0x244c>
				case (Pin_10):
						/*Select Output Type*/
						if(Copy_u8Type==Push_Pull){Clear_Bit(GPIO_D->OTYPER,GPIO_OTYPER_10);}
 8003346:	797b      	ldrb	r3, [r7, #5]
 8003348:	2b08      	cmp	r3, #8
 800334a:	d106      	bne.n	800335a <GPIO_VidPin_Mode_Output+0x210a>
 800334c:	4a45      	ldr	r2, [pc, #276]	; (8003464 <GPIO_VidPin_Mode_Output+0x2214>)
 800334e:	4b45      	ldr	r3, [pc, #276]	; (8003464 <GPIO_VidPin_Mode_Output+0x2214>)
 8003350:	685b      	ldr	r3, [r3, #4]
 8003352:	f423 6380 	bic.w	r3, r3, #1024	; 0x400
 8003356:	6053      	str	r3, [r2, #4]
 8003358:	e00e      	b.n	8003378 <GPIO_VidPin_Mode_Output+0x2128>
						else if (Copy_u8Type==Open_Drain)
 800335a:	797b      	ldrb	r3, [r7, #5]
 800335c:	2b09      	cmp	r3, #9
 800335e:	d10b      	bne.n	8003378 <GPIO_VidPin_Mode_Output+0x2128>
						{
							Set_Bit(GPIO_D->OTYPER,GPIO_OTYPER_10);
 8003360:	4a40      	ldr	r2, [pc, #256]	; (8003464 <GPIO_VidPin_Mode_Output+0x2214>)
 8003362:	4b40      	ldr	r3, [pc, #256]	; (8003464 <GPIO_VidPin_Mode_Output+0x2214>)
 8003364:	685b      	ldr	r3, [r3, #4]
 8003366:	f443 6380 	orr.w	r3, r3, #1024	; 0x400
 800336a:	6053      	str	r3, [r2, #4]
						#if Open_Drain_Pull == Pull_Up
							Set_Bit(GPIO_D->PUPDR,GPIO_PUPDR_10_Pull_Up);
 800336c:	4a3d      	ldr	r2, [pc, #244]	; (8003464 <GPIO_VidPin_Mode_Output+0x2214>)
 800336e:	4b3d      	ldr	r3, [pc, #244]	; (8003464 <GPIO_VidPin_Mode_Output+0x2214>)
 8003370:	68db      	ldr	r3, [r3, #12]
 8003372:	f443 1380 	orr.w	r3, r3, #1048576	; 0x100000
 8003376:	60d3      	str	r3, [r2, #12]
						#elif Open_Drain_Pull == Pull_Down
							Set_Bit(GPIO_D->PUPDR,GPIO_PUPDR_10_Pull_Down);
						#endif
						}
						/*Select Operating Speed*/
						if(Copy_u8Speed==Low_Speed){Clear_Bit(GPIO_D->OSPEEDR,GPIO_OSPEEDR_10_HI);}
 8003378:	793b      	ldrb	r3, [r7, #4]
 800337a:	2b04      	cmp	r3, #4
 800337c:	d106      	bne.n	800338c <GPIO_VidPin_Mode_Output+0x213c>
 800337e:	4a39      	ldr	r2, [pc, #228]	; (8003464 <GPIO_VidPin_Mode_Output+0x2214>)
 8003380:	4b38      	ldr	r3, [pc, #224]	; (8003464 <GPIO_VidPin_Mode_Output+0x2214>)
 8003382:	689b      	ldr	r3, [r3, #8]
 8003384:	f423 1340 	bic.w	r3, r3, #3145728	; 0x300000
 8003388:	6093      	str	r3, [r2, #8]
						else if(Copy_u8Speed==Medium_Speed){Set_Bit(GPIO_D->OSPEEDR,GPIO_OSPEEDR_10_Medium);}
						else if(Copy_u8Speed==Fast_Speed){/*Enable Compensation Cell*/Set_Bit(GPIO_D->OSPEEDR,GPIO_OSPEEDR_10_Fast);}
						else if(Copy_u8Speed==High_Speed){/*Enable Compensation Cell*/Set_Bit(GPIO_D->OSPEEDR,GPIO_OSPEEDR_10_HI);}
				break;
 800338a:	e18a      	b.n	80036a2 <GPIO_VidPin_Mode_Output+0x2452>
						else if(Copy_u8Speed==Medium_Speed){Set_Bit(GPIO_D->OSPEEDR,GPIO_OSPEEDR_10_Medium);}
 800338c:	793b      	ldrb	r3, [r7, #4]
 800338e:	2b05      	cmp	r3, #5
 8003390:	d106      	bne.n	80033a0 <GPIO_VidPin_Mode_Output+0x2150>
 8003392:	4a34      	ldr	r2, [pc, #208]	; (8003464 <GPIO_VidPin_Mode_Output+0x2214>)
 8003394:	4b33      	ldr	r3, [pc, #204]	; (8003464 <GPIO_VidPin_Mode_Output+0x2214>)
 8003396:	689b      	ldr	r3, [r3, #8]
 8003398:	f443 1380 	orr.w	r3, r3, #1048576	; 0x100000
 800339c:	6093      	str	r3, [r2, #8]
				break;
 800339e:	e180      	b.n	80036a2 <GPIO_VidPin_Mode_Output+0x2452>
						else if(Copy_u8Speed==Fast_Speed){/*Enable Compensation Cell*/Set_Bit(GPIO_D->OSPEEDR,GPIO_OSPEEDR_10_Fast);}
 80033a0:	793b      	ldrb	r3, [r7, #4]
 80033a2:	2b06      	cmp	r3, #6
 80033a4:	d106      	bne.n	80033b4 <GPIO_VidPin_Mode_Output+0x2164>
 80033a6:	4a2f      	ldr	r2, [pc, #188]	; (8003464 <GPIO_VidPin_Mode_Output+0x2214>)
 80033a8:	4b2e      	ldr	r3, [pc, #184]	; (8003464 <GPIO_VidPin_Mode_Output+0x2214>)
 80033aa:	689b      	ldr	r3, [r3, #8]
 80033ac:	f443 1300 	orr.w	r3, r3, #2097152	; 0x200000
 80033b0:	6093      	str	r3, [r2, #8]
				break;
 80033b2:	e176      	b.n	80036a2 <GPIO_VidPin_Mode_Output+0x2452>
						else if(Copy_u8Speed==High_Speed){/*Enable Compensation Cell*/Set_Bit(GPIO_D->OSPEEDR,GPIO_OSPEEDR_10_HI);}
 80033b4:	793b      	ldrb	r3, [r7, #4]
 80033b6:	2b07      	cmp	r3, #7
 80033b8:	f040 8173 	bne.w	80036a2 <GPIO_VidPin_Mode_Output+0x2452>
 80033bc:	4a29      	ldr	r2, [pc, #164]	; (8003464 <GPIO_VidPin_Mode_Output+0x2214>)
 80033be:	4b29      	ldr	r3, [pc, #164]	; (8003464 <GPIO_VidPin_Mode_Output+0x2214>)
 80033c0:	689b      	ldr	r3, [r3, #8]
 80033c2:	f443 1340 	orr.w	r3, r3, #3145728	; 0x300000
 80033c6:	6093      	str	r3, [r2, #8]
				break;
 80033c8:	e16b      	b.n	80036a2 <GPIO_VidPin_Mode_Output+0x2452>
				case (Pin_11):
						/*Select Output Type*/
						if(Copy_u8Type==Push_Pull){Clear_Bit(GPIO_D->OTYPER,GPIO_OTYPER_11);}
 80033ca:	797b      	ldrb	r3, [r7, #5]
 80033cc:	2b08      	cmp	r3, #8
 80033ce:	d106      	bne.n	80033de <GPIO_VidPin_Mode_Output+0x218e>
 80033d0:	4a24      	ldr	r2, [pc, #144]	; (8003464 <GPIO_VidPin_Mode_Output+0x2214>)
 80033d2:	4b24      	ldr	r3, [pc, #144]	; (8003464 <GPIO_VidPin_Mode_Output+0x2214>)
 80033d4:	685b      	ldr	r3, [r3, #4]
 80033d6:	f423 6300 	bic.w	r3, r3, #2048	; 0x800
 80033da:	6053      	str	r3, [r2, #4]
 80033dc:	e00e      	b.n	80033fc <GPIO_VidPin_Mode_Output+0x21ac>
						else if (Copy_u8Type==Open_Drain)
 80033de:	797b      	ldrb	r3, [r7, #5]
 80033e0:	2b09      	cmp	r3, #9
 80033e2:	d10b      	bne.n	80033fc <GPIO_VidPin_Mode_Output+0x21ac>
						{
							Set_Bit(GPIO_D->OTYPER,GPIO_OTYPER_11);
 80033e4:	4a1f      	ldr	r2, [pc, #124]	; (8003464 <GPIO_VidPin_Mode_Output+0x2214>)
 80033e6:	4b1f      	ldr	r3, [pc, #124]	; (8003464 <GPIO_VidPin_Mode_Output+0x2214>)
 80033e8:	685b      	ldr	r3, [r3, #4]
 80033ea:	f443 6300 	orr.w	r3, r3, #2048	; 0x800
 80033ee:	6053      	str	r3, [r2, #4]
						#if Open_Drain_Pull == Pull_Up
							Set_Bit(GPIO_D->PUPDR,GPIO_PUPDR_11_Pull_Up);
 80033f0:	4a1c      	ldr	r2, [pc, #112]	; (8003464 <GPIO_VidPin_Mode_Output+0x2214>)
 80033f2:	4b1c      	ldr	r3, [pc, #112]	; (8003464 <GPIO_VidPin_Mode_Output+0x2214>)
 80033f4:	68db      	ldr	r3, [r3, #12]
 80033f6:	f443 0380 	orr.w	r3, r3, #4194304	; 0x400000
 80033fa:	60d3      	str	r3, [r2, #12]
						#elif Open_Drain_Pull == Pull_Down
							Set_Bit(GPIO_D->PUPDR,GPIO_PUPDR_11_Pull_Down);
						#endif
						}
						/*Select Operating Speed*/
						if(Copy_u8Speed==Low_Speed){Clear_Bit(GPIO_D->OSPEEDR,GPIO_OSPEEDR_11_HI);}
 80033fc:	793b      	ldrb	r3, [r7, #4]
 80033fe:	2b04      	cmp	r3, #4
 8003400:	d106      	bne.n	8003410 <GPIO_VidPin_Mode_Output+0x21c0>
 8003402:	4a18      	ldr	r2, [pc, #96]	; (8003464 <GPIO_VidPin_Mode_Output+0x2214>)
 8003404:	4b17      	ldr	r3, [pc, #92]	; (8003464 <GPIO_VidPin_Mode_Output+0x2214>)
 8003406:	689b      	ldr	r3, [r3, #8]
 8003408:	f423 0340 	bic.w	r3, r3, #12582912	; 0xc00000
 800340c:	6093      	str	r3, [r2, #8]
						else if(Copy_u8Speed==Medium_Speed){Set_Bit(GPIO_D->OSPEEDR,GPIO_OSPEEDR_11_Medium);}
						else if(Copy_u8Speed==Fast_Speed){/*Enable Compensation Cell*/Set_Bit(GPIO_D->OSPEEDR,GPIO_OSPEEDR_11_Fast);}
						else if(Copy_u8Speed==High_Speed){/*Enable Compensation Cell*/Set_Bit(GPIO_D->OSPEEDR,GPIO_OSPEEDR_11_HI);}
				break;
 800340e:	e14b      	b.n	80036a8 <GPIO_VidPin_Mode_Output+0x2458>
						else if(Copy_u8Speed==Medium_Speed){Set_Bit(GPIO_D->OSPEEDR,GPIO_OSPEEDR_11_Medium);}
 8003410:	793b      	ldrb	r3, [r7, #4]
 8003412:	2b05      	cmp	r3, #5
 8003414:	d106      	bne.n	8003424 <GPIO_VidPin_Mode_Output+0x21d4>
 8003416:	4a13      	ldr	r2, [pc, #76]	; (8003464 <GPIO_VidPin_Mode_Output+0x2214>)
 8003418:	4b12      	ldr	r3, [pc, #72]	; (8003464 <GPIO_VidPin_Mode_Output+0x2214>)
 800341a:	689b      	ldr	r3, [r3, #8]
 800341c:	f443 0380 	orr.w	r3, r3, #4194304	; 0x400000
 8003420:	6093      	str	r3, [r2, #8]
				break;
 8003422:	e141      	b.n	80036a8 <GPIO_VidPin_Mode_Output+0x2458>
						else if(Copy_u8Speed==Fast_Speed){/*Enable Compensation Cell*/Set_Bit(GPIO_D->OSPEEDR,GPIO_OSPEEDR_11_Fast);}
 8003424:	793b      	ldrb	r3, [r7, #4]
 8003426:	2b06      	cmp	r3, #6
 8003428:	d106      	bne.n	8003438 <GPIO_VidPin_Mode_Output+0x21e8>
 800342a:	4a0e      	ldr	r2, [pc, #56]	; (8003464 <GPIO_VidPin_Mode_Output+0x2214>)
 800342c:	4b0d      	ldr	r3, [pc, #52]	; (8003464 <GPIO_VidPin_Mode_Output+0x2214>)
 800342e:	689b      	ldr	r3, [r3, #8]
 8003430:	f443 0300 	orr.w	r3, r3, #8388608	; 0x800000
 8003434:	6093      	str	r3, [r2, #8]
				break;
 8003436:	e137      	b.n	80036a8 <GPIO_VidPin_Mode_Output+0x2458>
						else if(Copy_u8Speed==High_Speed){/*Enable Compensation Cell*/Set_Bit(GPIO_D->OSPEEDR,GPIO_OSPEEDR_11_HI);}
 8003438:	793b      	ldrb	r3, [r7, #4]
 800343a:	2b07      	cmp	r3, #7
 800343c:	f040 8134 	bne.w	80036a8 <GPIO_VidPin_Mode_Output+0x2458>
 8003440:	4a08      	ldr	r2, [pc, #32]	; (8003464 <GPIO_VidPin_Mode_Output+0x2214>)
 8003442:	4b08      	ldr	r3, [pc, #32]	; (8003464 <GPIO_VidPin_Mode_Output+0x2214>)
 8003444:	689b      	ldr	r3, [r3, #8]
 8003446:	f443 0340 	orr.w	r3, r3, #12582912	; 0xc00000
 800344a:	6093      	str	r3, [r2, #8]
				break;
 800344c:	e12c      	b.n	80036a8 <GPIO_VidPin_Mode_Output+0x2458>
				case (Pin_12):
						/*Select Output Type*/
						if(Copy_u8Type==Push_Pull){Clear_Bit(GPIO_D->OTYPER,GPIO_OTYPER_12);}
 800344e:	797b      	ldrb	r3, [r7, #5]
 8003450:	2b08      	cmp	r3, #8
 8003452:	d109      	bne.n	8003468 <GPIO_VidPin_Mode_Output+0x2218>
 8003454:	4a03      	ldr	r2, [pc, #12]	; (8003464 <GPIO_VidPin_Mode_Output+0x2214>)
 8003456:	4b03      	ldr	r3, [pc, #12]	; (8003464 <GPIO_VidPin_Mode_Output+0x2214>)
 8003458:	685b      	ldr	r3, [r3, #4]
 800345a:	f423 5380 	bic.w	r3, r3, #4096	; 0x1000
 800345e:	6053      	str	r3, [r2, #4]
 8003460:	e011      	b.n	8003486 <GPIO_VidPin_Mode_Output+0x2236>
 8003462:	bf00      	nop
 8003464:	40020c00 	.word	0x40020c00
						else if (Copy_u8Type==Open_Drain)
 8003468:	797b      	ldrb	r3, [r7, #5]
 800346a:	2b09      	cmp	r3, #9
 800346c:	d10b      	bne.n	8003486 <GPIO_VidPin_Mode_Output+0x2236>
						{
							Set_Bit(GPIO_D->OTYPER,GPIO_OTYPER_12);
 800346e:	4a96      	ldr	r2, [pc, #600]	; (80036c8 <GPIO_VidPin_Mode_Output+0x2478>)
 8003470:	4b95      	ldr	r3, [pc, #596]	; (80036c8 <GPIO_VidPin_Mode_Output+0x2478>)
 8003472:	685b      	ldr	r3, [r3, #4]
 8003474:	f443 5380 	orr.w	r3, r3, #4096	; 0x1000
 8003478:	6053      	str	r3, [r2, #4]
						#if Open_Drain_Pull == Pull_Up
							Set_Bit(GPIO_D->PUPDR,GPIO_PUPDR_12_Pull_Up);
 800347a:	4a93      	ldr	r2, [pc, #588]	; (80036c8 <GPIO_VidPin_Mode_Output+0x2478>)
 800347c:	4b92      	ldr	r3, [pc, #584]	; (80036c8 <GPIO_VidPin_Mode_Output+0x2478>)
 800347e:	68db      	ldr	r3, [r3, #12]
 8003480:	f043 7380 	orr.w	r3, r3, #16777216	; 0x1000000
 8003484:	60d3      	str	r3, [r2, #12]
						#elif Open_Drain_Pull == Pull_Down
							Set_Bit(GPIO_D->PUPDR,GPIO_PUPDR_12_Pull_Down);
						#endif
						}
						/*Select Operating Speed*/
						if(Copy_u8Speed==Low_Speed){Clear_Bit(GPIO_D->OSPEEDR,GPIO_OSPEEDR_12_HI);}
 8003486:	793b      	ldrb	r3, [r7, #4]
 8003488:	2b04      	cmp	r3, #4
 800348a:	d106      	bne.n	800349a <GPIO_VidPin_Mode_Output+0x224a>
 800348c:	4a8e      	ldr	r2, [pc, #568]	; (80036c8 <GPIO_VidPin_Mode_Output+0x2478>)
 800348e:	4b8e      	ldr	r3, [pc, #568]	; (80036c8 <GPIO_VidPin_Mode_Output+0x2478>)
 8003490:	689b      	ldr	r3, [r3, #8]
 8003492:	f023 7340 	bic.w	r3, r3, #50331648	; 0x3000000
 8003496:	6093      	str	r3, [r2, #8]
						else if(Copy_u8Speed==Medium_Speed){Set_Bit(GPIO_D->OSPEEDR,GPIO_OSPEEDR_12_Medium);}
						else if(Copy_u8Speed==Fast_Speed){/*Enable Compensation Cell*/Set_Bit(GPIO_D->OSPEEDR,GPIO_OSPEEDR_12_Fast);}
						else if(Copy_u8Speed==High_Speed){/*Enable Compensation Cell*/Set_Bit(GPIO_D->OSPEEDR,GPIO_OSPEEDR_12_HI);}
				break;
 8003498:	e109      	b.n	80036ae <GPIO_VidPin_Mode_Output+0x245e>
						else if(Copy_u8Speed==Medium_Speed){Set_Bit(GPIO_D->OSPEEDR,GPIO_OSPEEDR_12_Medium);}
 800349a:	793b      	ldrb	r3, [r7, #4]
 800349c:	2b05      	cmp	r3, #5
 800349e:	d106      	bne.n	80034ae <GPIO_VidPin_Mode_Output+0x225e>
 80034a0:	4a89      	ldr	r2, [pc, #548]	; (80036c8 <GPIO_VidPin_Mode_Output+0x2478>)
 80034a2:	4b89      	ldr	r3, [pc, #548]	; (80036c8 <GPIO_VidPin_Mode_Output+0x2478>)
 80034a4:	689b      	ldr	r3, [r3, #8]
 80034a6:	f043 7380 	orr.w	r3, r3, #16777216	; 0x1000000
 80034aa:	6093      	str	r3, [r2, #8]
				break;
 80034ac:	e0ff      	b.n	80036ae <GPIO_VidPin_Mode_Output+0x245e>
						else if(Copy_u8Speed==Fast_Speed){/*Enable Compensation Cell*/Set_Bit(GPIO_D->OSPEEDR,GPIO_OSPEEDR_12_Fast);}
 80034ae:	793b      	ldrb	r3, [r7, #4]
 80034b0:	2b06      	cmp	r3, #6
 80034b2:	d106      	bne.n	80034c2 <GPIO_VidPin_Mode_Output+0x2272>
 80034b4:	4a84      	ldr	r2, [pc, #528]	; (80036c8 <GPIO_VidPin_Mode_Output+0x2478>)
 80034b6:	4b84      	ldr	r3, [pc, #528]	; (80036c8 <GPIO_VidPin_Mode_Output+0x2478>)
 80034b8:	689b      	ldr	r3, [r3, #8]
 80034ba:	f043 7300 	orr.w	r3, r3, #33554432	; 0x2000000
 80034be:	6093      	str	r3, [r2, #8]
				break;
 80034c0:	e0f5      	b.n	80036ae <GPIO_VidPin_Mode_Output+0x245e>
						else if(Copy_u8Speed==High_Speed){/*Enable Compensation Cell*/Set_Bit(GPIO_D->OSPEEDR,GPIO_OSPEEDR_12_HI);}
 80034c2:	793b      	ldrb	r3, [r7, #4]
 80034c4:	2b07      	cmp	r3, #7
 80034c6:	f040 80f2 	bne.w	80036ae <GPIO_VidPin_Mode_Output+0x245e>
 80034ca:	4a7f      	ldr	r2, [pc, #508]	; (80036c8 <GPIO_VidPin_Mode_Output+0x2478>)
 80034cc:	4b7e      	ldr	r3, [pc, #504]	; (80036c8 <GPIO_VidPin_Mode_Output+0x2478>)
 80034ce:	689b      	ldr	r3, [r3, #8]
 80034d0:	f043 7340 	orr.w	r3, r3, #50331648	; 0x3000000
 80034d4:	6093      	str	r3, [r2, #8]
				break;
 80034d6:	e0ea      	b.n	80036ae <GPIO_VidPin_Mode_Output+0x245e>
				case (Pin_13):
						/*Select Output Type*/
						if(Copy_u8Type==Push_Pull){Clear_Bit(GPIO_D->OTYPER,GPIO_OTYPER_13);}
 80034d8:	797b      	ldrb	r3, [r7, #5]
 80034da:	2b08      	cmp	r3, #8
 80034dc:	d106      	bne.n	80034ec <GPIO_VidPin_Mode_Output+0x229c>
 80034de:	4a7a      	ldr	r2, [pc, #488]	; (80036c8 <GPIO_VidPin_Mode_Output+0x2478>)
 80034e0:	4b79      	ldr	r3, [pc, #484]	; (80036c8 <GPIO_VidPin_Mode_Output+0x2478>)
 80034e2:	685b      	ldr	r3, [r3, #4]
 80034e4:	f423 5300 	bic.w	r3, r3, #8192	; 0x2000
 80034e8:	6053      	str	r3, [r2, #4]
 80034ea:	e00e      	b.n	800350a <GPIO_VidPin_Mode_Output+0x22ba>
						else if (Copy_u8Type==Open_Drain)
 80034ec:	797b      	ldrb	r3, [r7, #5]
 80034ee:	2b09      	cmp	r3, #9
 80034f0:	d10b      	bne.n	800350a <GPIO_VidPin_Mode_Output+0x22ba>
						{
							Set_Bit(GPIO_D->OTYPER,GPIO_OTYPER_13);
 80034f2:	4a75      	ldr	r2, [pc, #468]	; (80036c8 <GPIO_VidPin_Mode_Output+0x2478>)
 80034f4:	4b74      	ldr	r3, [pc, #464]	; (80036c8 <GPIO_VidPin_Mode_Output+0x2478>)
 80034f6:	685b      	ldr	r3, [r3, #4]
 80034f8:	f443 5300 	orr.w	r3, r3, #8192	; 0x2000
 80034fc:	6053      	str	r3, [r2, #4]
						#if Open_Drain_Pull == Pull_Up
							Set_Bit(GPIO_D->PUPDR,GPIO_PUPDR_13_Pull_Up);
 80034fe:	4a72      	ldr	r2, [pc, #456]	; (80036c8 <GPIO_VidPin_Mode_Output+0x2478>)
 8003500:	4b71      	ldr	r3, [pc, #452]	; (80036c8 <GPIO_VidPin_Mode_Output+0x2478>)
 8003502:	68db      	ldr	r3, [r3, #12]
 8003504:	f043 6380 	orr.w	r3, r3, #67108864	; 0x4000000
 8003508:	60d3      	str	r3, [r2, #12]
						#elif Open_Drain_Pull == Pull_Down
							Set_Bit(GPIO_D->PUPDR,GPIO_PUPDR_13_Pull_Down);
						#endif
						}
						/*Select Operating Speed*/
						if(Copy_u8Speed==Low_Speed){Clear_Bit(GPIO_D->OSPEEDR,GPIO_OSPEEDR_13_HI);}
 800350a:	793b      	ldrb	r3, [r7, #4]
 800350c:	2b04      	cmp	r3, #4
 800350e:	d106      	bne.n	800351e <GPIO_VidPin_Mode_Output+0x22ce>
 8003510:	4a6d      	ldr	r2, [pc, #436]	; (80036c8 <GPIO_VidPin_Mode_Output+0x2478>)
 8003512:	4b6d      	ldr	r3, [pc, #436]	; (80036c8 <GPIO_VidPin_Mode_Output+0x2478>)
 8003514:	689b      	ldr	r3, [r3, #8]
 8003516:	f023 6340 	bic.w	r3, r3, #201326592	; 0xc000000
 800351a:	6093      	str	r3, [r2, #8]
						else if(Copy_u8Speed==Medium_Speed){Set_Bit(GPIO_D->OSPEEDR,GPIO_OSPEEDR_13_Medium);}
						else if(Copy_u8Speed==Fast_Speed){/*Enable Compensation Cell*/Set_Bit(GPIO_D->OSPEEDR,GPIO_OSPEEDR_13_Fast);}
						else if(Copy_u8Speed==High_Speed){/*Enable Compensation Cell*/Set_Bit(GPIO_D->OSPEEDR,GPIO_OSPEEDR_13_HI);}
				break;
 800351c:	e0ca      	b.n	80036b4 <GPIO_VidPin_Mode_Output+0x2464>
						else if(Copy_u8Speed==Medium_Speed){Set_Bit(GPIO_D->OSPEEDR,GPIO_OSPEEDR_13_Medium);}
 800351e:	793b      	ldrb	r3, [r7, #4]
 8003520:	2b05      	cmp	r3, #5
 8003522:	d106      	bne.n	8003532 <GPIO_VidPin_Mode_Output+0x22e2>
 8003524:	4a68      	ldr	r2, [pc, #416]	; (80036c8 <GPIO_VidPin_Mode_Output+0x2478>)
 8003526:	4b68      	ldr	r3, [pc, #416]	; (80036c8 <GPIO_VidPin_Mode_Output+0x2478>)
 8003528:	689b      	ldr	r3, [r3, #8]
 800352a:	f043 6380 	orr.w	r3, r3, #67108864	; 0x4000000
 800352e:	6093      	str	r3, [r2, #8]
				break;
 8003530:	e0c0      	b.n	80036b4 <GPIO_VidPin_Mode_Output+0x2464>
						else if(Copy_u8Speed==Fast_Speed){/*Enable Compensation Cell*/Set_Bit(GPIO_D->OSPEEDR,GPIO_OSPEEDR_13_Fast);}
 8003532:	793b      	ldrb	r3, [r7, #4]
 8003534:	2b06      	cmp	r3, #6
 8003536:	d106      	bne.n	8003546 <GPIO_VidPin_Mode_Output+0x22f6>
 8003538:	4a63      	ldr	r2, [pc, #396]	; (80036c8 <GPIO_VidPin_Mode_Output+0x2478>)
 800353a:	4b63      	ldr	r3, [pc, #396]	; (80036c8 <GPIO_VidPin_Mode_Output+0x2478>)
 800353c:	689b      	ldr	r3, [r3, #8]
 800353e:	f043 6300 	orr.w	r3, r3, #134217728	; 0x8000000
 8003542:	6093      	str	r3, [r2, #8]
				break;
 8003544:	e0b6      	b.n	80036b4 <GPIO_VidPin_Mode_Output+0x2464>
						else if(Copy_u8Speed==High_Speed){/*Enable Compensation Cell*/Set_Bit(GPIO_D->OSPEEDR,GPIO_OSPEEDR_13_HI);}
 8003546:	793b      	ldrb	r3, [r7, #4]
 8003548:	2b07      	cmp	r3, #7
 800354a:	f040 80b3 	bne.w	80036b4 <GPIO_VidPin_Mode_Output+0x2464>
 800354e:	4a5e      	ldr	r2, [pc, #376]	; (80036c8 <GPIO_VidPin_Mode_Output+0x2478>)
 8003550:	4b5d      	ldr	r3, [pc, #372]	; (80036c8 <GPIO_VidPin_Mode_Output+0x2478>)
 8003552:	689b      	ldr	r3, [r3, #8]
 8003554:	f043 6340 	orr.w	r3, r3, #201326592	; 0xc000000
 8003558:	6093      	str	r3, [r2, #8]
				break;
 800355a:	e0ab      	b.n	80036b4 <GPIO_VidPin_Mode_Output+0x2464>
				case (Pin_14):
						/*Select Output Type*/
						if(Copy_u8Type==Push_Pull){Clear_Bit(GPIO_D->OTYPER,GPIO_OTYPER_14);}
 800355c:	797b      	ldrb	r3, [r7, #5]
 800355e:	2b08      	cmp	r3, #8
 8003560:	d106      	bne.n	8003570 <GPIO_VidPin_Mode_Output+0x2320>
 8003562:	4a59      	ldr	r2, [pc, #356]	; (80036c8 <GPIO_VidPin_Mode_Output+0x2478>)
 8003564:	4b58      	ldr	r3, [pc, #352]	; (80036c8 <GPIO_VidPin_Mode_Output+0x2478>)
 8003566:	685b      	ldr	r3, [r3, #4]
 8003568:	f423 4380 	bic.w	r3, r3, #16384	; 0x4000
 800356c:	6053      	str	r3, [r2, #4]
 800356e:	e00e      	b.n	800358e <GPIO_VidPin_Mode_Output+0x233e>
						else if (Copy_u8Type==Open_Drain)
 8003570:	797b      	ldrb	r3, [r7, #5]
 8003572:	2b09      	cmp	r3, #9
 8003574:	d10b      	bne.n	800358e <GPIO_VidPin_Mode_Output+0x233e>
						{
							Set_Bit(GPIO_D->OTYPER,GPIO_OTYPER_14);
 8003576:	4a54      	ldr	r2, [pc, #336]	; (80036c8 <GPIO_VidPin_Mode_Output+0x2478>)
 8003578:	4b53      	ldr	r3, [pc, #332]	; (80036c8 <GPIO_VidPin_Mode_Output+0x2478>)
 800357a:	685b      	ldr	r3, [r3, #4]
 800357c:	f443 4380 	orr.w	r3, r3, #16384	; 0x4000
 8003580:	6053      	str	r3, [r2, #4]
						#if Open_Drain_Pull == Pull_Up
							Set_Bit(GPIO_D->PUPDR,GPIO_PUPDR_14_Pull_Up);
 8003582:	4a51      	ldr	r2, [pc, #324]	; (80036c8 <GPIO_VidPin_Mode_Output+0x2478>)
 8003584:	4b50      	ldr	r3, [pc, #320]	; (80036c8 <GPIO_VidPin_Mode_Output+0x2478>)
 8003586:	68db      	ldr	r3, [r3, #12]
 8003588:	f043 5380 	orr.w	r3, r3, #268435456	; 0x10000000
 800358c:	60d3      	str	r3, [r2, #12]
						#elif Open_Drain_Pull == Pull_Down
							Set_Bit(GPIO_D->PUPDR,GPIO_PUPDR_14_Pull_Down);
						#endif
						}
						/*Select Operating Speed*/
						if(Copy_u8Speed==Low_Speed){Clear_Bit(GPIO_D->OSPEEDR,GPIO_OSPEEDR_14_HI);}
 800358e:	793b      	ldrb	r3, [r7, #4]
 8003590:	2b04      	cmp	r3, #4
 8003592:	d106      	bne.n	80035a2 <GPIO_VidPin_Mode_Output+0x2352>
 8003594:	4a4c      	ldr	r2, [pc, #304]	; (80036c8 <GPIO_VidPin_Mode_Output+0x2478>)
 8003596:	4b4c      	ldr	r3, [pc, #304]	; (80036c8 <GPIO_VidPin_Mode_Output+0x2478>)
 8003598:	689b      	ldr	r3, [r3, #8]
 800359a:	f023 5340 	bic.w	r3, r3, #805306368	; 0x30000000
 800359e:	6093      	str	r3, [r2, #8]
						else if(Copy_u8Speed==Medium_Speed){Set_Bit(GPIO_D->OSPEEDR,GPIO_OSPEEDR_14_Medium);}
						else if(Copy_u8Speed==Fast_Speed){/*Enable Compensation Cell*/Set_Bit(GPIO_D->OSPEEDR,GPIO_OSPEEDR_14_Fast);}
						else if(Copy_u8Speed==High_Speed){/*Enable Compensation Cell*/Set_Bit(GPIO_D->OSPEEDR,GPIO_OSPEEDR_14_HI);}
				break;
 80035a0:	e08b      	b.n	80036ba <GPIO_VidPin_Mode_Output+0x246a>
						else if(Copy_u8Speed==Medium_Speed){Set_Bit(GPIO_D->OSPEEDR,GPIO_OSPEEDR_14_Medium);}
 80035a2:	793b      	ldrb	r3, [r7, #4]
 80035a4:	2b05      	cmp	r3, #5
 80035a6:	d106      	bne.n	80035b6 <GPIO_VidPin_Mode_Output+0x2366>
 80035a8:	4a47      	ldr	r2, [pc, #284]	; (80036c8 <GPIO_VidPin_Mode_Output+0x2478>)
 80035aa:	4b47      	ldr	r3, [pc, #284]	; (80036c8 <GPIO_VidPin_Mode_Output+0x2478>)
 80035ac:	689b      	ldr	r3, [r3, #8]
 80035ae:	f043 5380 	orr.w	r3, r3, #268435456	; 0x10000000
 80035b2:	6093      	str	r3, [r2, #8]
				break;
 80035b4:	e081      	b.n	80036ba <GPIO_VidPin_Mode_Output+0x246a>
						else if(Copy_u8Speed==Fast_Speed){/*Enable Compensation Cell*/Set_Bit(GPIO_D->OSPEEDR,GPIO_OSPEEDR_14_Fast);}
 80035b6:	793b      	ldrb	r3, [r7, #4]
 80035b8:	2b06      	cmp	r3, #6
 80035ba:	d106      	bne.n	80035ca <GPIO_VidPin_Mode_Output+0x237a>
 80035bc:	4a42      	ldr	r2, [pc, #264]	; (80036c8 <GPIO_VidPin_Mode_Output+0x2478>)
 80035be:	4b42      	ldr	r3, [pc, #264]	; (80036c8 <GPIO_VidPin_Mode_Output+0x2478>)
 80035c0:	689b      	ldr	r3, [r3, #8]
 80035c2:	f043 5300 	orr.w	r3, r3, #536870912	; 0x20000000
 80035c6:	6093      	str	r3, [r2, #8]
				break;
 80035c8:	e077      	b.n	80036ba <GPIO_VidPin_Mode_Output+0x246a>
						else if(Copy_u8Speed==High_Speed){/*Enable Compensation Cell*/Set_Bit(GPIO_D->OSPEEDR,GPIO_OSPEEDR_14_HI);}
 80035ca:	793b      	ldrb	r3, [r7, #4]
 80035cc:	2b07      	cmp	r3, #7
 80035ce:	d174      	bne.n	80036ba <GPIO_VidPin_Mode_Output+0x246a>
 80035d0:	4a3d      	ldr	r2, [pc, #244]	; (80036c8 <GPIO_VidPin_Mode_Output+0x2478>)
 80035d2:	4b3d      	ldr	r3, [pc, #244]	; (80036c8 <GPIO_VidPin_Mode_Output+0x2478>)
 80035d4:	689b      	ldr	r3, [r3, #8]
 80035d6:	f043 5340 	orr.w	r3, r3, #805306368	; 0x30000000
 80035da:	6093      	str	r3, [r2, #8]
				break;
 80035dc:	e06d      	b.n	80036ba <GPIO_VidPin_Mode_Output+0x246a>
				case (Pin_15):
						/*Select Output Type*/
						if(Copy_u8Type==Push_Pull){Clear_Bit(GPIO_D->OTYPER,GPIO_OTYPER_15);}
 80035de:	797b      	ldrb	r3, [r7, #5]
 80035e0:	2b08      	cmp	r3, #8
 80035e2:	d106      	bne.n	80035f2 <GPIO_VidPin_Mode_Output+0x23a2>
 80035e4:	4a38      	ldr	r2, [pc, #224]	; (80036c8 <GPIO_VidPin_Mode_Output+0x2478>)
 80035e6:	4b38      	ldr	r3, [pc, #224]	; (80036c8 <GPIO_VidPin_Mode_Output+0x2478>)
 80035e8:	685b      	ldr	r3, [r3, #4]
 80035ea:	f423 4300 	bic.w	r3, r3, #32768	; 0x8000
 80035ee:	6053      	str	r3, [r2, #4]
 80035f0:	e00e      	b.n	8003610 <GPIO_VidPin_Mode_Output+0x23c0>
						else if (Copy_u8Type==Open_Drain)
 80035f2:	797b      	ldrb	r3, [r7, #5]
 80035f4:	2b09      	cmp	r3, #9
 80035f6:	d10b      	bne.n	8003610 <GPIO_VidPin_Mode_Output+0x23c0>
						{
							Set_Bit(GPIO_D->OTYPER,GPIO_OTYPER_15);
 80035f8:	4a33      	ldr	r2, [pc, #204]	; (80036c8 <GPIO_VidPin_Mode_Output+0x2478>)
 80035fa:	4b33      	ldr	r3, [pc, #204]	; (80036c8 <GPIO_VidPin_Mode_Output+0x2478>)
 80035fc:	685b      	ldr	r3, [r3, #4]
 80035fe:	f443 4300 	orr.w	r3, r3, #32768	; 0x8000
 8003602:	6053      	str	r3, [r2, #4]
						#if Open_Drain_Pull == Pull_Up
							Set_Bit(GPIO_D->PUPDR,GPIO_PUPDR_15_Pull_Up);
 8003604:	4a30      	ldr	r2, [pc, #192]	; (80036c8 <GPIO_VidPin_Mode_Output+0x2478>)
 8003606:	4b30      	ldr	r3, [pc, #192]	; (80036c8 <GPIO_VidPin_Mode_Output+0x2478>)
 8003608:	68db      	ldr	r3, [r3, #12]
 800360a:	f043 4380 	orr.w	r3, r3, #1073741824	; 0x40000000
 800360e:	60d3      	str	r3, [r2, #12]
						#elif Open_Drain_Pull == Pull_Down
							Set_Bit(GPIO_D->PUPDR,GPIO_PUPDR_15_Pull_Down);
						#endif
						}
						/*Select Operating Speed*/
						if(Copy_u8Speed==Low_Speed){Clear_Bit(GPIO_D->OSPEEDR,GPIO_OSPEEDR_15_HI);}
 8003610:	793b      	ldrb	r3, [r7, #4]
 8003612:	2b04      	cmp	r3, #4
 8003614:	d106      	bne.n	8003624 <GPIO_VidPin_Mode_Output+0x23d4>
 8003616:	4a2c      	ldr	r2, [pc, #176]	; (80036c8 <GPIO_VidPin_Mode_Output+0x2478>)
 8003618:	4b2b      	ldr	r3, [pc, #172]	; (80036c8 <GPIO_VidPin_Mode_Output+0x2478>)
 800361a:	689b      	ldr	r3, [r3, #8]
 800361c:	f023 4340 	bic.w	r3, r3, #3221225472	; 0xc0000000
 8003620:	6093      	str	r3, [r2, #8]
						else if(Copy_u8Speed==Medium_Speed){Set_Bit(GPIO_D->OSPEEDR,GPIO_OSPEEDR_15_Medium);}
						else if(Copy_u8Speed==Fast_Speed){/*Enable Compensation Cell*/Set_Bit(GPIO_D->OSPEEDR,GPIO_OSPEEDR_15_Fast);}
						else if(Copy_u8Speed==High_Speed){/*Enable Compensation Cell*/Set_Bit(GPIO_D->OSPEEDR,GPIO_OSPEEDR_15_HI);}
				break;
 8003622:	e04d      	b.n	80036c0 <GPIO_VidPin_Mode_Output+0x2470>
						else if(Copy_u8Speed==Medium_Speed){Set_Bit(GPIO_D->OSPEEDR,GPIO_OSPEEDR_15_Medium);}
 8003624:	793b      	ldrb	r3, [r7, #4]
 8003626:	2b05      	cmp	r3, #5
 8003628:	d106      	bne.n	8003638 <GPIO_VidPin_Mode_Output+0x23e8>
 800362a:	4a27      	ldr	r2, [pc, #156]	; (80036c8 <GPIO_VidPin_Mode_Output+0x2478>)
 800362c:	4b26      	ldr	r3, [pc, #152]	; (80036c8 <GPIO_VidPin_Mode_Output+0x2478>)
 800362e:	689b      	ldr	r3, [r3, #8]
 8003630:	f043 4380 	orr.w	r3, r3, #1073741824	; 0x40000000
 8003634:	6093      	str	r3, [r2, #8]
				break;
 8003636:	e043      	b.n	80036c0 <GPIO_VidPin_Mode_Output+0x2470>
						else if(Copy_u8Speed==Fast_Speed){/*Enable Compensation Cell*/Set_Bit(GPIO_D->OSPEEDR,GPIO_OSPEEDR_15_Fast);}
 8003638:	793b      	ldrb	r3, [r7, #4]
 800363a:	2b06      	cmp	r3, #6
 800363c:	d106      	bne.n	800364c <GPIO_VidPin_Mode_Output+0x23fc>
 800363e:	4a22      	ldr	r2, [pc, #136]	; (80036c8 <GPIO_VidPin_Mode_Output+0x2478>)
 8003640:	4b21      	ldr	r3, [pc, #132]	; (80036c8 <GPIO_VidPin_Mode_Output+0x2478>)
 8003642:	689b      	ldr	r3, [r3, #8]
 8003644:	f043 4300 	orr.w	r3, r3, #2147483648	; 0x80000000
 8003648:	6093      	str	r3, [r2, #8]
				break;
 800364a:	e039      	b.n	80036c0 <GPIO_VidPin_Mode_Output+0x2470>
						else if(Copy_u8Speed==High_Speed){/*Enable Compensation Cell*/Set_Bit(GPIO_D->OSPEEDR,GPIO_OSPEEDR_15_HI);}
 800364c:	793b      	ldrb	r3, [r7, #4]
 800364e:	2b07      	cmp	r3, #7
 8003650:	d136      	bne.n	80036c0 <GPIO_VidPin_Mode_Output+0x2470>
 8003652:	4a1d      	ldr	r2, [pc, #116]	; (80036c8 <GPIO_VidPin_Mode_Output+0x2478>)
 8003654:	4b1c      	ldr	r3, [pc, #112]	; (80036c8 <GPIO_VidPin_Mode_Output+0x2478>)
 8003656:	689b      	ldr	r3, [r3, #8]
 8003658:	f043 4340 	orr.w	r3, r3, #3221225472	; 0xc0000000
 800365c:	6093      	str	r3, [r2, #8]
				break;
 800365e:	e02f      	b.n	80036c0 <GPIO_VidPin_Mode_Output+0x2470>
				default:break;
 8003660:	bf00      	nop
 8003662:	f000 bca5 	b.w	8003fb0 <GPIO_VidPin_Mode_Output+0x2d60>
				break;
 8003666:	bf00      	nop
 8003668:	f000 bca2 	b.w	8003fb0 <GPIO_VidPin_Mode_Output+0x2d60>
				break;
 800366c:	bf00      	nop
 800366e:	f000 bc9f 	b.w	8003fb0 <GPIO_VidPin_Mode_Output+0x2d60>
				break;
 8003672:	bf00      	nop
 8003674:	f000 bc9c 	b.w	8003fb0 <GPIO_VidPin_Mode_Output+0x2d60>
				break;
 8003678:	bf00      	nop
 800367a:	f000 bc99 	b.w	8003fb0 <GPIO_VidPin_Mode_Output+0x2d60>
				break;
 800367e:	bf00      	nop
 8003680:	f000 bc96 	b.w	8003fb0 <GPIO_VidPin_Mode_Output+0x2d60>
				break;
 8003684:	bf00      	nop
 8003686:	f000 bc93 	b.w	8003fb0 <GPIO_VidPin_Mode_Output+0x2d60>
				break;
 800368a:	bf00      	nop
 800368c:	f000 bc90 	b.w	8003fb0 <GPIO_VidPin_Mode_Output+0x2d60>
				break;
 8003690:	bf00      	nop
 8003692:	f000 bc8d 	b.w	8003fb0 <GPIO_VidPin_Mode_Output+0x2d60>
				break;
 8003696:	bf00      	nop
 8003698:	f000 bc8a 	b.w	8003fb0 <GPIO_VidPin_Mode_Output+0x2d60>
				break;
 800369c:	bf00      	nop
 800369e:	f000 bc87 	b.w	8003fb0 <GPIO_VidPin_Mode_Output+0x2d60>
				break;
 80036a2:	bf00      	nop
 80036a4:	f000 bc84 	b.w	8003fb0 <GPIO_VidPin_Mode_Output+0x2d60>
				break;
 80036a8:	bf00      	nop
 80036aa:	f000 bc81 	b.w	8003fb0 <GPIO_VidPin_Mode_Output+0x2d60>
				break;
 80036ae:	bf00      	nop
 80036b0:	f000 bc7e 	b.w	8003fb0 <GPIO_VidPin_Mode_Output+0x2d60>
				break;
 80036b4:	bf00      	nop
 80036b6:	f000 bc7b 	b.w	8003fb0 <GPIO_VidPin_Mode_Output+0x2d60>
				break;
 80036ba:	bf00      	nop
 80036bc:	f000 bc78 	b.w	8003fb0 <GPIO_VidPin_Mode_Output+0x2d60>
				break;
 80036c0:	bf00      	nop
			}
		break;
 80036c2:	f000 bc75 	b.w	8003fb0 <GPIO_VidPin_Mode_Output+0x2d60>
 80036c6:	bf00      	nop
 80036c8:	40020c00 	.word	0x40020c00
		case(Port_E):
			switch (Copy_u8Pin)
 80036cc:	79bb      	ldrb	r3, [r7, #6]
 80036ce:	2b0f      	cmp	r3, #15
 80036d0:	f200 844b 	bhi.w	8003f6a <GPIO_VidPin_Mode_Output+0x2d1a>
 80036d4:	a201      	add	r2, pc, #4	; (adr r2, 80036dc <GPIO_VidPin_Mode_Output+0x248c>)
 80036d6:	f852 f023 	ldr.w	pc, [r2, r3, lsl #2]
 80036da:	bf00      	nop
 80036dc:	0800371d 	.word	0x0800371d
 80036e0:	080037a3 	.word	0x080037a3
 80036e4:	08003827 	.word	0x08003827
 80036e8:	080038ab 	.word	0x080038ab
 80036ec:	0800392f 	.word	0x0800392f
 80036f0:	080039b7 	.word	0x080039b7
 80036f4:	08003a3b 	.word	0x08003a3b
 80036f8:	08003abf 	.word	0x08003abf
 80036fc:	08003b43 	.word	0x08003b43
 8003700:	08003bc7 	.word	0x08003bc7
 8003704:	08003c51 	.word	0x08003c51
 8003708:	08003cd5 	.word	0x08003cd5
 800370c:	08003d59 	.word	0x08003d59
 8003710:	08003ddd 	.word	0x08003ddd
 8003714:	08003e67 	.word	0x08003e67
 8003718:	08003ee9 	.word	0x08003ee9
			{
				case (Pin_0):
						/*Select Output Type*/
						if(Copy_u8Type==Push_Pull){Clear_Bit(GPIO_E->OTYPER,GPIO_OTYPER_0);}
 800371c:	797b      	ldrb	r3, [r7, #5]
 800371e:	2b08      	cmp	r3, #8
 8003720:	d106      	bne.n	8003730 <GPIO_VidPin_Mode_Output+0x24e0>
 8003722:	4a94      	ldr	r2, [pc, #592]	; (8003974 <GPIO_VidPin_Mode_Output+0x2724>)
 8003724:	4b93      	ldr	r3, [pc, #588]	; (8003974 <GPIO_VidPin_Mode_Output+0x2724>)
 8003726:	685b      	ldr	r3, [r3, #4]
 8003728:	f023 0301 	bic.w	r3, r3, #1
 800372c:	6053      	str	r3, [r2, #4]
 800372e:	e00e      	b.n	800374e <GPIO_VidPin_Mode_Output+0x24fe>
						else if (Copy_u8Type==Open_Drain)
 8003730:	797b      	ldrb	r3, [r7, #5]
 8003732:	2b09      	cmp	r3, #9
 8003734:	d10b      	bne.n	800374e <GPIO_VidPin_Mode_Output+0x24fe>
						{
							Set_Bit(GPIO_E->OTYPER,GPIO_OTYPER_0);
 8003736:	4a8f      	ldr	r2, [pc, #572]	; (8003974 <GPIO_VidPin_Mode_Output+0x2724>)
 8003738:	4b8e      	ldr	r3, [pc, #568]	; (8003974 <GPIO_VidPin_Mode_Output+0x2724>)
 800373a:	685b      	ldr	r3, [r3, #4]
 800373c:	f043 0301 	orr.w	r3, r3, #1
 8003740:	6053      	str	r3, [r2, #4]
						#if Open_Drain_Pull == Pull_Up
							Set_Bit(GPIO_E->PUPDR,GPIO_PUPDR_0_Pull_Up);
 8003742:	4a8c      	ldr	r2, [pc, #560]	; (8003974 <GPIO_VidPin_Mode_Output+0x2724>)
 8003744:	4b8b      	ldr	r3, [pc, #556]	; (8003974 <GPIO_VidPin_Mode_Output+0x2724>)
 8003746:	68db      	ldr	r3, [r3, #12]
 8003748:	f043 0301 	orr.w	r3, r3, #1
 800374c:	60d3      	str	r3, [r2, #12]
						#elif Open_Drain_Pull == Pull_Down
							Set_Bit(Copy_u8PortAddress->PUPDR,GPIO_PUPDR_0_Pull_Down);
						#endif
						}
						/*Select Operating Speed*/
						if(Copy_u8Speed==Low_Speed){Clear_Bit(GPIO_E->OSPEEDR,GPIO_OSPEEDR_0_HI);}
 800374e:	793b      	ldrb	r3, [r7, #4]
 8003750:	2b04      	cmp	r3, #4
 8003752:	d107      	bne.n	8003764 <GPIO_VidPin_Mode_Output+0x2514>
 8003754:	4a87      	ldr	r2, [pc, #540]	; (8003974 <GPIO_VidPin_Mode_Output+0x2724>)
 8003756:	4b87      	ldr	r3, [pc, #540]	; (8003974 <GPIO_VidPin_Mode_Output+0x2724>)
 8003758:	689b      	ldr	r3, [r3, #8]
 800375a:	f023 0303 	bic.w	r3, r3, #3
 800375e:	6093      	str	r3, [r2, #8]
						else if(Copy_u8Speed==Medium_Speed){Set_Bit(GPIO_E->OSPEEDR,GPIO_OSPEEDR_0_Medium);}
						else if(Copy_u8Speed==Fast_Speed){/*Enable Compensation Cell*/Set_Bit(GPIO_E->OSPEEDR,GPIO_OSPEEDR_0_Fast);}
						else if(Copy_u8Speed==High_Speed){/*Enable Compensation Cell*/Set_Bit(GPIO_E->OSPEEDR,GPIO_OSPEEDR_0_HI);}
				break;
 8003760:	f000 bc05 	b.w	8003f6e <GPIO_VidPin_Mode_Output+0x2d1e>
						else if(Copy_u8Speed==Medium_Speed){Set_Bit(GPIO_E->OSPEEDR,GPIO_OSPEEDR_0_Medium);}
 8003764:	793b      	ldrb	r3, [r7, #4]
 8003766:	2b05      	cmp	r3, #5
 8003768:	d106      	bne.n	8003778 <GPIO_VidPin_Mode_Output+0x2528>
 800376a:	4a82      	ldr	r2, [pc, #520]	; (8003974 <GPIO_VidPin_Mode_Output+0x2724>)
 800376c:	4b81      	ldr	r3, [pc, #516]	; (8003974 <GPIO_VidPin_Mode_Output+0x2724>)
 800376e:	689b      	ldr	r3, [r3, #8]
 8003770:	f043 0301 	orr.w	r3, r3, #1
 8003774:	6093      	str	r3, [r2, #8]
				break;
 8003776:	e3fa      	b.n	8003f6e <GPIO_VidPin_Mode_Output+0x2d1e>
						else if(Copy_u8Speed==Fast_Speed){/*Enable Compensation Cell*/Set_Bit(GPIO_E->OSPEEDR,GPIO_OSPEEDR_0_Fast);}
 8003778:	793b      	ldrb	r3, [r7, #4]
 800377a:	2b06      	cmp	r3, #6
 800377c:	d106      	bne.n	800378c <GPIO_VidPin_Mode_Output+0x253c>
 800377e:	4a7d      	ldr	r2, [pc, #500]	; (8003974 <GPIO_VidPin_Mode_Output+0x2724>)
 8003780:	4b7c      	ldr	r3, [pc, #496]	; (8003974 <GPIO_VidPin_Mode_Output+0x2724>)
 8003782:	689b      	ldr	r3, [r3, #8]
 8003784:	f043 0302 	orr.w	r3, r3, #2
 8003788:	6093      	str	r3, [r2, #8]
				break;
 800378a:	e3f0      	b.n	8003f6e <GPIO_VidPin_Mode_Output+0x2d1e>
						else if(Copy_u8Speed==High_Speed){/*Enable Compensation Cell*/Set_Bit(GPIO_E->OSPEEDR,GPIO_OSPEEDR_0_HI);}
 800378c:	793b      	ldrb	r3, [r7, #4]
 800378e:	2b07      	cmp	r3, #7
 8003790:	f040 83ed 	bne.w	8003f6e <GPIO_VidPin_Mode_Output+0x2d1e>
 8003794:	4a77      	ldr	r2, [pc, #476]	; (8003974 <GPIO_VidPin_Mode_Output+0x2724>)
 8003796:	4b77      	ldr	r3, [pc, #476]	; (8003974 <GPIO_VidPin_Mode_Output+0x2724>)
 8003798:	689b      	ldr	r3, [r3, #8]
 800379a:	f043 0303 	orr.w	r3, r3, #3
 800379e:	6093      	str	r3, [r2, #8]
				break;
 80037a0:	e3e5      	b.n	8003f6e <GPIO_VidPin_Mode_Output+0x2d1e>
				case (Pin_1):
						/*Select Output Type*/
						if(Copy_u8Type==Push_Pull){Clear_Bit(GPIO_E->OTYPER,GPIO_OTYPER_1);}
 80037a2:	797b      	ldrb	r3, [r7, #5]
 80037a4:	2b08      	cmp	r3, #8
 80037a6:	d106      	bne.n	80037b6 <GPIO_VidPin_Mode_Output+0x2566>
 80037a8:	4a72      	ldr	r2, [pc, #456]	; (8003974 <GPIO_VidPin_Mode_Output+0x2724>)
 80037aa:	4b72      	ldr	r3, [pc, #456]	; (8003974 <GPIO_VidPin_Mode_Output+0x2724>)
 80037ac:	685b      	ldr	r3, [r3, #4]
 80037ae:	f023 0302 	bic.w	r3, r3, #2
 80037b2:	6053      	str	r3, [r2, #4]
 80037b4:	e00e      	b.n	80037d4 <GPIO_VidPin_Mode_Output+0x2584>
						else if (Copy_u8Type==Open_Drain)
 80037b6:	797b      	ldrb	r3, [r7, #5]
 80037b8:	2b09      	cmp	r3, #9
 80037ba:	d10b      	bne.n	80037d4 <GPIO_VidPin_Mode_Output+0x2584>
						{
							Set_Bit(GPIO_E->OTYPER,GPIO_OTYPER_1);
 80037bc:	4a6d      	ldr	r2, [pc, #436]	; (8003974 <GPIO_VidPin_Mode_Output+0x2724>)
 80037be:	4b6d      	ldr	r3, [pc, #436]	; (8003974 <GPIO_VidPin_Mode_Output+0x2724>)
 80037c0:	685b      	ldr	r3, [r3, #4]
 80037c2:	f043 0302 	orr.w	r3, r3, #2
 80037c6:	6053      	str	r3, [r2, #4]
						#if Open_Drain_Pull == Pull_Up
							Set_Bit(GPIO_E->PUPDR,GPIO_PUPDR_1_Pull_Up);
 80037c8:	4a6a      	ldr	r2, [pc, #424]	; (8003974 <GPIO_VidPin_Mode_Output+0x2724>)
 80037ca:	4b6a      	ldr	r3, [pc, #424]	; (8003974 <GPIO_VidPin_Mode_Output+0x2724>)
 80037cc:	68db      	ldr	r3, [r3, #12]
 80037ce:	f043 0304 	orr.w	r3, r3, #4
 80037d2:	60d3      	str	r3, [r2, #12]
						#elif Open_Drain_Pull == Pull_Down
							Set_Bit(GPIO_E->PUPDR,GPIO_PUPDR_1_Pull_Down);
						#endif
						}
						/*Select Operating Speed*/
						if(Copy_u8Speed==Low_Speed){Clear_Bit(GPIO_E->OSPEEDR,GPIO_OSPEEDR_1_HI);}
 80037d4:	793b      	ldrb	r3, [r7, #4]
 80037d6:	2b04      	cmp	r3, #4
 80037d8:	d106      	bne.n	80037e8 <GPIO_VidPin_Mode_Output+0x2598>
 80037da:	4a66      	ldr	r2, [pc, #408]	; (8003974 <GPIO_VidPin_Mode_Output+0x2724>)
 80037dc:	4b65      	ldr	r3, [pc, #404]	; (8003974 <GPIO_VidPin_Mode_Output+0x2724>)
 80037de:	689b      	ldr	r3, [r3, #8]
 80037e0:	f023 030c 	bic.w	r3, r3, #12
 80037e4:	6093      	str	r3, [r2, #8]
						else if(Copy_u8Speed==Medium_Speed){Set_Bit(GPIO_E->OSPEEDR,GPIO_OSPEEDR_1_Medium);}
						else if(Copy_u8Speed==Fast_Speed){/*Enable Compensation Cell*/Set_Bit(GPIO_E->OSPEEDR,GPIO_OSPEEDR_1_Fast);}
						else if(Copy_u8Speed==High_Speed){/*Enable Compensation Cell*/Set_Bit(GPIO_E->OSPEEDR,GPIO_OSPEEDR_1_HI);}
				break;
 80037e6:	e3c4      	b.n	8003f72 <GPIO_VidPin_Mode_Output+0x2d22>
						else if(Copy_u8Speed==Medium_Speed){Set_Bit(GPIO_E->OSPEEDR,GPIO_OSPEEDR_1_Medium);}
 80037e8:	793b      	ldrb	r3, [r7, #4]
 80037ea:	2b05      	cmp	r3, #5
 80037ec:	d106      	bne.n	80037fc <GPIO_VidPin_Mode_Output+0x25ac>
 80037ee:	4a61      	ldr	r2, [pc, #388]	; (8003974 <GPIO_VidPin_Mode_Output+0x2724>)
 80037f0:	4b60      	ldr	r3, [pc, #384]	; (8003974 <GPIO_VidPin_Mode_Output+0x2724>)
 80037f2:	689b      	ldr	r3, [r3, #8]
 80037f4:	f043 0304 	orr.w	r3, r3, #4
 80037f8:	6093      	str	r3, [r2, #8]
				break;
 80037fa:	e3ba      	b.n	8003f72 <GPIO_VidPin_Mode_Output+0x2d22>
						else if(Copy_u8Speed==Fast_Speed){/*Enable Compensation Cell*/Set_Bit(GPIO_E->OSPEEDR,GPIO_OSPEEDR_1_Fast);}
 80037fc:	793b      	ldrb	r3, [r7, #4]
 80037fe:	2b06      	cmp	r3, #6
 8003800:	d106      	bne.n	8003810 <GPIO_VidPin_Mode_Output+0x25c0>
 8003802:	4a5c      	ldr	r2, [pc, #368]	; (8003974 <GPIO_VidPin_Mode_Output+0x2724>)
 8003804:	4b5b      	ldr	r3, [pc, #364]	; (8003974 <GPIO_VidPin_Mode_Output+0x2724>)
 8003806:	689b      	ldr	r3, [r3, #8]
 8003808:	f043 0308 	orr.w	r3, r3, #8
 800380c:	6093      	str	r3, [r2, #8]
				break;
 800380e:	e3b0      	b.n	8003f72 <GPIO_VidPin_Mode_Output+0x2d22>
						else if(Copy_u8Speed==High_Speed){/*Enable Compensation Cell*/Set_Bit(GPIO_E->OSPEEDR,GPIO_OSPEEDR_1_HI);}
 8003810:	793b      	ldrb	r3, [r7, #4]
 8003812:	2b07      	cmp	r3, #7
 8003814:	f040 83ad 	bne.w	8003f72 <GPIO_VidPin_Mode_Output+0x2d22>
 8003818:	4a56      	ldr	r2, [pc, #344]	; (8003974 <GPIO_VidPin_Mode_Output+0x2724>)
 800381a:	4b56      	ldr	r3, [pc, #344]	; (8003974 <GPIO_VidPin_Mode_Output+0x2724>)
 800381c:	689b      	ldr	r3, [r3, #8]
 800381e:	f043 030c 	orr.w	r3, r3, #12
 8003822:	6093      	str	r3, [r2, #8]
				break;
 8003824:	e3a5      	b.n	8003f72 <GPIO_VidPin_Mode_Output+0x2d22>
				case (Pin_2):
						/*Select Output Type*/
						if(Copy_u8Type==Push_Pull){Clear_Bit(GPIO_E->OTYPER,GPIO_OTYPER_2);}
 8003826:	797b      	ldrb	r3, [r7, #5]
 8003828:	2b08      	cmp	r3, #8
 800382a:	d106      	bne.n	800383a <GPIO_VidPin_Mode_Output+0x25ea>
 800382c:	4a51      	ldr	r2, [pc, #324]	; (8003974 <GPIO_VidPin_Mode_Output+0x2724>)
 800382e:	4b51      	ldr	r3, [pc, #324]	; (8003974 <GPIO_VidPin_Mode_Output+0x2724>)
 8003830:	685b      	ldr	r3, [r3, #4]
 8003832:	f023 0304 	bic.w	r3, r3, #4
 8003836:	6053      	str	r3, [r2, #4]
 8003838:	e00e      	b.n	8003858 <GPIO_VidPin_Mode_Output+0x2608>
						else if (Copy_u8Type==Open_Drain)
 800383a:	797b      	ldrb	r3, [r7, #5]
 800383c:	2b09      	cmp	r3, #9
 800383e:	d10b      	bne.n	8003858 <GPIO_VidPin_Mode_Output+0x2608>
						{
							Set_Bit(GPIO_E->OTYPER,GPIO_OTYPER_2);
 8003840:	4a4c      	ldr	r2, [pc, #304]	; (8003974 <GPIO_VidPin_Mode_Output+0x2724>)
 8003842:	4b4c      	ldr	r3, [pc, #304]	; (8003974 <GPIO_VidPin_Mode_Output+0x2724>)
 8003844:	685b      	ldr	r3, [r3, #4]
 8003846:	f043 0304 	orr.w	r3, r3, #4
 800384a:	6053      	str	r3, [r2, #4]
						#if Open_Drain_Pull == Pull_Up
							Set_Bit(GPIO_E->PUPDR,GPIO_PUPDR_2_Pull_Up);
 800384c:	4a49      	ldr	r2, [pc, #292]	; (8003974 <GPIO_VidPin_Mode_Output+0x2724>)
 800384e:	4b49      	ldr	r3, [pc, #292]	; (8003974 <GPIO_VidPin_Mode_Output+0x2724>)
 8003850:	68db      	ldr	r3, [r3, #12]
 8003852:	f043 0310 	orr.w	r3, r3, #16
 8003856:	60d3      	str	r3, [r2, #12]
						#elif Open_Drain_Pull == Pull_Down
							Set_Bit(GPIO_E->PUPDR,GPIO_PUPDR_2_Pull_Down);
						#endif
						}
						/*Select Operating Speed*/
						if(Copy_u8Speed==Low_Speed){Clear_Bit(GPIO_E->OSPEEDR,GPIO_OSPEEDR_2_HI);}
 8003858:	793b      	ldrb	r3, [r7, #4]
 800385a:	2b04      	cmp	r3, #4
 800385c:	d106      	bne.n	800386c <GPIO_VidPin_Mode_Output+0x261c>
 800385e:	4a45      	ldr	r2, [pc, #276]	; (8003974 <GPIO_VidPin_Mode_Output+0x2724>)
 8003860:	4b44      	ldr	r3, [pc, #272]	; (8003974 <GPIO_VidPin_Mode_Output+0x2724>)
 8003862:	689b      	ldr	r3, [r3, #8]
 8003864:	f023 0330 	bic.w	r3, r3, #48	; 0x30
 8003868:	6093      	str	r3, [r2, #8]
						else if(Copy_u8Speed==Medium_Speed){Set_Bit(GPIO_E->OSPEEDR,GPIO_OSPEEDR_2_Medium);}
						else if(Copy_u8Speed==Fast_Speed){/*Enable Compensation Cell*/Set_Bit(GPIO_E->OSPEEDR,GPIO_OSPEEDR_2_Fast);}
						else if(Copy_u8Speed==High_Speed){/*Enable Compensation Cell*/Set_Bit(GPIO_E->OSPEEDR,GPIO_OSPEEDR_2_HI);}
				break;
 800386a:	e384      	b.n	8003f76 <GPIO_VidPin_Mode_Output+0x2d26>
						else if(Copy_u8Speed==Medium_Speed){Set_Bit(GPIO_E->OSPEEDR,GPIO_OSPEEDR_2_Medium);}
 800386c:	793b      	ldrb	r3, [r7, #4]
 800386e:	2b05      	cmp	r3, #5
 8003870:	d106      	bne.n	8003880 <GPIO_VidPin_Mode_Output+0x2630>
 8003872:	4a40      	ldr	r2, [pc, #256]	; (8003974 <GPIO_VidPin_Mode_Output+0x2724>)
 8003874:	4b3f      	ldr	r3, [pc, #252]	; (8003974 <GPIO_VidPin_Mode_Output+0x2724>)
 8003876:	689b      	ldr	r3, [r3, #8]
 8003878:	f043 0310 	orr.w	r3, r3, #16
 800387c:	6093      	str	r3, [r2, #8]
				break;
 800387e:	e37a      	b.n	8003f76 <GPIO_VidPin_Mode_Output+0x2d26>
						else if(Copy_u8Speed==Fast_Speed){/*Enable Compensation Cell*/Set_Bit(GPIO_E->OSPEEDR,GPIO_OSPEEDR_2_Fast);}
 8003880:	793b      	ldrb	r3, [r7, #4]
 8003882:	2b06      	cmp	r3, #6
 8003884:	d106      	bne.n	8003894 <GPIO_VidPin_Mode_Output+0x2644>
 8003886:	4a3b      	ldr	r2, [pc, #236]	; (8003974 <GPIO_VidPin_Mode_Output+0x2724>)
 8003888:	4b3a      	ldr	r3, [pc, #232]	; (8003974 <GPIO_VidPin_Mode_Output+0x2724>)
 800388a:	689b      	ldr	r3, [r3, #8]
 800388c:	f043 0320 	orr.w	r3, r3, #32
 8003890:	6093      	str	r3, [r2, #8]
				break;
 8003892:	e370      	b.n	8003f76 <GPIO_VidPin_Mode_Output+0x2d26>
						else if(Copy_u8Speed==High_Speed){/*Enable Compensation Cell*/Set_Bit(GPIO_E->OSPEEDR,GPIO_OSPEEDR_2_HI);}
 8003894:	793b      	ldrb	r3, [r7, #4]
 8003896:	2b07      	cmp	r3, #7
 8003898:	f040 836d 	bne.w	8003f76 <GPIO_VidPin_Mode_Output+0x2d26>
 800389c:	4a35      	ldr	r2, [pc, #212]	; (8003974 <GPIO_VidPin_Mode_Output+0x2724>)
 800389e:	4b35      	ldr	r3, [pc, #212]	; (8003974 <GPIO_VidPin_Mode_Output+0x2724>)
 80038a0:	689b      	ldr	r3, [r3, #8]
 80038a2:	f043 0330 	orr.w	r3, r3, #48	; 0x30
 80038a6:	6093      	str	r3, [r2, #8]
				break;
 80038a8:	e365      	b.n	8003f76 <GPIO_VidPin_Mode_Output+0x2d26>
				case (Pin_3):
						/*Select Output Type*/
						if(Copy_u8Type==Push_Pull){Clear_Bit(GPIO_E->OTYPER,GPIO_OTYPER_3);}
 80038aa:	797b      	ldrb	r3, [r7, #5]
 80038ac:	2b08      	cmp	r3, #8
 80038ae:	d106      	bne.n	80038be <GPIO_VidPin_Mode_Output+0x266e>
 80038b0:	4a30      	ldr	r2, [pc, #192]	; (8003974 <GPIO_VidPin_Mode_Output+0x2724>)
 80038b2:	4b30      	ldr	r3, [pc, #192]	; (8003974 <GPIO_VidPin_Mode_Output+0x2724>)
 80038b4:	685b      	ldr	r3, [r3, #4]
 80038b6:	f023 0308 	bic.w	r3, r3, #8
 80038ba:	6053      	str	r3, [r2, #4]
 80038bc:	e00e      	b.n	80038dc <GPIO_VidPin_Mode_Output+0x268c>
						else if (Copy_u8Type==Open_Drain)
 80038be:	797b      	ldrb	r3, [r7, #5]
 80038c0:	2b09      	cmp	r3, #9
 80038c2:	d10b      	bne.n	80038dc <GPIO_VidPin_Mode_Output+0x268c>
						{
							Set_Bit(GPIO_E->OTYPER,GPIO_OTYPER_3);
 80038c4:	4a2b      	ldr	r2, [pc, #172]	; (8003974 <GPIO_VidPin_Mode_Output+0x2724>)
 80038c6:	4b2b      	ldr	r3, [pc, #172]	; (8003974 <GPIO_VidPin_Mode_Output+0x2724>)
 80038c8:	685b      	ldr	r3, [r3, #4]
 80038ca:	f043 0308 	orr.w	r3, r3, #8
 80038ce:	6053      	str	r3, [r2, #4]
						#if Open_Drain_Pull == Pull_Up
							Set_Bit(GPIO_E->PUPDR,GPIO_PUPDR_3_Pull_Up);
 80038d0:	4a28      	ldr	r2, [pc, #160]	; (8003974 <GPIO_VidPin_Mode_Output+0x2724>)
 80038d2:	4b28      	ldr	r3, [pc, #160]	; (8003974 <GPIO_VidPin_Mode_Output+0x2724>)
 80038d4:	68db      	ldr	r3, [r3, #12]
 80038d6:	f043 0340 	orr.w	r3, r3, #64	; 0x40
 80038da:	60d3      	str	r3, [r2, #12]
						#elif Open_Drain_Pull == Pull_Down
							Set_Bit(GPIO_E->PUPDR,GPIO_PUPDR_3_Pull_Down);
						#endif
						}
						/*Select Operating Speed*/
						if(Copy_u8Speed==Low_Speed){Clear_Bit(GPIO_E->OSPEEDR,GPIO_OSPEEDR_3_HI);}
 80038dc:	793b      	ldrb	r3, [r7, #4]
 80038de:	2b04      	cmp	r3, #4
 80038e0:	d106      	bne.n	80038f0 <GPIO_VidPin_Mode_Output+0x26a0>
 80038e2:	4a24      	ldr	r2, [pc, #144]	; (8003974 <GPIO_VidPin_Mode_Output+0x2724>)
 80038e4:	4b23      	ldr	r3, [pc, #140]	; (8003974 <GPIO_VidPin_Mode_Output+0x2724>)
 80038e6:	689b      	ldr	r3, [r3, #8]
 80038e8:	f023 03c0 	bic.w	r3, r3, #192	; 0xc0
 80038ec:	6093      	str	r3, [r2, #8]
						else if(Copy_u8Speed==Medium_Speed){Set_Bit(GPIO_E->OSPEEDR,GPIO_OSPEEDR_3_Medium);}
						else if(Copy_u8Speed==Fast_Speed){/*Enable Compensation Cell*/Set_Bit(GPIO_E->OSPEEDR,GPIO_OSPEEDR_3_Fast);}
						else if(Copy_u8Speed==High_Speed){/*Enable Compensation Cell*/Set_Bit(GPIO_E->OSPEEDR,GPIO_OSPEEDR_3_HI);}
				break;
 80038ee:	e344      	b.n	8003f7a <GPIO_VidPin_Mode_Output+0x2d2a>
						else if(Copy_u8Speed==Medium_Speed){Set_Bit(GPIO_E->OSPEEDR,GPIO_OSPEEDR_3_Medium);}
 80038f0:	793b      	ldrb	r3, [r7, #4]
 80038f2:	2b05      	cmp	r3, #5
 80038f4:	d106      	bne.n	8003904 <GPIO_VidPin_Mode_Output+0x26b4>
 80038f6:	4a1f      	ldr	r2, [pc, #124]	; (8003974 <GPIO_VidPin_Mode_Output+0x2724>)
 80038f8:	4b1e      	ldr	r3, [pc, #120]	; (8003974 <GPIO_VidPin_Mode_Output+0x2724>)
 80038fa:	689b      	ldr	r3, [r3, #8]
 80038fc:	f043 0340 	orr.w	r3, r3, #64	; 0x40
 8003900:	6093      	str	r3, [r2, #8]
				break;
 8003902:	e33a      	b.n	8003f7a <GPIO_VidPin_Mode_Output+0x2d2a>
						else if(Copy_u8Speed==Fast_Speed){/*Enable Compensation Cell*/Set_Bit(GPIO_E->OSPEEDR,GPIO_OSPEEDR_3_Fast);}
 8003904:	793b      	ldrb	r3, [r7, #4]
 8003906:	2b06      	cmp	r3, #6
 8003908:	d106      	bne.n	8003918 <GPIO_VidPin_Mode_Output+0x26c8>
 800390a:	4a1a      	ldr	r2, [pc, #104]	; (8003974 <GPIO_VidPin_Mode_Output+0x2724>)
 800390c:	4b19      	ldr	r3, [pc, #100]	; (8003974 <GPIO_VidPin_Mode_Output+0x2724>)
 800390e:	689b      	ldr	r3, [r3, #8]
 8003910:	f043 0380 	orr.w	r3, r3, #128	; 0x80
 8003914:	6093      	str	r3, [r2, #8]
				break;
 8003916:	e330      	b.n	8003f7a <GPIO_VidPin_Mode_Output+0x2d2a>
						else if(Copy_u8Speed==High_Speed){/*Enable Compensation Cell*/Set_Bit(GPIO_E->OSPEEDR,GPIO_OSPEEDR_3_HI);}
 8003918:	793b      	ldrb	r3, [r7, #4]
 800391a:	2b07      	cmp	r3, #7
 800391c:	f040 832d 	bne.w	8003f7a <GPIO_VidPin_Mode_Output+0x2d2a>
 8003920:	4a14      	ldr	r2, [pc, #80]	; (8003974 <GPIO_VidPin_Mode_Output+0x2724>)
 8003922:	4b14      	ldr	r3, [pc, #80]	; (8003974 <GPIO_VidPin_Mode_Output+0x2724>)
 8003924:	689b      	ldr	r3, [r3, #8]
 8003926:	f043 03c0 	orr.w	r3, r3, #192	; 0xc0
 800392a:	6093      	str	r3, [r2, #8]
				break;
 800392c:	e325      	b.n	8003f7a <GPIO_VidPin_Mode_Output+0x2d2a>
				case (Pin_4):
						/*Select Output Type*/
						if(Copy_u8Type==Push_Pull){Clear_Bit(GPIO_E->OTYPER,GPIO_OTYPER_4);}
 800392e:	797b      	ldrb	r3, [r7, #5]
 8003930:	2b08      	cmp	r3, #8
 8003932:	d106      	bne.n	8003942 <GPIO_VidPin_Mode_Output+0x26f2>
 8003934:	4a0f      	ldr	r2, [pc, #60]	; (8003974 <GPIO_VidPin_Mode_Output+0x2724>)
 8003936:	4b0f      	ldr	r3, [pc, #60]	; (8003974 <GPIO_VidPin_Mode_Output+0x2724>)
 8003938:	685b      	ldr	r3, [r3, #4]
 800393a:	f023 0310 	bic.w	r3, r3, #16
 800393e:	6053      	str	r3, [r2, #4]
 8003940:	e00e      	b.n	8003960 <GPIO_VidPin_Mode_Output+0x2710>
						else if (Copy_u8Type==Open_Drain)
 8003942:	797b      	ldrb	r3, [r7, #5]
 8003944:	2b09      	cmp	r3, #9
 8003946:	d10b      	bne.n	8003960 <GPIO_VidPin_Mode_Output+0x2710>
						{
							Set_Bit(GPIO_E->OTYPER,GPIO_OTYPER_4);
 8003948:	4a0a      	ldr	r2, [pc, #40]	; (8003974 <GPIO_VidPin_Mode_Output+0x2724>)
 800394a:	4b0a      	ldr	r3, [pc, #40]	; (8003974 <GPIO_VidPin_Mode_Output+0x2724>)
 800394c:	685b      	ldr	r3, [r3, #4]
 800394e:	f043 0310 	orr.w	r3, r3, #16
 8003952:	6053      	str	r3, [r2, #4]
						#if Open_Drain_Pull == Pull_Up
							Set_Bit(GPIO_E->PUPDR,GPIO_PUPDR_4_Pull_Up);
 8003954:	4a07      	ldr	r2, [pc, #28]	; (8003974 <GPIO_VidPin_Mode_Output+0x2724>)
 8003956:	4b07      	ldr	r3, [pc, #28]	; (8003974 <GPIO_VidPin_Mode_Output+0x2724>)
 8003958:	68db      	ldr	r3, [r3, #12]
 800395a:	f443 7380 	orr.w	r3, r3, #256	; 0x100
 800395e:	60d3      	str	r3, [r2, #12]
						#elif Open_Drain_Pull == Pull_Down
							Set_Bit(GPIO_E->PUPDR,GPIO_PUPDR_4_Pull_Down);
						#endif
						}
						/*Select Operating Speed*/
						if(Copy_u8Speed==Low_Speed){Clear_Bit(GPIO_E->OSPEEDR,GPIO_OSPEEDR_4_HI);}
 8003960:	793b      	ldrb	r3, [r7, #4]
 8003962:	2b04      	cmp	r3, #4
 8003964:	d108      	bne.n	8003978 <GPIO_VidPin_Mode_Output+0x2728>
 8003966:	4a03      	ldr	r2, [pc, #12]	; (8003974 <GPIO_VidPin_Mode_Output+0x2724>)
 8003968:	4b02      	ldr	r3, [pc, #8]	; (8003974 <GPIO_VidPin_Mode_Output+0x2724>)
 800396a:	689b      	ldr	r3, [r3, #8]
 800396c:	f423 7340 	bic.w	r3, r3, #768	; 0x300
 8003970:	6093      	str	r3, [r2, #8]
						else if(Copy_u8Speed==Medium_Speed){Set_Bit(GPIO_E->OSPEEDR,GPIO_OSPEEDR_4_Medium);}
						else if(Copy_u8Speed==Fast_Speed){/*Enable Compensation Cell*/Set_Bit(GPIO_E->OSPEEDR,GPIO_OSPEEDR_4_Fast);}
						else if(Copy_u8Speed==High_Speed){/*Enable Compensation Cell*/Set_Bit(GPIO_E->OSPEEDR,GPIO_OSPEEDR_4_HI);}
				break;
 8003972:	e304      	b.n	8003f7e <GPIO_VidPin_Mode_Output+0x2d2e>
 8003974:	40021000 	.word	0x40021000
						else if(Copy_u8Speed==Medium_Speed){Set_Bit(GPIO_E->OSPEEDR,GPIO_OSPEEDR_4_Medium);}
 8003978:	793b      	ldrb	r3, [r7, #4]
 800397a:	2b05      	cmp	r3, #5
 800397c:	d106      	bne.n	800398c <GPIO_VidPin_Mode_Output+0x273c>
 800397e:	4a97      	ldr	r2, [pc, #604]	; (8003bdc <GPIO_VidPin_Mode_Output+0x298c>)
 8003980:	4b96      	ldr	r3, [pc, #600]	; (8003bdc <GPIO_VidPin_Mode_Output+0x298c>)
 8003982:	689b      	ldr	r3, [r3, #8]
 8003984:	f443 7380 	orr.w	r3, r3, #256	; 0x100
 8003988:	6093      	str	r3, [r2, #8]
				break;
 800398a:	e2f8      	b.n	8003f7e <GPIO_VidPin_Mode_Output+0x2d2e>
						else if(Copy_u8Speed==Fast_Speed){/*Enable Compensation Cell*/Set_Bit(GPIO_E->OSPEEDR,GPIO_OSPEEDR_4_Fast);}
 800398c:	793b      	ldrb	r3, [r7, #4]
 800398e:	2b06      	cmp	r3, #6
 8003990:	d106      	bne.n	80039a0 <GPIO_VidPin_Mode_Output+0x2750>
 8003992:	4a92      	ldr	r2, [pc, #584]	; (8003bdc <GPIO_VidPin_Mode_Output+0x298c>)
 8003994:	4b91      	ldr	r3, [pc, #580]	; (8003bdc <GPIO_VidPin_Mode_Output+0x298c>)
 8003996:	689b      	ldr	r3, [r3, #8]
 8003998:	f443 7300 	orr.w	r3, r3, #512	; 0x200
 800399c:	6093      	str	r3, [r2, #8]
				break;
 800399e:	e2ee      	b.n	8003f7e <GPIO_VidPin_Mode_Output+0x2d2e>
						else if(Copy_u8Speed==High_Speed){/*Enable Compensation Cell*/Set_Bit(GPIO_E->OSPEEDR,GPIO_OSPEEDR_4_HI);}
 80039a0:	793b      	ldrb	r3, [r7, #4]
 80039a2:	2b07      	cmp	r3, #7
 80039a4:	f040 82eb 	bne.w	8003f7e <GPIO_VidPin_Mode_Output+0x2d2e>
 80039a8:	4a8c      	ldr	r2, [pc, #560]	; (8003bdc <GPIO_VidPin_Mode_Output+0x298c>)
 80039aa:	4b8c      	ldr	r3, [pc, #560]	; (8003bdc <GPIO_VidPin_Mode_Output+0x298c>)
 80039ac:	689b      	ldr	r3, [r3, #8]
 80039ae:	f443 7340 	orr.w	r3, r3, #768	; 0x300
 80039b2:	6093      	str	r3, [r2, #8]
				break;
 80039b4:	e2e3      	b.n	8003f7e <GPIO_VidPin_Mode_Output+0x2d2e>
				case (Pin_5):
						/*Select Output Type*/
						if(Copy_u8Type==Push_Pull){Clear_Bit(GPIO_E->OTYPER,GPIO_OTYPER_5);}
 80039b6:	797b      	ldrb	r3, [r7, #5]
 80039b8:	2b08      	cmp	r3, #8
 80039ba:	d106      	bne.n	80039ca <GPIO_VidPin_Mode_Output+0x277a>
 80039bc:	4a87      	ldr	r2, [pc, #540]	; (8003bdc <GPIO_VidPin_Mode_Output+0x298c>)
 80039be:	4b87      	ldr	r3, [pc, #540]	; (8003bdc <GPIO_VidPin_Mode_Output+0x298c>)
 80039c0:	685b      	ldr	r3, [r3, #4]
 80039c2:	f023 0320 	bic.w	r3, r3, #32
 80039c6:	6053      	str	r3, [r2, #4]
 80039c8:	e00e      	b.n	80039e8 <GPIO_VidPin_Mode_Output+0x2798>
						else if (Copy_u8Type==Open_Drain)
 80039ca:	797b      	ldrb	r3, [r7, #5]
 80039cc:	2b09      	cmp	r3, #9
 80039ce:	d10b      	bne.n	80039e8 <GPIO_VidPin_Mode_Output+0x2798>
						{
							Set_Bit(GPIO_E->OTYPER,GPIO_OTYPER_5);
 80039d0:	4a82      	ldr	r2, [pc, #520]	; (8003bdc <GPIO_VidPin_Mode_Output+0x298c>)
 80039d2:	4b82      	ldr	r3, [pc, #520]	; (8003bdc <GPIO_VidPin_Mode_Output+0x298c>)
 80039d4:	685b      	ldr	r3, [r3, #4]
 80039d6:	f043 0320 	orr.w	r3, r3, #32
 80039da:	6053      	str	r3, [r2, #4]
						#if Open_Drain_Pull == Pull_Up
							Set_Bit(GPIO_E->PUPDR,GPIO_PUPDR_5_Pull_Up);
 80039dc:	4a7f      	ldr	r2, [pc, #508]	; (8003bdc <GPIO_VidPin_Mode_Output+0x298c>)
 80039de:	4b7f      	ldr	r3, [pc, #508]	; (8003bdc <GPIO_VidPin_Mode_Output+0x298c>)
 80039e0:	68db      	ldr	r3, [r3, #12]
 80039e2:	f443 6380 	orr.w	r3, r3, #1024	; 0x400
 80039e6:	60d3      	str	r3, [r2, #12]
						#elif Open_Drain_Pull == Pull_Down
							Set_Bit(GPIO_E->PUPDR,GPIO_PUPDR_5_Pull_Down);
						#endif
						}
						/*Select Operating Speed*/
						if(Copy_u8Speed==Low_Speed){Clear_Bit(GPIO_E->OSPEEDR,GPIO_OSPEEDR_5_HI);}
 80039e8:	793b      	ldrb	r3, [r7, #4]
 80039ea:	2b04      	cmp	r3, #4
 80039ec:	d106      	bne.n	80039fc <GPIO_VidPin_Mode_Output+0x27ac>
 80039ee:	4a7b      	ldr	r2, [pc, #492]	; (8003bdc <GPIO_VidPin_Mode_Output+0x298c>)
 80039f0:	4b7a      	ldr	r3, [pc, #488]	; (8003bdc <GPIO_VidPin_Mode_Output+0x298c>)
 80039f2:	689b      	ldr	r3, [r3, #8]
 80039f4:	f423 6340 	bic.w	r3, r3, #3072	; 0xc00
 80039f8:	6093      	str	r3, [r2, #8]
						else if(Copy_u8Speed==Medium_Speed){Set_Bit(GPIO_E->OSPEEDR,GPIO_OSPEEDR_5_Medium);}
						else if(Copy_u8Speed==Fast_Speed){/*Enable Compensation Cell*/Set_Bit(GPIO_E->OSPEEDR,GPIO_OSPEEDR_5_Fast);}
						else if(Copy_u8Speed==High_Speed){/*Enable Compensation Cell*/Set_Bit(GPIO_E->OSPEEDR,GPIO_OSPEEDR_5_HI);}
				break;
 80039fa:	e2c2      	b.n	8003f82 <GPIO_VidPin_Mode_Output+0x2d32>
						else if(Copy_u8Speed==Medium_Speed){Set_Bit(GPIO_E->OSPEEDR,GPIO_OSPEEDR_5_Medium);}
 80039fc:	793b      	ldrb	r3, [r7, #4]
 80039fe:	2b05      	cmp	r3, #5
 8003a00:	d106      	bne.n	8003a10 <GPIO_VidPin_Mode_Output+0x27c0>
 8003a02:	4a76      	ldr	r2, [pc, #472]	; (8003bdc <GPIO_VidPin_Mode_Output+0x298c>)
 8003a04:	4b75      	ldr	r3, [pc, #468]	; (8003bdc <GPIO_VidPin_Mode_Output+0x298c>)
 8003a06:	689b      	ldr	r3, [r3, #8]
 8003a08:	f443 6380 	orr.w	r3, r3, #1024	; 0x400
 8003a0c:	6093      	str	r3, [r2, #8]
				break;
 8003a0e:	e2b8      	b.n	8003f82 <GPIO_VidPin_Mode_Output+0x2d32>
						else if(Copy_u8Speed==Fast_Speed){/*Enable Compensation Cell*/Set_Bit(GPIO_E->OSPEEDR,GPIO_OSPEEDR_5_Fast);}
 8003a10:	793b      	ldrb	r3, [r7, #4]
 8003a12:	2b06      	cmp	r3, #6
 8003a14:	d106      	bne.n	8003a24 <GPIO_VidPin_Mode_Output+0x27d4>
 8003a16:	4a71      	ldr	r2, [pc, #452]	; (8003bdc <GPIO_VidPin_Mode_Output+0x298c>)
 8003a18:	4b70      	ldr	r3, [pc, #448]	; (8003bdc <GPIO_VidPin_Mode_Output+0x298c>)
 8003a1a:	689b      	ldr	r3, [r3, #8]
 8003a1c:	f443 6300 	orr.w	r3, r3, #2048	; 0x800
 8003a20:	6093      	str	r3, [r2, #8]
				break;
 8003a22:	e2ae      	b.n	8003f82 <GPIO_VidPin_Mode_Output+0x2d32>
						else if(Copy_u8Speed==High_Speed){/*Enable Compensation Cell*/Set_Bit(GPIO_E->OSPEEDR,GPIO_OSPEEDR_5_HI);}
 8003a24:	793b      	ldrb	r3, [r7, #4]
 8003a26:	2b07      	cmp	r3, #7
 8003a28:	f040 82ab 	bne.w	8003f82 <GPIO_VidPin_Mode_Output+0x2d32>
 8003a2c:	4a6b      	ldr	r2, [pc, #428]	; (8003bdc <GPIO_VidPin_Mode_Output+0x298c>)
 8003a2e:	4b6b      	ldr	r3, [pc, #428]	; (8003bdc <GPIO_VidPin_Mode_Output+0x298c>)
 8003a30:	689b      	ldr	r3, [r3, #8]
 8003a32:	f443 6340 	orr.w	r3, r3, #3072	; 0xc00
 8003a36:	6093      	str	r3, [r2, #8]
				break;
 8003a38:	e2a3      	b.n	8003f82 <GPIO_VidPin_Mode_Output+0x2d32>
				case (Pin_6):
						/*Select Output Type*/
						if(Copy_u8Type==Push_Pull){Clear_Bit(GPIO_E->OTYPER,GPIO_OTYPER_6);}
 8003a3a:	797b      	ldrb	r3, [r7, #5]
 8003a3c:	2b08      	cmp	r3, #8
 8003a3e:	d106      	bne.n	8003a4e <GPIO_VidPin_Mode_Output+0x27fe>
 8003a40:	4a66      	ldr	r2, [pc, #408]	; (8003bdc <GPIO_VidPin_Mode_Output+0x298c>)
 8003a42:	4b66      	ldr	r3, [pc, #408]	; (8003bdc <GPIO_VidPin_Mode_Output+0x298c>)
 8003a44:	685b      	ldr	r3, [r3, #4]
 8003a46:	f023 0340 	bic.w	r3, r3, #64	; 0x40
 8003a4a:	6053      	str	r3, [r2, #4]
 8003a4c:	e00e      	b.n	8003a6c <GPIO_VidPin_Mode_Output+0x281c>
						else if (Copy_u8Type==Open_Drain)
 8003a4e:	797b      	ldrb	r3, [r7, #5]
 8003a50:	2b09      	cmp	r3, #9
 8003a52:	d10b      	bne.n	8003a6c <GPIO_VidPin_Mode_Output+0x281c>
						{
							Set_Bit(GPIO_E->OTYPER,GPIO_OTYPER_6);
 8003a54:	4a61      	ldr	r2, [pc, #388]	; (8003bdc <GPIO_VidPin_Mode_Output+0x298c>)
 8003a56:	4b61      	ldr	r3, [pc, #388]	; (8003bdc <GPIO_VidPin_Mode_Output+0x298c>)
 8003a58:	685b      	ldr	r3, [r3, #4]
 8003a5a:	f043 0340 	orr.w	r3, r3, #64	; 0x40
 8003a5e:	6053      	str	r3, [r2, #4]
						#if Open_Drain_Pull == Pull_Up
							Set_Bit(GPIO_E->PUPDR,GPIO_PUPDR_6_Pull_Up);
 8003a60:	4a5e      	ldr	r2, [pc, #376]	; (8003bdc <GPIO_VidPin_Mode_Output+0x298c>)
 8003a62:	4b5e      	ldr	r3, [pc, #376]	; (8003bdc <GPIO_VidPin_Mode_Output+0x298c>)
 8003a64:	68db      	ldr	r3, [r3, #12]
 8003a66:	f443 5380 	orr.w	r3, r3, #4096	; 0x1000
 8003a6a:	60d3      	str	r3, [r2, #12]
						#elif Open_Drain_Pull == Pull_Down
							Set_Bit(GPIO_E->PUPDR,GPIO_PUPDR_6_Pull_Down);
						#endif
						}
						/*Select Operating Speed*/
						if(Copy_u8Speed==Low_Speed){Clear_Bit(GPIO_E->OSPEEDR,GPIO_OSPEEDR_6_HI);}
 8003a6c:	793b      	ldrb	r3, [r7, #4]
 8003a6e:	2b04      	cmp	r3, #4
 8003a70:	d106      	bne.n	8003a80 <GPIO_VidPin_Mode_Output+0x2830>
 8003a72:	4a5a      	ldr	r2, [pc, #360]	; (8003bdc <GPIO_VidPin_Mode_Output+0x298c>)
 8003a74:	4b59      	ldr	r3, [pc, #356]	; (8003bdc <GPIO_VidPin_Mode_Output+0x298c>)
 8003a76:	689b      	ldr	r3, [r3, #8]
 8003a78:	f423 5340 	bic.w	r3, r3, #12288	; 0x3000
 8003a7c:	6093      	str	r3, [r2, #8]
						else if(Copy_u8Speed==Medium_Speed){Set_Bit(GPIO_E->OSPEEDR,GPIO_OSPEEDR_6_Medium);}
						else if(Copy_u8Speed==Fast_Speed){/*Enable Compensation Cell*/Set_Bit(GPIO_E->OSPEEDR,GPIO_OSPEEDR_6_Fast);}
						else if(Copy_u8Speed==High_Speed){/*Enable Compensation Cell*/Set_Bit(GPIO_E->OSPEEDR,GPIO_OSPEEDR_6_HI);}
				break;
 8003a7e:	e282      	b.n	8003f86 <GPIO_VidPin_Mode_Output+0x2d36>
						else if(Copy_u8Speed==Medium_Speed){Set_Bit(GPIO_E->OSPEEDR,GPIO_OSPEEDR_6_Medium);}
 8003a80:	793b      	ldrb	r3, [r7, #4]
 8003a82:	2b05      	cmp	r3, #5
 8003a84:	d106      	bne.n	8003a94 <GPIO_VidPin_Mode_Output+0x2844>
 8003a86:	4a55      	ldr	r2, [pc, #340]	; (8003bdc <GPIO_VidPin_Mode_Output+0x298c>)
 8003a88:	4b54      	ldr	r3, [pc, #336]	; (8003bdc <GPIO_VidPin_Mode_Output+0x298c>)
 8003a8a:	689b      	ldr	r3, [r3, #8]
 8003a8c:	f443 5380 	orr.w	r3, r3, #4096	; 0x1000
 8003a90:	6093      	str	r3, [r2, #8]
				break;
 8003a92:	e278      	b.n	8003f86 <GPIO_VidPin_Mode_Output+0x2d36>
						else if(Copy_u8Speed==Fast_Speed){/*Enable Compensation Cell*/Set_Bit(GPIO_E->OSPEEDR,GPIO_OSPEEDR_6_Fast);}
 8003a94:	793b      	ldrb	r3, [r7, #4]
 8003a96:	2b06      	cmp	r3, #6
 8003a98:	d106      	bne.n	8003aa8 <GPIO_VidPin_Mode_Output+0x2858>
 8003a9a:	4a50      	ldr	r2, [pc, #320]	; (8003bdc <GPIO_VidPin_Mode_Output+0x298c>)
 8003a9c:	4b4f      	ldr	r3, [pc, #316]	; (8003bdc <GPIO_VidPin_Mode_Output+0x298c>)
 8003a9e:	689b      	ldr	r3, [r3, #8]
 8003aa0:	f443 5300 	orr.w	r3, r3, #8192	; 0x2000
 8003aa4:	6093      	str	r3, [r2, #8]
				break;
 8003aa6:	e26e      	b.n	8003f86 <GPIO_VidPin_Mode_Output+0x2d36>
						else if(Copy_u8Speed==High_Speed){/*Enable Compensation Cell*/Set_Bit(GPIO_E->OSPEEDR,GPIO_OSPEEDR_6_HI);}
 8003aa8:	793b      	ldrb	r3, [r7, #4]
 8003aaa:	2b07      	cmp	r3, #7
 8003aac:	f040 826b 	bne.w	8003f86 <GPIO_VidPin_Mode_Output+0x2d36>
 8003ab0:	4a4a      	ldr	r2, [pc, #296]	; (8003bdc <GPIO_VidPin_Mode_Output+0x298c>)
 8003ab2:	4b4a      	ldr	r3, [pc, #296]	; (8003bdc <GPIO_VidPin_Mode_Output+0x298c>)
 8003ab4:	689b      	ldr	r3, [r3, #8]
 8003ab6:	f443 5340 	orr.w	r3, r3, #12288	; 0x3000
 8003aba:	6093      	str	r3, [r2, #8]
				break;
 8003abc:	e263      	b.n	8003f86 <GPIO_VidPin_Mode_Output+0x2d36>
				case (Pin_7):
						/*Select Output Type*/
						if(Copy_u8Type==Push_Pull){Clear_Bit(GPIO_E->OTYPER,GPIO_OTYPER_7);}
 8003abe:	797b      	ldrb	r3, [r7, #5]
 8003ac0:	2b08      	cmp	r3, #8
 8003ac2:	d106      	bne.n	8003ad2 <GPIO_VidPin_Mode_Output+0x2882>
 8003ac4:	4a45      	ldr	r2, [pc, #276]	; (8003bdc <GPIO_VidPin_Mode_Output+0x298c>)
 8003ac6:	4b45      	ldr	r3, [pc, #276]	; (8003bdc <GPIO_VidPin_Mode_Output+0x298c>)
 8003ac8:	685b      	ldr	r3, [r3, #4]
 8003aca:	f023 0380 	bic.w	r3, r3, #128	; 0x80
 8003ace:	6053      	str	r3, [r2, #4]
 8003ad0:	e00e      	b.n	8003af0 <GPIO_VidPin_Mode_Output+0x28a0>
						else if (Copy_u8Type==Open_Drain)
 8003ad2:	797b      	ldrb	r3, [r7, #5]
 8003ad4:	2b09      	cmp	r3, #9
 8003ad6:	d10b      	bne.n	8003af0 <GPIO_VidPin_Mode_Output+0x28a0>
						{
							Set_Bit(GPIO_E->OTYPER,GPIO_OTYPER_7);
 8003ad8:	4a40      	ldr	r2, [pc, #256]	; (8003bdc <GPIO_VidPin_Mode_Output+0x298c>)
 8003ada:	4b40      	ldr	r3, [pc, #256]	; (8003bdc <GPIO_VidPin_Mode_Output+0x298c>)
 8003adc:	685b      	ldr	r3, [r3, #4]
 8003ade:	f043 0380 	orr.w	r3, r3, #128	; 0x80
 8003ae2:	6053      	str	r3, [r2, #4]
						#if Open_Drain_Pull == Pull_Up
							Set_Bit(GPIO_E->PUPDR,GPIO_PUPDR_7_Pull_Up);
 8003ae4:	4a3d      	ldr	r2, [pc, #244]	; (8003bdc <GPIO_VidPin_Mode_Output+0x298c>)
 8003ae6:	4b3d      	ldr	r3, [pc, #244]	; (8003bdc <GPIO_VidPin_Mode_Output+0x298c>)
 8003ae8:	68db      	ldr	r3, [r3, #12]
 8003aea:	f443 4380 	orr.w	r3, r3, #16384	; 0x4000
 8003aee:	60d3      	str	r3, [r2, #12]
						#elif Open_Drain_Pull == Pull_Down
							Set_Bit(GPIO_E->PUPDR,GPIO_PUPDR_7_Pull_Down);
						#endif
						}
						/*Select Operating Speed*/
						if(Copy_u8Speed==Low_Speed){Clear_Bit(GPIO_E->OSPEEDR,GPIO_OSPEEDR_7_HI);}
 8003af0:	793b      	ldrb	r3, [r7, #4]
 8003af2:	2b04      	cmp	r3, #4
 8003af4:	d106      	bne.n	8003b04 <GPIO_VidPin_Mode_Output+0x28b4>
 8003af6:	4a39      	ldr	r2, [pc, #228]	; (8003bdc <GPIO_VidPin_Mode_Output+0x298c>)
 8003af8:	4b38      	ldr	r3, [pc, #224]	; (8003bdc <GPIO_VidPin_Mode_Output+0x298c>)
 8003afa:	689b      	ldr	r3, [r3, #8]
 8003afc:	f423 4340 	bic.w	r3, r3, #49152	; 0xc000
 8003b00:	6093      	str	r3, [r2, #8]
						else if(Copy_u8Speed==Medium_Speed){Set_Bit(GPIO_E->OSPEEDR,GPIO_OSPEEDR_7_Medium);}
						else if(Copy_u8Speed==Fast_Speed){/*Enable Compensation Cell*/Set_Bit(GPIO_E->OSPEEDR,GPIO_OSPEEDR_7_Fast);}
						else if(Copy_u8Speed==High_Speed){/*Enable Compensation Cell*/Set_Bit(GPIO_E->OSPEEDR,GPIO_OSPEEDR_7_HI);}
				break;
 8003b02:	e242      	b.n	8003f8a <GPIO_VidPin_Mode_Output+0x2d3a>
						else if(Copy_u8Speed==Medium_Speed){Set_Bit(GPIO_E->OSPEEDR,GPIO_OSPEEDR_7_Medium);}
 8003b04:	793b      	ldrb	r3, [r7, #4]
 8003b06:	2b05      	cmp	r3, #5
 8003b08:	d106      	bne.n	8003b18 <GPIO_VidPin_Mode_Output+0x28c8>
 8003b0a:	4a34      	ldr	r2, [pc, #208]	; (8003bdc <GPIO_VidPin_Mode_Output+0x298c>)
 8003b0c:	4b33      	ldr	r3, [pc, #204]	; (8003bdc <GPIO_VidPin_Mode_Output+0x298c>)
 8003b0e:	689b      	ldr	r3, [r3, #8]
 8003b10:	f443 4380 	orr.w	r3, r3, #16384	; 0x4000
 8003b14:	6093      	str	r3, [r2, #8]
				break;
 8003b16:	e238      	b.n	8003f8a <GPIO_VidPin_Mode_Output+0x2d3a>
						else if(Copy_u8Speed==Fast_Speed){/*Enable Compensation Cell*/Set_Bit(GPIO_E->OSPEEDR,GPIO_OSPEEDR_7_Fast);}
 8003b18:	793b      	ldrb	r3, [r7, #4]
 8003b1a:	2b06      	cmp	r3, #6
 8003b1c:	d106      	bne.n	8003b2c <GPIO_VidPin_Mode_Output+0x28dc>
 8003b1e:	4a2f      	ldr	r2, [pc, #188]	; (8003bdc <GPIO_VidPin_Mode_Output+0x298c>)
 8003b20:	4b2e      	ldr	r3, [pc, #184]	; (8003bdc <GPIO_VidPin_Mode_Output+0x298c>)
 8003b22:	689b      	ldr	r3, [r3, #8]
 8003b24:	f443 4300 	orr.w	r3, r3, #32768	; 0x8000
 8003b28:	6093      	str	r3, [r2, #8]
				break;
 8003b2a:	e22e      	b.n	8003f8a <GPIO_VidPin_Mode_Output+0x2d3a>
						else if(Copy_u8Speed==High_Speed){/*Enable Compensation Cell*/Set_Bit(GPIO_E->OSPEEDR,GPIO_OSPEEDR_7_HI);}
 8003b2c:	793b      	ldrb	r3, [r7, #4]
 8003b2e:	2b07      	cmp	r3, #7
 8003b30:	f040 822b 	bne.w	8003f8a <GPIO_VidPin_Mode_Output+0x2d3a>
 8003b34:	4a29      	ldr	r2, [pc, #164]	; (8003bdc <GPIO_VidPin_Mode_Output+0x298c>)
 8003b36:	4b29      	ldr	r3, [pc, #164]	; (8003bdc <GPIO_VidPin_Mode_Output+0x298c>)
 8003b38:	689b      	ldr	r3, [r3, #8]
 8003b3a:	f443 4340 	orr.w	r3, r3, #49152	; 0xc000
 8003b3e:	6093      	str	r3, [r2, #8]
				break;
 8003b40:	e223      	b.n	8003f8a <GPIO_VidPin_Mode_Output+0x2d3a>
				case (Pin_8):
						/*Select Output Type*/
						if(Copy_u8Type==Push_Pull){Clear_Bit(GPIO_E->OTYPER,GPIO_OTYPER_8);}
 8003b42:	797b      	ldrb	r3, [r7, #5]
 8003b44:	2b08      	cmp	r3, #8
 8003b46:	d106      	bne.n	8003b56 <GPIO_VidPin_Mode_Output+0x2906>
 8003b48:	4a24      	ldr	r2, [pc, #144]	; (8003bdc <GPIO_VidPin_Mode_Output+0x298c>)
 8003b4a:	4b24      	ldr	r3, [pc, #144]	; (8003bdc <GPIO_VidPin_Mode_Output+0x298c>)
 8003b4c:	685b      	ldr	r3, [r3, #4]
 8003b4e:	f423 7380 	bic.w	r3, r3, #256	; 0x100
 8003b52:	6053      	str	r3, [r2, #4]
 8003b54:	e00e      	b.n	8003b74 <GPIO_VidPin_Mode_Output+0x2924>
						else if (Copy_u8Type==Open_Drain)
 8003b56:	797b      	ldrb	r3, [r7, #5]
 8003b58:	2b09      	cmp	r3, #9
 8003b5a:	d10b      	bne.n	8003b74 <GPIO_VidPin_Mode_Output+0x2924>
						{
							Set_Bit(GPIO_E->OTYPER,GPIO_OTYPER_8);
 8003b5c:	4a1f      	ldr	r2, [pc, #124]	; (8003bdc <GPIO_VidPin_Mode_Output+0x298c>)
 8003b5e:	4b1f      	ldr	r3, [pc, #124]	; (8003bdc <GPIO_VidPin_Mode_Output+0x298c>)
 8003b60:	685b      	ldr	r3, [r3, #4]
 8003b62:	f443 7380 	orr.w	r3, r3, #256	; 0x100
 8003b66:	6053      	str	r3, [r2, #4]
						#if Open_Drain_Pull == Pull_Up
							Set_Bit(GPIO_E->PUPDR,GPIO_PUPDR_8_Pull_Up);
 8003b68:	4a1c      	ldr	r2, [pc, #112]	; (8003bdc <GPIO_VidPin_Mode_Output+0x298c>)
 8003b6a:	4b1c      	ldr	r3, [pc, #112]	; (8003bdc <GPIO_VidPin_Mode_Output+0x298c>)
 8003b6c:	68db      	ldr	r3, [r3, #12]
 8003b6e:	f443 3380 	orr.w	r3, r3, #65536	; 0x10000
 8003b72:	60d3      	str	r3, [r2, #12]
						#elif Open_Drain_Pull == Pull_Down
							Set_Bit(GPIO_E->PUPDR,GPIO_PUPDR_8_Pull_Down);
						#endif
						}
						/*Select Operating Speed*/
						if(Copy_u8Speed==Low_Speed){Clear_Bit(GPIO_E->OSPEEDR,GPIO_OSPEEDR_8_HI);}
 8003b74:	793b      	ldrb	r3, [r7, #4]
 8003b76:	2b04      	cmp	r3, #4
 8003b78:	d106      	bne.n	8003b88 <GPIO_VidPin_Mode_Output+0x2938>
 8003b7a:	4a18      	ldr	r2, [pc, #96]	; (8003bdc <GPIO_VidPin_Mode_Output+0x298c>)
 8003b7c:	4b17      	ldr	r3, [pc, #92]	; (8003bdc <GPIO_VidPin_Mode_Output+0x298c>)
 8003b7e:	689b      	ldr	r3, [r3, #8]
 8003b80:	f423 3340 	bic.w	r3, r3, #196608	; 0x30000
 8003b84:	6093      	str	r3, [r2, #8]
						else if(Copy_u8Speed==Medium_Speed){Set_Bit(GPIO_E->OSPEEDR,GPIO_OSPEEDR_8_Medium);}
						else if(Copy_u8Speed==Fast_Speed){/*Enable Compensation Cell*/Set_Bit(GPIO_E->OSPEEDR,GPIO_OSPEEDR_8_Fast);}
						else if(Copy_u8Speed==High_Speed){/*Enable Compensation Cell*/Set_Bit(GPIO_E->OSPEEDR,GPIO_OSPEEDR_8_HI);}
				break;
 8003b86:	e202      	b.n	8003f8e <GPIO_VidPin_Mode_Output+0x2d3e>
						else if(Copy_u8Speed==Medium_Speed){Set_Bit(GPIO_E->OSPEEDR,GPIO_OSPEEDR_8_Medium);}
 8003b88:	793b      	ldrb	r3, [r7, #4]
 8003b8a:	2b05      	cmp	r3, #5
 8003b8c:	d106      	bne.n	8003b9c <GPIO_VidPin_Mode_Output+0x294c>
 8003b8e:	4a13      	ldr	r2, [pc, #76]	; (8003bdc <GPIO_VidPin_Mode_Output+0x298c>)
 8003b90:	4b12      	ldr	r3, [pc, #72]	; (8003bdc <GPIO_VidPin_Mode_Output+0x298c>)
 8003b92:	689b      	ldr	r3, [r3, #8]
 8003b94:	f443 3380 	orr.w	r3, r3, #65536	; 0x10000
 8003b98:	6093      	str	r3, [r2, #8]
				break;
 8003b9a:	e1f8      	b.n	8003f8e <GPIO_VidPin_Mode_Output+0x2d3e>
						else if(Copy_u8Speed==Fast_Speed){/*Enable Compensation Cell*/Set_Bit(GPIO_E->OSPEEDR,GPIO_OSPEEDR_8_Fast);}
 8003b9c:	793b      	ldrb	r3, [r7, #4]
 8003b9e:	2b06      	cmp	r3, #6
 8003ba0:	d106      	bne.n	8003bb0 <GPIO_VidPin_Mode_Output+0x2960>
 8003ba2:	4a0e      	ldr	r2, [pc, #56]	; (8003bdc <GPIO_VidPin_Mode_Output+0x298c>)
 8003ba4:	4b0d      	ldr	r3, [pc, #52]	; (8003bdc <GPIO_VidPin_Mode_Output+0x298c>)
 8003ba6:	689b      	ldr	r3, [r3, #8]
 8003ba8:	f443 3300 	orr.w	r3, r3, #131072	; 0x20000
 8003bac:	6093      	str	r3, [r2, #8]
				break;
 8003bae:	e1ee      	b.n	8003f8e <GPIO_VidPin_Mode_Output+0x2d3e>
						else if(Copy_u8Speed==High_Speed){/*Enable Compensation Cell*/Set_Bit(GPIO_E->OSPEEDR,GPIO_OSPEEDR_8_HI);}
 8003bb0:	793b      	ldrb	r3, [r7, #4]
 8003bb2:	2b07      	cmp	r3, #7
 8003bb4:	f040 81eb 	bne.w	8003f8e <GPIO_VidPin_Mode_Output+0x2d3e>
 8003bb8:	4a08      	ldr	r2, [pc, #32]	; (8003bdc <GPIO_VidPin_Mode_Output+0x298c>)
 8003bba:	4b08      	ldr	r3, [pc, #32]	; (8003bdc <GPIO_VidPin_Mode_Output+0x298c>)
 8003bbc:	689b      	ldr	r3, [r3, #8]
 8003bbe:	f443 3340 	orr.w	r3, r3, #196608	; 0x30000
 8003bc2:	6093      	str	r3, [r2, #8]
				break;
 8003bc4:	e1e3      	b.n	8003f8e <GPIO_VidPin_Mode_Output+0x2d3e>
				case (Pin_9):
						/*Select Output Type*/
						if(Copy_u8Type==Push_Pull){Clear_Bit(GPIO_E->OTYPER,GPIO_OTYPER_9);}
 8003bc6:	797b      	ldrb	r3, [r7, #5]
 8003bc8:	2b08      	cmp	r3, #8
 8003bca:	d109      	bne.n	8003be0 <GPIO_VidPin_Mode_Output+0x2990>
 8003bcc:	4a03      	ldr	r2, [pc, #12]	; (8003bdc <GPIO_VidPin_Mode_Output+0x298c>)
 8003bce:	4b03      	ldr	r3, [pc, #12]	; (8003bdc <GPIO_VidPin_Mode_Output+0x298c>)
 8003bd0:	685b      	ldr	r3, [r3, #4]
 8003bd2:	f423 7300 	bic.w	r3, r3, #512	; 0x200
 8003bd6:	6053      	str	r3, [r2, #4]
 8003bd8:	e011      	b.n	8003bfe <GPIO_VidPin_Mode_Output+0x29ae>
 8003bda:	bf00      	nop
 8003bdc:	40021000 	.word	0x40021000
						else if (Copy_u8Type==Open_Drain)
 8003be0:	797b      	ldrb	r3, [r7, #5]
 8003be2:	2b09      	cmp	r3, #9
 8003be4:	d10b      	bne.n	8003bfe <GPIO_VidPin_Mode_Output+0x29ae>
						{
							Set_Bit(GPIO_E->OTYPER,GPIO_OTYPER_9);
 8003be6:	4a94      	ldr	r2, [pc, #592]	; (8003e38 <GPIO_VidPin_Mode_Output+0x2be8>)
 8003be8:	4b93      	ldr	r3, [pc, #588]	; (8003e38 <GPIO_VidPin_Mode_Output+0x2be8>)
 8003bea:	685b      	ldr	r3, [r3, #4]
 8003bec:	f443 7300 	orr.w	r3, r3, #512	; 0x200
 8003bf0:	6053      	str	r3, [r2, #4]
						#if Open_Drain_Pull == Pull_Up
							Set_Bit(GPIO_E->PUPDR,GPIO_PUPDR_9_Pull_Up);
 8003bf2:	4a91      	ldr	r2, [pc, #580]	; (8003e38 <GPIO_VidPin_Mode_Output+0x2be8>)
 8003bf4:	4b90      	ldr	r3, [pc, #576]	; (8003e38 <GPIO_VidPin_Mode_Output+0x2be8>)
 8003bf6:	68db      	ldr	r3, [r3, #12]
 8003bf8:	f443 2380 	orr.w	r3, r3, #262144	; 0x40000
 8003bfc:	60d3      	str	r3, [r2, #12]
						#elif Open_Drain_Pull == Pull_Down
							Set_Bit(GPIO_E->PUPDR,GPIO_PUPDR_9_Pull_Down);
						#endif
						}
						/*Select Operating Speed*/
						if(Copy_u8Speed==Low_Speed){Clear_Bit(GPIO_E->OSPEEDR,GPIO_OSPEEDR_9_HI);}
 8003bfe:	793b      	ldrb	r3, [r7, #4]
 8003c00:	2b04      	cmp	r3, #4
 8003c02:	d106      	bne.n	8003c12 <GPIO_VidPin_Mode_Output+0x29c2>
 8003c04:	4a8c      	ldr	r2, [pc, #560]	; (8003e38 <GPIO_VidPin_Mode_Output+0x2be8>)
 8003c06:	4b8c      	ldr	r3, [pc, #560]	; (8003e38 <GPIO_VidPin_Mode_Output+0x2be8>)
 8003c08:	689b      	ldr	r3, [r3, #8]
 8003c0a:	f423 2340 	bic.w	r3, r3, #786432	; 0xc0000
 8003c0e:	6093      	str	r3, [r2, #8]
						else if(Copy_u8Speed==Medium_Speed){Set_Bit(GPIO_E->OSPEEDR,GPIO_OSPEEDR_9_Medium);}
						else if(Copy_u8Speed==Fast_Speed){/*Enable Compensation Cell*/Set_Bit(GPIO_E->OSPEEDR,GPIO_OSPEEDR_9_Fast);}
						else if(Copy_u8Speed==High_Speed){/*Enable Compensation Cell*/Set_Bit(GPIO_E->OSPEEDR,GPIO_OSPEEDR_9_HI);}
				break;
 8003c10:	e1bf      	b.n	8003f92 <GPIO_VidPin_Mode_Output+0x2d42>
						else if(Copy_u8Speed==Medium_Speed){Set_Bit(GPIO_E->OSPEEDR,GPIO_OSPEEDR_9_Medium);}
 8003c12:	793b      	ldrb	r3, [r7, #4]
 8003c14:	2b05      	cmp	r3, #5
 8003c16:	d106      	bne.n	8003c26 <GPIO_VidPin_Mode_Output+0x29d6>
 8003c18:	4a87      	ldr	r2, [pc, #540]	; (8003e38 <GPIO_VidPin_Mode_Output+0x2be8>)
 8003c1a:	4b87      	ldr	r3, [pc, #540]	; (8003e38 <GPIO_VidPin_Mode_Output+0x2be8>)
 8003c1c:	689b      	ldr	r3, [r3, #8]
 8003c1e:	f443 2380 	orr.w	r3, r3, #262144	; 0x40000
 8003c22:	6093      	str	r3, [r2, #8]
				break;
 8003c24:	e1b5      	b.n	8003f92 <GPIO_VidPin_Mode_Output+0x2d42>
						else if(Copy_u8Speed==Fast_Speed){/*Enable Compensation Cell*/Set_Bit(GPIO_E->OSPEEDR,GPIO_OSPEEDR_9_Fast);}
 8003c26:	793b      	ldrb	r3, [r7, #4]
 8003c28:	2b06      	cmp	r3, #6
 8003c2a:	d106      	bne.n	8003c3a <GPIO_VidPin_Mode_Output+0x29ea>
 8003c2c:	4a82      	ldr	r2, [pc, #520]	; (8003e38 <GPIO_VidPin_Mode_Output+0x2be8>)
 8003c2e:	4b82      	ldr	r3, [pc, #520]	; (8003e38 <GPIO_VidPin_Mode_Output+0x2be8>)
 8003c30:	689b      	ldr	r3, [r3, #8]
 8003c32:	f443 2300 	orr.w	r3, r3, #524288	; 0x80000
 8003c36:	6093      	str	r3, [r2, #8]
				break;
 8003c38:	e1ab      	b.n	8003f92 <GPIO_VidPin_Mode_Output+0x2d42>
						else if(Copy_u8Speed==High_Speed){/*Enable Compensation Cell*/Set_Bit(GPIO_E->OSPEEDR,GPIO_OSPEEDR_9_HI);}
 8003c3a:	793b      	ldrb	r3, [r7, #4]
 8003c3c:	2b07      	cmp	r3, #7
 8003c3e:	f040 81a8 	bne.w	8003f92 <GPIO_VidPin_Mode_Output+0x2d42>
 8003c42:	4a7d      	ldr	r2, [pc, #500]	; (8003e38 <GPIO_VidPin_Mode_Output+0x2be8>)
 8003c44:	4b7c      	ldr	r3, [pc, #496]	; (8003e38 <GPIO_VidPin_Mode_Output+0x2be8>)
 8003c46:	689b      	ldr	r3, [r3, #8]
 8003c48:	f443 2340 	orr.w	r3, r3, #786432	; 0xc0000
 8003c4c:	6093      	str	r3, [r2, #8]
				break;
 8003c4e:	e1a0      	b.n	8003f92 <GPIO_VidPin_Mode_Output+0x2d42>
				case (Pin_10):
						/*Select Output Type*/
						if(Copy_u8Type==Push_Pull){Clear_Bit(GPIO_E->OTYPER,GPIO_OTYPER_10);}
 8003c50:	797b      	ldrb	r3, [r7, #5]
 8003c52:	2b08      	cmp	r3, #8
 8003c54:	d106      	bne.n	8003c64 <GPIO_VidPin_Mode_Output+0x2a14>
 8003c56:	4a78      	ldr	r2, [pc, #480]	; (8003e38 <GPIO_VidPin_Mode_Output+0x2be8>)
 8003c58:	4b77      	ldr	r3, [pc, #476]	; (8003e38 <GPIO_VidPin_Mode_Output+0x2be8>)
 8003c5a:	685b      	ldr	r3, [r3, #4]
 8003c5c:	f423 6380 	bic.w	r3, r3, #1024	; 0x400
 8003c60:	6053      	str	r3, [r2, #4]
 8003c62:	e00e      	b.n	8003c82 <GPIO_VidPin_Mode_Output+0x2a32>
						else if (Copy_u8Type==Open_Drain)
 8003c64:	797b      	ldrb	r3, [r7, #5]
 8003c66:	2b09      	cmp	r3, #9
 8003c68:	d10b      	bne.n	8003c82 <GPIO_VidPin_Mode_Output+0x2a32>
						{
							Set_Bit(GPIO_E->OTYPER,GPIO_OTYPER_10);
 8003c6a:	4a73      	ldr	r2, [pc, #460]	; (8003e38 <GPIO_VidPin_Mode_Output+0x2be8>)
 8003c6c:	4b72      	ldr	r3, [pc, #456]	; (8003e38 <GPIO_VidPin_Mode_Output+0x2be8>)
 8003c6e:	685b      	ldr	r3, [r3, #4]
 8003c70:	f443 6380 	orr.w	r3, r3, #1024	; 0x400
 8003c74:	6053      	str	r3, [r2, #4]
						#if Open_Drain_Pull == Pull_Up
							Set_Bit(GPIO_E->PUPDR,GPIO_PUPDR_10_Pull_Up);
 8003c76:	4a70      	ldr	r2, [pc, #448]	; (8003e38 <GPIO_VidPin_Mode_Output+0x2be8>)
 8003c78:	4b6f      	ldr	r3, [pc, #444]	; (8003e38 <GPIO_VidPin_Mode_Output+0x2be8>)
 8003c7a:	68db      	ldr	r3, [r3, #12]
 8003c7c:	f443 1380 	orr.w	r3, r3, #1048576	; 0x100000
 8003c80:	60d3      	str	r3, [r2, #12]
						#elif Open_Drain_Pull == Pull_Down
							Set_Bit(GPIO_E->PUPDR,GPIO_PUPDR_10_Pull_Down);
						#endif
						}
						/*Select Operating Speed*/
						if(Copy_u8Speed==Low_Speed){Clear_Bit(GPIO_E->OSPEEDR,GPIO_OSPEEDR_10_HI);}
 8003c82:	793b      	ldrb	r3, [r7, #4]
 8003c84:	2b04      	cmp	r3, #4
 8003c86:	d106      	bne.n	8003c96 <GPIO_VidPin_Mode_Output+0x2a46>
 8003c88:	4a6b      	ldr	r2, [pc, #428]	; (8003e38 <GPIO_VidPin_Mode_Output+0x2be8>)
 8003c8a:	4b6b      	ldr	r3, [pc, #428]	; (8003e38 <GPIO_VidPin_Mode_Output+0x2be8>)
 8003c8c:	689b      	ldr	r3, [r3, #8]
 8003c8e:	f423 1340 	bic.w	r3, r3, #3145728	; 0x300000
 8003c92:	6093      	str	r3, [r2, #8]
						else if(Copy_u8Speed==Medium_Speed){Set_Bit(GPIO_E->OSPEEDR,GPIO_OSPEEDR_10_Medium);}
						else if(Copy_u8Speed==Fast_Speed){/*Enable Compensation Cell*/Set_Bit(GPIO_E->OSPEEDR,GPIO_OSPEEDR_10_Fast);}
						else if(Copy_u8Speed==High_Speed){/*Enable Compensation Cell*/Set_Bit(GPIO_E->OSPEEDR,GPIO_OSPEEDR_10_HI);}
				break;
 8003c94:	e17f      	b.n	8003f96 <GPIO_VidPin_Mode_Output+0x2d46>
						else if(Copy_u8Speed==Medium_Speed){Set_Bit(GPIO_E->OSPEEDR,GPIO_OSPEEDR_10_Medium);}
 8003c96:	793b      	ldrb	r3, [r7, #4]
 8003c98:	2b05      	cmp	r3, #5
 8003c9a:	d106      	bne.n	8003caa <GPIO_VidPin_Mode_Output+0x2a5a>
 8003c9c:	4a66      	ldr	r2, [pc, #408]	; (8003e38 <GPIO_VidPin_Mode_Output+0x2be8>)
 8003c9e:	4b66      	ldr	r3, [pc, #408]	; (8003e38 <GPIO_VidPin_Mode_Output+0x2be8>)
 8003ca0:	689b      	ldr	r3, [r3, #8]
 8003ca2:	f443 1380 	orr.w	r3, r3, #1048576	; 0x100000
 8003ca6:	6093      	str	r3, [r2, #8]
				break;
 8003ca8:	e175      	b.n	8003f96 <GPIO_VidPin_Mode_Output+0x2d46>
						else if(Copy_u8Speed==Fast_Speed){/*Enable Compensation Cell*/Set_Bit(GPIO_E->OSPEEDR,GPIO_OSPEEDR_10_Fast);}
 8003caa:	793b      	ldrb	r3, [r7, #4]
 8003cac:	2b06      	cmp	r3, #6
 8003cae:	d106      	bne.n	8003cbe <GPIO_VidPin_Mode_Output+0x2a6e>
 8003cb0:	4a61      	ldr	r2, [pc, #388]	; (8003e38 <GPIO_VidPin_Mode_Output+0x2be8>)
 8003cb2:	4b61      	ldr	r3, [pc, #388]	; (8003e38 <GPIO_VidPin_Mode_Output+0x2be8>)
 8003cb4:	689b      	ldr	r3, [r3, #8]
 8003cb6:	f443 1300 	orr.w	r3, r3, #2097152	; 0x200000
 8003cba:	6093      	str	r3, [r2, #8]
				break;
 8003cbc:	e16b      	b.n	8003f96 <GPIO_VidPin_Mode_Output+0x2d46>
						else if(Copy_u8Speed==High_Speed){/*Enable Compensation Cell*/Set_Bit(GPIO_E->OSPEEDR,GPIO_OSPEEDR_10_HI);}
 8003cbe:	793b      	ldrb	r3, [r7, #4]
 8003cc0:	2b07      	cmp	r3, #7
 8003cc2:	f040 8168 	bne.w	8003f96 <GPIO_VidPin_Mode_Output+0x2d46>
 8003cc6:	4a5c      	ldr	r2, [pc, #368]	; (8003e38 <GPIO_VidPin_Mode_Output+0x2be8>)
 8003cc8:	4b5b      	ldr	r3, [pc, #364]	; (8003e38 <GPIO_VidPin_Mode_Output+0x2be8>)
 8003cca:	689b      	ldr	r3, [r3, #8]
 8003ccc:	f443 1340 	orr.w	r3, r3, #3145728	; 0x300000
 8003cd0:	6093      	str	r3, [r2, #8]
				break;
 8003cd2:	e160      	b.n	8003f96 <GPIO_VidPin_Mode_Output+0x2d46>
				case (Pin_11):
						/*Select Output Type*/
						if(Copy_u8Type==Push_Pull){Clear_Bit(GPIO_E->OTYPER,GPIO_OTYPER_11);}
 8003cd4:	797b      	ldrb	r3, [r7, #5]
 8003cd6:	2b08      	cmp	r3, #8
 8003cd8:	d106      	bne.n	8003ce8 <GPIO_VidPin_Mode_Output+0x2a98>
 8003cda:	4a57      	ldr	r2, [pc, #348]	; (8003e38 <GPIO_VidPin_Mode_Output+0x2be8>)
 8003cdc:	4b56      	ldr	r3, [pc, #344]	; (8003e38 <GPIO_VidPin_Mode_Output+0x2be8>)
 8003cde:	685b      	ldr	r3, [r3, #4]
 8003ce0:	f423 6300 	bic.w	r3, r3, #2048	; 0x800
 8003ce4:	6053      	str	r3, [r2, #4]
 8003ce6:	e00e      	b.n	8003d06 <GPIO_VidPin_Mode_Output+0x2ab6>
						else if (Copy_u8Type==Open_Drain)
 8003ce8:	797b      	ldrb	r3, [r7, #5]
 8003cea:	2b09      	cmp	r3, #9
 8003cec:	d10b      	bne.n	8003d06 <GPIO_VidPin_Mode_Output+0x2ab6>
						{
							Set_Bit(GPIO_E->OTYPER,GPIO_OTYPER_11);
 8003cee:	4a52      	ldr	r2, [pc, #328]	; (8003e38 <GPIO_VidPin_Mode_Output+0x2be8>)
 8003cf0:	4b51      	ldr	r3, [pc, #324]	; (8003e38 <GPIO_VidPin_Mode_Output+0x2be8>)
 8003cf2:	685b      	ldr	r3, [r3, #4]
 8003cf4:	f443 6300 	orr.w	r3, r3, #2048	; 0x800
 8003cf8:	6053      	str	r3, [r2, #4]
						#if Open_Drain_Pull == Pull_Up
							Set_Bit(GPIO_E->PUPDR,GPIO_PUPDR_11_Pull_Up);
 8003cfa:	4a4f      	ldr	r2, [pc, #316]	; (8003e38 <GPIO_VidPin_Mode_Output+0x2be8>)
 8003cfc:	4b4e      	ldr	r3, [pc, #312]	; (8003e38 <GPIO_VidPin_Mode_Output+0x2be8>)
 8003cfe:	68db      	ldr	r3, [r3, #12]
 8003d00:	f443 0380 	orr.w	r3, r3, #4194304	; 0x400000
 8003d04:	60d3      	str	r3, [r2, #12]
						#elif Open_Drain_Pull == Pull_Down
							Set_Bit(GPIO_E->PUPDR,GPIO_PUPDR_11_Pull_Down);
						#endif
						}
						/*Select Operating Speed*/
						if(Copy_u8Speed==Low_Speed){Clear_Bit(GPIO_E->OSPEEDR,GPIO_OSPEEDR_11_HI);}
 8003d06:	793b      	ldrb	r3, [r7, #4]
 8003d08:	2b04      	cmp	r3, #4
 8003d0a:	d106      	bne.n	8003d1a <GPIO_VidPin_Mode_Output+0x2aca>
 8003d0c:	4a4a      	ldr	r2, [pc, #296]	; (8003e38 <GPIO_VidPin_Mode_Output+0x2be8>)
 8003d0e:	4b4a      	ldr	r3, [pc, #296]	; (8003e38 <GPIO_VidPin_Mode_Output+0x2be8>)
 8003d10:	689b      	ldr	r3, [r3, #8]
 8003d12:	f423 0340 	bic.w	r3, r3, #12582912	; 0xc00000
 8003d16:	6093      	str	r3, [r2, #8]
						else if(Copy_u8Speed==Medium_Speed){Set_Bit(GPIO_E->OSPEEDR,GPIO_OSPEEDR_11_Medium);}
						else if(Copy_u8Speed==Fast_Speed){/*Enable Compensation Cell*/Set_Bit(GPIO_E->OSPEEDR,GPIO_OSPEEDR_11_Fast);}
						else if(Copy_u8Speed==High_Speed){/*Enable Compensation Cell*/Set_Bit(GPIO_E->OSPEEDR,GPIO_OSPEEDR_11_HI);}
				break;
 8003d18:	e13f      	b.n	8003f9a <GPIO_VidPin_Mode_Output+0x2d4a>
						else if(Copy_u8Speed==Medium_Speed){Set_Bit(GPIO_E->OSPEEDR,GPIO_OSPEEDR_11_Medium);}
 8003d1a:	793b      	ldrb	r3, [r7, #4]
 8003d1c:	2b05      	cmp	r3, #5
 8003d1e:	d106      	bne.n	8003d2e <GPIO_VidPin_Mode_Output+0x2ade>
 8003d20:	4a45      	ldr	r2, [pc, #276]	; (8003e38 <GPIO_VidPin_Mode_Output+0x2be8>)
 8003d22:	4b45      	ldr	r3, [pc, #276]	; (8003e38 <GPIO_VidPin_Mode_Output+0x2be8>)
 8003d24:	689b      	ldr	r3, [r3, #8]
 8003d26:	f443 0380 	orr.w	r3, r3, #4194304	; 0x400000
 8003d2a:	6093      	str	r3, [r2, #8]
				break;
 8003d2c:	e135      	b.n	8003f9a <GPIO_VidPin_Mode_Output+0x2d4a>
						else if(Copy_u8Speed==Fast_Speed){/*Enable Compensation Cell*/Set_Bit(GPIO_E->OSPEEDR,GPIO_OSPEEDR_11_Fast);}
 8003d2e:	793b      	ldrb	r3, [r7, #4]
 8003d30:	2b06      	cmp	r3, #6
 8003d32:	d106      	bne.n	8003d42 <GPIO_VidPin_Mode_Output+0x2af2>
 8003d34:	4a40      	ldr	r2, [pc, #256]	; (8003e38 <GPIO_VidPin_Mode_Output+0x2be8>)
 8003d36:	4b40      	ldr	r3, [pc, #256]	; (8003e38 <GPIO_VidPin_Mode_Output+0x2be8>)
 8003d38:	689b      	ldr	r3, [r3, #8]
 8003d3a:	f443 0300 	orr.w	r3, r3, #8388608	; 0x800000
 8003d3e:	6093      	str	r3, [r2, #8]
				break;
 8003d40:	e12b      	b.n	8003f9a <GPIO_VidPin_Mode_Output+0x2d4a>
						else if(Copy_u8Speed==High_Speed){/*Enable Compensation Cell*/Set_Bit(GPIO_E->OSPEEDR,GPIO_OSPEEDR_11_HI);}
 8003d42:	793b      	ldrb	r3, [r7, #4]
 8003d44:	2b07      	cmp	r3, #7
 8003d46:	f040 8128 	bne.w	8003f9a <GPIO_VidPin_Mode_Output+0x2d4a>
 8003d4a:	4a3b      	ldr	r2, [pc, #236]	; (8003e38 <GPIO_VidPin_Mode_Output+0x2be8>)
 8003d4c:	4b3a      	ldr	r3, [pc, #232]	; (8003e38 <GPIO_VidPin_Mode_Output+0x2be8>)
 8003d4e:	689b      	ldr	r3, [r3, #8]
 8003d50:	f443 0340 	orr.w	r3, r3, #12582912	; 0xc00000
 8003d54:	6093      	str	r3, [r2, #8]
				break;
 8003d56:	e120      	b.n	8003f9a <GPIO_VidPin_Mode_Output+0x2d4a>
				case (Pin_12):
						/*Select Output Type*/
						if(Copy_u8Type==Push_Pull){Clear_Bit(GPIO_E->OTYPER,GPIO_OTYPER_12);}
 8003d58:	797b      	ldrb	r3, [r7, #5]
 8003d5a:	2b08      	cmp	r3, #8
 8003d5c:	d106      	bne.n	8003d6c <GPIO_VidPin_Mode_Output+0x2b1c>
 8003d5e:	4a36      	ldr	r2, [pc, #216]	; (8003e38 <GPIO_VidPin_Mode_Output+0x2be8>)
 8003d60:	4b35      	ldr	r3, [pc, #212]	; (8003e38 <GPIO_VidPin_Mode_Output+0x2be8>)
 8003d62:	685b      	ldr	r3, [r3, #4]
 8003d64:	f423 5380 	bic.w	r3, r3, #4096	; 0x1000
 8003d68:	6053      	str	r3, [r2, #4]
 8003d6a:	e00e      	b.n	8003d8a <GPIO_VidPin_Mode_Output+0x2b3a>
						else if (Copy_u8Type==Open_Drain)
 8003d6c:	797b      	ldrb	r3, [r7, #5]
 8003d6e:	2b09      	cmp	r3, #9
 8003d70:	d10b      	bne.n	8003d8a <GPIO_VidPin_Mode_Output+0x2b3a>
						{
							Set_Bit(GPIO_E->OTYPER,GPIO_OTYPER_12);
 8003d72:	4a31      	ldr	r2, [pc, #196]	; (8003e38 <GPIO_VidPin_Mode_Output+0x2be8>)
 8003d74:	4b30      	ldr	r3, [pc, #192]	; (8003e38 <GPIO_VidPin_Mode_Output+0x2be8>)
 8003d76:	685b      	ldr	r3, [r3, #4]
 8003d78:	f443 5380 	orr.w	r3, r3, #4096	; 0x1000
 8003d7c:	6053      	str	r3, [r2, #4]
						#if Open_Drain_Pull == Pull_Up
							Set_Bit(GPIO_E->PUPDR,GPIO_PUPDR_12_Pull_Up);
 8003d7e:	4a2e      	ldr	r2, [pc, #184]	; (8003e38 <GPIO_VidPin_Mode_Output+0x2be8>)
 8003d80:	4b2d      	ldr	r3, [pc, #180]	; (8003e38 <GPIO_VidPin_Mode_Output+0x2be8>)
 8003d82:	68db      	ldr	r3, [r3, #12]
 8003d84:	f043 7380 	orr.w	r3, r3, #16777216	; 0x1000000
 8003d88:	60d3      	str	r3, [r2, #12]
						#elif Open_Drain_Pull == Pull_Down
							Set_Bit(GPIO_E->PUPDR,GPIO_PUPDR_12_Pull_Down);
						#endif
						}
						/*Select Operating Speed*/
						if(Copy_u8Speed==Low_Speed){Clear_Bit(GPIO_E->OSPEEDR,GPIO_OSPEEDR_12_HI);}
 8003d8a:	793b      	ldrb	r3, [r7, #4]
 8003d8c:	2b04      	cmp	r3, #4
 8003d8e:	d106      	bne.n	8003d9e <GPIO_VidPin_Mode_Output+0x2b4e>
 8003d90:	4a29      	ldr	r2, [pc, #164]	; (8003e38 <GPIO_VidPin_Mode_Output+0x2be8>)
 8003d92:	4b29      	ldr	r3, [pc, #164]	; (8003e38 <GPIO_VidPin_Mode_Output+0x2be8>)
 8003d94:	689b      	ldr	r3, [r3, #8]
 8003d96:	f023 7340 	bic.w	r3, r3, #50331648	; 0x3000000
 8003d9a:	6093      	str	r3, [r2, #8]
						else if(Copy_u8Speed==Medium_Speed){Set_Bit(GPIO_E->OSPEEDR,GPIO_OSPEEDR_12_Medium);}
						else if(Copy_u8Speed==Fast_Speed){/*Enable Compensation Cell*/Set_Bit(GPIO_E->OSPEEDR,GPIO_OSPEEDR_12_Fast);}
						else if(Copy_u8Speed==High_Speed){/*Enable Compensation Cell*/Set_Bit(GPIO_E->OSPEEDR,GPIO_OSPEEDR_12_HI);}
				break;
 8003d9c:	e0ff      	b.n	8003f9e <GPIO_VidPin_Mode_Output+0x2d4e>
						else if(Copy_u8Speed==Medium_Speed){Set_Bit(GPIO_E->OSPEEDR,GPIO_OSPEEDR_12_Medium);}
 8003d9e:	793b      	ldrb	r3, [r7, #4]
 8003da0:	2b05      	cmp	r3, #5
 8003da2:	d106      	bne.n	8003db2 <GPIO_VidPin_Mode_Output+0x2b62>
 8003da4:	4a24      	ldr	r2, [pc, #144]	; (8003e38 <GPIO_VidPin_Mode_Output+0x2be8>)
 8003da6:	4b24      	ldr	r3, [pc, #144]	; (8003e38 <GPIO_VidPin_Mode_Output+0x2be8>)
 8003da8:	689b      	ldr	r3, [r3, #8]
 8003daa:	f043 7380 	orr.w	r3, r3, #16777216	; 0x1000000
 8003dae:	6093      	str	r3, [r2, #8]
				break;
 8003db0:	e0f5      	b.n	8003f9e <GPIO_VidPin_Mode_Output+0x2d4e>
						else if(Copy_u8Speed==Fast_Speed){/*Enable Compensation Cell*/Set_Bit(GPIO_E->OSPEEDR,GPIO_OSPEEDR_12_Fast);}
 8003db2:	793b      	ldrb	r3, [r7, #4]
 8003db4:	2b06      	cmp	r3, #6
 8003db6:	d106      	bne.n	8003dc6 <GPIO_VidPin_Mode_Output+0x2b76>
 8003db8:	4a1f      	ldr	r2, [pc, #124]	; (8003e38 <GPIO_VidPin_Mode_Output+0x2be8>)
 8003dba:	4b1f      	ldr	r3, [pc, #124]	; (8003e38 <GPIO_VidPin_Mode_Output+0x2be8>)
 8003dbc:	689b      	ldr	r3, [r3, #8]
 8003dbe:	f043 7300 	orr.w	r3, r3, #33554432	; 0x2000000
 8003dc2:	6093      	str	r3, [r2, #8]
				break;
 8003dc4:	e0eb      	b.n	8003f9e <GPIO_VidPin_Mode_Output+0x2d4e>
						else if(Copy_u8Speed==High_Speed){/*Enable Compensation Cell*/Set_Bit(GPIO_E->OSPEEDR,GPIO_OSPEEDR_12_HI);}
 8003dc6:	793b      	ldrb	r3, [r7, #4]
 8003dc8:	2b07      	cmp	r3, #7
 8003dca:	f040 80e8 	bne.w	8003f9e <GPIO_VidPin_Mode_Output+0x2d4e>
 8003dce:	4a1a      	ldr	r2, [pc, #104]	; (8003e38 <GPIO_VidPin_Mode_Output+0x2be8>)
 8003dd0:	4b19      	ldr	r3, [pc, #100]	; (8003e38 <GPIO_VidPin_Mode_Output+0x2be8>)
 8003dd2:	689b      	ldr	r3, [r3, #8]
 8003dd4:	f043 7340 	orr.w	r3, r3, #50331648	; 0x3000000
 8003dd8:	6093      	str	r3, [r2, #8]
				break;
 8003dda:	e0e0      	b.n	8003f9e <GPIO_VidPin_Mode_Output+0x2d4e>
				case (Pin_13):
						/*Select Output Type*/
						if(Copy_u8Type==Push_Pull){Clear_Bit(GPIO_E->OTYPER,GPIO_OTYPER_13);}
 8003ddc:	797b      	ldrb	r3, [r7, #5]
 8003dde:	2b08      	cmp	r3, #8
 8003de0:	d106      	bne.n	8003df0 <GPIO_VidPin_Mode_Output+0x2ba0>
 8003de2:	4a15      	ldr	r2, [pc, #84]	; (8003e38 <GPIO_VidPin_Mode_Output+0x2be8>)
 8003de4:	4b14      	ldr	r3, [pc, #80]	; (8003e38 <GPIO_VidPin_Mode_Output+0x2be8>)
 8003de6:	685b      	ldr	r3, [r3, #4]
 8003de8:	f423 5300 	bic.w	r3, r3, #8192	; 0x2000
 8003dec:	6053      	str	r3, [r2, #4]
 8003dee:	e00e      	b.n	8003e0e <GPIO_VidPin_Mode_Output+0x2bbe>
						else if (Copy_u8Type==Open_Drain)
 8003df0:	797b      	ldrb	r3, [r7, #5]
 8003df2:	2b09      	cmp	r3, #9
 8003df4:	d10b      	bne.n	8003e0e <GPIO_VidPin_Mode_Output+0x2bbe>
						{
							Set_Bit(GPIO_E->OTYPER,GPIO_OTYPER_13);
 8003df6:	4a10      	ldr	r2, [pc, #64]	; (8003e38 <GPIO_VidPin_Mode_Output+0x2be8>)
 8003df8:	4b0f      	ldr	r3, [pc, #60]	; (8003e38 <GPIO_VidPin_Mode_Output+0x2be8>)
 8003dfa:	685b      	ldr	r3, [r3, #4]
 8003dfc:	f443 5300 	orr.w	r3, r3, #8192	; 0x2000
 8003e00:	6053      	str	r3, [r2, #4]
						#if Open_Drain_Pull == Pull_Up
							Set_Bit(GPIO_E->PUPDR,GPIO_PUPDR_13_Pull_Up);
 8003e02:	4a0d      	ldr	r2, [pc, #52]	; (8003e38 <GPIO_VidPin_Mode_Output+0x2be8>)
 8003e04:	4b0c      	ldr	r3, [pc, #48]	; (8003e38 <GPIO_VidPin_Mode_Output+0x2be8>)
 8003e06:	68db      	ldr	r3, [r3, #12]
 8003e08:	f043 6380 	orr.w	r3, r3, #67108864	; 0x4000000
 8003e0c:	60d3      	str	r3, [r2, #12]
						#elif Open_Drain_Pull == Pull_Down
							Set_Bit(GPIO_E->PUPDR,GPIO_PUPDR_13_Pull_Down);
						#endif
						}
						/*Select Operating Speed*/
						if(Copy_u8Speed==Low_Speed){Clear_Bit(GPIO_E->OSPEEDR,GPIO_OSPEEDR_13_HI);}
 8003e0e:	793b      	ldrb	r3, [r7, #4]
 8003e10:	2b04      	cmp	r3, #4
 8003e12:	d106      	bne.n	8003e22 <GPIO_VidPin_Mode_Output+0x2bd2>
 8003e14:	4a08      	ldr	r2, [pc, #32]	; (8003e38 <GPIO_VidPin_Mode_Output+0x2be8>)
 8003e16:	4b08      	ldr	r3, [pc, #32]	; (8003e38 <GPIO_VidPin_Mode_Output+0x2be8>)
 8003e18:	689b      	ldr	r3, [r3, #8]
 8003e1a:	f023 6340 	bic.w	r3, r3, #201326592	; 0xc000000
 8003e1e:	6093      	str	r3, [r2, #8]
						else if(Copy_u8Speed==Medium_Speed){Set_Bit(GPIO_E->OSPEEDR,GPIO_OSPEEDR_13_Medium);}
						else if(Copy_u8Speed==Fast_Speed){/*Enable Compensation Cell*/Set_Bit(GPIO_E->OSPEEDR,GPIO_OSPEEDR_13_Fast);}
						else if(Copy_u8Speed==High_Speed){/*Enable Compensation Cell*/Set_Bit(GPIO_E->OSPEEDR,GPIO_OSPEEDR_13_HI);}
				break;
 8003e20:	e0bf      	b.n	8003fa2 <GPIO_VidPin_Mode_Output+0x2d52>
						else if(Copy_u8Speed==Medium_Speed){Set_Bit(GPIO_E->OSPEEDR,GPIO_OSPEEDR_13_Medium);}
 8003e22:	793b      	ldrb	r3, [r7, #4]
 8003e24:	2b05      	cmp	r3, #5
 8003e26:	d109      	bne.n	8003e3c <GPIO_VidPin_Mode_Output+0x2bec>
 8003e28:	4a03      	ldr	r2, [pc, #12]	; (8003e38 <GPIO_VidPin_Mode_Output+0x2be8>)
 8003e2a:	4b03      	ldr	r3, [pc, #12]	; (8003e38 <GPIO_VidPin_Mode_Output+0x2be8>)
 8003e2c:	689b      	ldr	r3, [r3, #8]
 8003e2e:	f043 6380 	orr.w	r3, r3, #67108864	; 0x4000000
 8003e32:	6093      	str	r3, [r2, #8]
				break;
 8003e34:	e0b5      	b.n	8003fa2 <GPIO_VidPin_Mode_Output+0x2d52>
 8003e36:	bf00      	nop
 8003e38:	40021000 	.word	0x40021000
						else if(Copy_u8Speed==Fast_Speed){/*Enable Compensation Cell*/Set_Bit(GPIO_E->OSPEEDR,GPIO_OSPEEDR_13_Fast);}
 8003e3c:	793b      	ldrb	r3, [r7, #4]
 8003e3e:	2b06      	cmp	r3, #6
 8003e40:	d106      	bne.n	8003e50 <GPIO_VidPin_Mode_Output+0x2c00>
 8003e42:	4a5d      	ldr	r2, [pc, #372]	; (8003fb8 <GPIO_VidPin_Mode_Output+0x2d68>)
 8003e44:	4b5c      	ldr	r3, [pc, #368]	; (8003fb8 <GPIO_VidPin_Mode_Output+0x2d68>)
 8003e46:	689b      	ldr	r3, [r3, #8]
 8003e48:	f043 6300 	orr.w	r3, r3, #134217728	; 0x8000000
 8003e4c:	6093      	str	r3, [r2, #8]
				break;
 8003e4e:	e0a8      	b.n	8003fa2 <GPIO_VidPin_Mode_Output+0x2d52>
						else if(Copy_u8Speed==High_Speed){/*Enable Compensation Cell*/Set_Bit(GPIO_E->OSPEEDR,GPIO_OSPEEDR_13_HI);}
 8003e50:	793b      	ldrb	r3, [r7, #4]
 8003e52:	2b07      	cmp	r3, #7
 8003e54:	f040 80a5 	bne.w	8003fa2 <GPIO_VidPin_Mode_Output+0x2d52>
 8003e58:	4a57      	ldr	r2, [pc, #348]	; (8003fb8 <GPIO_VidPin_Mode_Output+0x2d68>)
 8003e5a:	4b57      	ldr	r3, [pc, #348]	; (8003fb8 <GPIO_VidPin_Mode_Output+0x2d68>)
 8003e5c:	689b      	ldr	r3, [r3, #8]
 8003e5e:	f043 6340 	orr.w	r3, r3, #201326592	; 0xc000000
 8003e62:	6093      	str	r3, [r2, #8]
				break;
 8003e64:	e09d      	b.n	8003fa2 <GPIO_VidPin_Mode_Output+0x2d52>
				case (Pin_14):
						/*Select Output Type*/
						if(Copy_u8Type==Push_Pull){Clear_Bit(GPIO_E->OTYPER,GPIO_OTYPER_14);}
 8003e66:	797b      	ldrb	r3, [r7, #5]
 8003e68:	2b08      	cmp	r3, #8
 8003e6a:	d106      	bne.n	8003e7a <GPIO_VidPin_Mode_Output+0x2c2a>
 8003e6c:	4a52      	ldr	r2, [pc, #328]	; (8003fb8 <GPIO_VidPin_Mode_Output+0x2d68>)
 8003e6e:	4b52      	ldr	r3, [pc, #328]	; (8003fb8 <GPIO_VidPin_Mode_Output+0x2d68>)
 8003e70:	685b      	ldr	r3, [r3, #4]
 8003e72:	f423 4380 	bic.w	r3, r3, #16384	; 0x4000
 8003e76:	6053      	str	r3, [r2, #4]
 8003e78:	e00e      	b.n	8003e98 <GPIO_VidPin_Mode_Output+0x2c48>
						else if (Copy_u8Type==Open_Drain)
 8003e7a:	797b      	ldrb	r3, [r7, #5]
 8003e7c:	2b09      	cmp	r3, #9
 8003e7e:	d10b      	bne.n	8003e98 <GPIO_VidPin_Mode_Output+0x2c48>
						{
							Set_Bit(GPIO_E->OTYPER,GPIO_OTYPER_14);
 8003e80:	4a4d      	ldr	r2, [pc, #308]	; (8003fb8 <GPIO_VidPin_Mode_Output+0x2d68>)
 8003e82:	4b4d      	ldr	r3, [pc, #308]	; (8003fb8 <GPIO_VidPin_Mode_Output+0x2d68>)
 8003e84:	685b      	ldr	r3, [r3, #4]
 8003e86:	f443 4380 	orr.w	r3, r3, #16384	; 0x4000
 8003e8a:	6053      	str	r3, [r2, #4]
						#if Open_Drain_Pull == Pull_Up
							Set_Bit(GPIO_E->PUPDR,GPIO_PUPDR_14_Pull_Up);
 8003e8c:	4a4a      	ldr	r2, [pc, #296]	; (8003fb8 <GPIO_VidPin_Mode_Output+0x2d68>)
 8003e8e:	4b4a      	ldr	r3, [pc, #296]	; (8003fb8 <GPIO_VidPin_Mode_Output+0x2d68>)
 8003e90:	68db      	ldr	r3, [r3, #12]
 8003e92:	f043 5380 	orr.w	r3, r3, #268435456	; 0x10000000
 8003e96:	60d3      	str	r3, [r2, #12]
						#elif Open_Drain_Pull == Pull_Down
							Set_Bit(GPIO_E->PUPDR,GPIO_PUPDR_14_Pull_Down);
						#endif
						}
						/*Select Operating Speed*/
						if(Copy_u8Speed==Low_Speed){Clear_Bit(GPIO_E->OSPEEDR,GPIO_OSPEEDR_14_HI);}
 8003e98:	793b      	ldrb	r3, [r7, #4]
 8003e9a:	2b04      	cmp	r3, #4
 8003e9c:	d106      	bne.n	8003eac <GPIO_VidPin_Mode_Output+0x2c5c>
 8003e9e:	4a46      	ldr	r2, [pc, #280]	; (8003fb8 <GPIO_VidPin_Mode_Output+0x2d68>)
 8003ea0:	4b45      	ldr	r3, [pc, #276]	; (8003fb8 <GPIO_VidPin_Mode_Output+0x2d68>)
 8003ea2:	689b      	ldr	r3, [r3, #8]
 8003ea4:	f023 5340 	bic.w	r3, r3, #805306368	; 0x30000000
 8003ea8:	6093      	str	r3, [r2, #8]
						else if(Copy_u8Speed==Medium_Speed){Set_Bit(GPIO_E->OSPEEDR,GPIO_OSPEEDR_14_Medium);}
						else if(Copy_u8Speed==Fast_Speed){/*Enable Compensation Cell*/Set_Bit(GPIO_E->OSPEEDR,GPIO_OSPEEDR_14_Fast);}
						else if(Copy_u8Speed==High_Speed){/*Enable Compensation Cell*/Set_Bit(GPIO_E->OSPEEDR,GPIO_OSPEEDR_14_HI);}
				break;
 8003eaa:	e07c      	b.n	8003fa6 <GPIO_VidPin_Mode_Output+0x2d56>
						else if(Copy_u8Speed==Medium_Speed){Set_Bit(GPIO_E->OSPEEDR,GPIO_OSPEEDR_14_Medium);}
 8003eac:	793b      	ldrb	r3, [r7, #4]
 8003eae:	2b05      	cmp	r3, #5
 8003eb0:	d106      	bne.n	8003ec0 <GPIO_VidPin_Mode_Output+0x2c70>
 8003eb2:	4a41      	ldr	r2, [pc, #260]	; (8003fb8 <GPIO_VidPin_Mode_Output+0x2d68>)
 8003eb4:	4b40      	ldr	r3, [pc, #256]	; (8003fb8 <GPIO_VidPin_Mode_Output+0x2d68>)
 8003eb6:	689b      	ldr	r3, [r3, #8]
 8003eb8:	f043 5380 	orr.w	r3, r3, #268435456	; 0x10000000
 8003ebc:	6093      	str	r3, [r2, #8]
				break;
 8003ebe:	e072      	b.n	8003fa6 <GPIO_VidPin_Mode_Output+0x2d56>
						else if(Copy_u8Speed==Fast_Speed){/*Enable Compensation Cell*/Set_Bit(GPIO_E->OSPEEDR,GPIO_OSPEEDR_14_Fast);}
 8003ec0:	793b      	ldrb	r3, [r7, #4]
 8003ec2:	2b06      	cmp	r3, #6
 8003ec4:	d106      	bne.n	8003ed4 <GPIO_VidPin_Mode_Output+0x2c84>
 8003ec6:	4a3c      	ldr	r2, [pc, #240]	; (8003fb8 <GPIO_VidPin_Mode_Output+0x2d68>)
 8003ec8:	4b3b      	ldr	r3, [pc, #236]	; (8003fb8 <GPIO_VidPin_Mode_Output+0x2d68>)
 8003eca:	689b      	ldr	r3, [r3, #8]
 8003ecc:	f043 5300 	orr.w	r3, r3, #536870912	; 0x20000000
 8003ed0:	6093      	str	r3, [r2, #8]
				break;
 8003ed2:	e068      	b.n	8003fa6 <GPIO_VidPin_Mode_Output+0x2d56>
						else if(Copy_u8Speed==High_Speed){/*Enable Compensation Cell*/Set_Bit(GPIO_E->OSPEEDR,GPIO_OSPEEDR_14_HI);}
 8003ed4:	793b      	ldrb	r3, [r7, #4]
 8003ed6:	2b07      	cmp	r3, #7
 8003ed8:	d165      	bne.n	8003fa6 <GPIO_VidPin_Mode_Output+0x2d56>
 8003eda:	4a37      	ldr	r2, [pc, #220]	; (8003fb8 <GPIO_VidPin_Mode_Output+0x2d68>)
 8003edc:	4b36      	ldr	r3, [pc, #216]	; (8003fb8 <GPIO_VidPin_Mode_Output+0x2d68>)
 8003ede:	689b      	ldr	r3, [r3, #8]
 8003ee0:	f043 5340 	orr.w	r3, r3, #805306368	; 0x30000000
 8003ee4:	6093      	str	r3, [r2, #8]
				break;
 8003ee6:	e05e      	b.n	8003fa6 <GPIO_VidPin_Mode_Output+0x2d56>
				case (Pin_15):
						/*Select Output Type*/
						if(Copy_u8Type==Push_Pull){Clear_Bit(GPIO_E->OTYPER,GPIO_OTYPER_15);}
 8003ee8:	797b      	ldrb	r3, [r7, #5]
 8003eea:	2b08      	cmp	r3, #8
 8003eec:	d106      	bne.n	8003efc <GPIO_VidPin_Mode_Output+0x2cac>
 8003eee:	4a32      	ldr	r2, [pc, #200]	; (8003fb8 <GPIO_VidPin_Mode_Output+0x2d68>)
 8003ef0:	4b31      	ldr	r3, [pc, #196]	; (8003fb8 <GPIO_VidPin_Mode_Output+0x2d68>)
 8003ef2:	685b      	ldr	r3, [r3, #4]
 8003ef4:	f423 4300 	bic.w	r3, r3, #32768	; 0x8000
 8003ef8:	6053      	str	r3, [r2, #4]
 8003efa:	e00e      	b.n	8003f1a <GPIO_VidPin_Mode_Output+0x2cca>
						else if (Copy_u8Type==Open_Drain)
 8003efc:	797b      	ldrb	r3, [r7, #5]
 8003efe:	2b09      	cmp	r3, #9
 8003f00:	d10b      	bne.n	8003f1a <GPIO_VidPin_Mode_Output+0x2cca>
						{
							Set_Bit(GPIO_E->OTYPER,GPIO_OTYPER_15);
 8003f02:	4a2d      	ldr	r2, [pc, #180]	; (8003fb8 <GPIO_VidPin_Mode_Output+0x2d68>)
 8003f04:	4b2c      	ldr	r3, [pc, #176]	; (8003fb8 <GPIO_VidPin_Mode_Output+0x2d68>)
 8003f06:	685b      	ldr	r3, [r3, #4]
 8003f08:	f443 4300 	orr.w	r3, r3, #32768	; 0x8000
 8003f0c:	6053      	str	r3, [r2, #4]
						#if Open_Drain_Pull == Pull_Up
							Set_Bit(GPIO_E->PUPDR,GPIO_PUPDR_15_Pull_Up);
 8003f0e:	4a2a      	ldr	r2, [pc, #168]	; (8003fb8 <GPIO_VidPin_Mode_Output+0x2d68>)
 8003f10:	4b29      	ldr	r3, [pc, #164]	; (8003fb8 <GPIO_VidPin_Mode_Output+0x2d68>)
 8003f12:	68db      	ldr	r3, [r3, #12]
 8003f14:	f043 4380 	orr.w	r3, r3, #1073741824	; 0x40000000
 8003f18:	60d3      	str	r3, [r2, #12]
						#elif Open_Drain_Pull == Pull_Down
							Set_Bit(GPIO_E->PUPDR,GPIO_PUPDR_15_Pull_Down);
						#endif
						}
						/*Select Operating Speed*/
						if(Copy_u8Speed==Low_Speed){Clear_Bit(GPIO_E->OSPEEDR,GPIO_OSPEEDR_15_HI);}
 8003f1a:	793b      	ldrb	r3, [r7, #4]
 8003f1c:	2b04      	cmp	r3, #4
 8003f1e:	d106      	bne.n	8003f2e <GPIO_VidPin_Mode_Output+0x2cde>
 8003f20:	4a25      	ldr	r2, [pc, #148]	; (8003fb8 <GPIO_VidPin_Mode_Output+0x2d68>)
 8003f22:	4b25      	ldr	r3, [pc, #148]	; (8003fb8 <GPIO_VidPin_Mode_Output+0x2d68>)
 8003f24:	689b      	ldr	r3, [r3, #8]
 8003f26:	f023 4340 	bic.w	r3, r3, #3221225472	; 0xc0000000
 8003f2a:	6093      	str	r3, [r2, #8]
						else if(Copy_u8Speed==Medium_Speed){Set_Bit(GPIO_E->OSPEEDR,GPIO_OSPEEDR_15_Medium);}
						else if(Copy_u8Speed==Fast_Speed){/*Enable Compensation Cell*/Set_Bit(GPIO_E->OSPEEDR,GPIO_OSPEEDR_15_Fast);}
						else if(Copy_u8Speed==High_Speed){/*Enable Compensation Cell*/Set_Bit(GPIO_E->OSPEEDR,GPIO_OSPEEDR_15_HI);}
				break;
 8003f2c:	e03d      	b.n	8003faa <GPIO_VidPin_Mode_Output+0x2d5a>
						else if(Copy_u8Speed==Medium_Speed){Set_Bit(GPIO_E->OSPEEDR,GPIO_OSPEEDR_15_Medium);}
 8003f2e:	793b      	ldrb	r3, [r7, #4]
 8003f30:	2b05      	cmp	r3, #5
 8003f32:	d106      	bne.n	8003f42 <GPIO_VidPin_Mode_Output+0x2cf2>
 8003f34:	4a20      	ldr	r2, [pc, #128]	; (8003fb8 <GPIO_VidPin_Mode_Output+0x2d68>)
 8003f36:	4b20      	ldr	r3, [pc, #128]	; (8003fb8 <GPIO_VidPin_Mode_Output+0x2d68>)
 8003f38:	689b      	ldr	r3, [r3, #8]
 8003f3a:	f043 4380 	orr.w	r3, r3, #1073741824	; 0x40000000
 8003f3e:	6093      	str	r3, [r2, #8]
				break;
 8003f40:	e033      	b.n	8003faa <GPIO_VidPin_Mode_Output+0x2d5a>
						else if(Copy_u8Speed==Fast_Speed){/*Enable Compensation Cell*/Set_Bit(GPIO_E->OSPEEDR,GPIO_OSPEEDR_15_Fast);}
 8003f42:	793b      	ldrb	r3, [r7, #4]
 8003f44:	2b06      	cmp	r3, #6
 8003f46:	d106      	bne.n	8003f56 <GPIO_VidPin_Mode_Output+0x2d06>
 8003f48:	4a1b      	ldr	r2, [pc, #108]	; (8003fb8 <GPIO_VidPin_Mode_Output+0x2d68>)
 8003f4a:	4b1b      	ldr	r3, [pc, #108]	; (8003fb8 <GPIO_VidPin_Mode_Output+0x2d68>)
 8003f4c:	689b      	ldr	r3, [r3, #8]
 8003f4e:	f043 4300 	orr.w	r3, r3, #2147483648	; 0x80000000
 8003f52:	6093      	str	r3, [r2, #8]
				break;
 8003f54:	e029      	b.n	8003faa <GPIO_VidPin_Mode_Output+0x2d5a>
						else if(Copy_u8Speed==High_Speed){/*Enable Compensation Cell*/Set_Bit(GPIO_E->OSPEEDR,GPIO_OSPEEDR_15_HI);}
 8003f56:	793b      	ldrb	r3, [r7, #4]
 8003f58:	2b07      	cmp	r3, #7
 8003f5a:	d126      	bne.n	8003faa <GPIO_VidPin_Mode_Output+0x2d5a>
 8003f5c:	4a16      	ldr	r2, [pc, #88]	; (8003fb8 <GPIO_VidPin_Mode_Output+0x2d68>)
 8003f5e:	4b16      	ldr	r3, [pc, #88]	; (8003fb8 <GPIO_VidPin_Mode_Output+0x2d68>)
 8003f60:	689b      	ldr	r3, [r3, #8]
 8003f62:	f043 4340 	orr.w	r3, r3, #3221225472	; 0xc0000000
 8003f66:	6093      	str	r3, [r2, #8]
				break;
 8003f68:	e01f      	b.n	8003faa <GPIO_VidPin_Mode_Output+0x2d5a>
				default:break;
 8003f6a:	bf00      	nop
 8003f6c:	e020      	b.n	8003fb0 <GPIO_VidPin_Mode_Output+0x2d60>
				break;
 8003f6e:	bf00      	nop
 8003f70:	e01e      	b.n	8003fb0 <GPIO_VidPin_Mode_Output+0x2d60>
				break;
 8003f72:	bf00      	nop
 8003f74:	e01c      	b.n	8003fb0 <GPIO_VidPin_Mode_Output+0x2d60>
				break;
 8003f76:	bf00      	nop
 8003f78:	e01a      	b.n	8003fb0 <GPIO_VidPin_Mode_Output+0x2d60>
				break;
 8003f7a:	bf00      	nop
 8003f7c:	e018      	b.n	8003fb0 <GPIO_VidPin_Mode_Output+0x2d60>
				break;
 8003f7e:	bf00      	nop
 8003f80:	e016      	b.n	8003fb0 <GPIO_VidPin_Mode_Output+0x2d60>
				break;
 8003f82:	bf00      	nop
 8003f84:	e014      	b.n	8003fb0 <GPIO_VidPin_Mode_Output+0x2d60>
				break;
 8003f86:	bf00      	nop
 8003f88:	e012      	b.n	8003fb0 <GPIO_VidPin_Mode_Output+0x2d60>
				break;
 8003f8a:	bf00      	nop
 8003f8c:	e010      	b.n	8003fb0 <GPIO_VidPin_Mode_Output+0x2d60>
				break;
 8003f8e:	bf00      	nop
 8003f90:	e00e      	b.n	8003fb0 <GPIO_VidPin_Mode_Output+0x2d60>
				break;
 8003f92:	bf00      	nop
 8003f94:	e00c      	b.n	8003fb0 <GPIO_VidPin_Mode_Output+0x2d60>
				break;
 8003f96:	bf00      	nop
 8003f98:	e00a      	b.n	8003fb0 <GPIO_VidPin_Mode_Output+0x2d60>
				break;
 8003f9a:	bf00      	nop
 8003f9c:	e008      	b.n	8003fb0 <GPIO_VidPin_Mode_Output+0x2d60>
				break;
 8003f9e:	bf00      	nop
 8003fa0:	e006      	b.n	8003fb0 <GPIO_VidPin_Mode_Output+0x2d60>
				break;
 8003fa2:	bf00      	nop
 8003fa4:	e004      	b.n	8003fb0 <GPIO_VidPin_Mode_Output+0x2d60>
				break;
 8003fa6:	bf00      	nop
 8003fa8:	e002      	b.n	8003fb0 <GPIO_VidPin_Mode_Output+0x2d60>
				break;
 8003faa:	bf00      	nop
			}
		break;
 8003fac:	e000      	b.n	8003fb0 <GPIO_VidPin_Mode_Output+0x2d60>
		default:break;
 8003fae:	bf00      	nop
	}
}
 8003fb0:	bf00      	nop
 8003fb2:	370c      	adds	r7, #12
 8003fb4:	46bd      	mov	sp, r7
 8003fb6:	bd90      	pop	{r4, r7, pc}
 8003fb8:	40021000 	.word	0x40021000

08003fbc <GPIO_VidPin_Mode>:
/*------------------------- Set Pin Mode -------------------------*/
void GPIO_VidPin_Mode(u8 Copy_u8Port,u8 Copy_u8Pin,u8 Copy_u8Mode)
{
 8003fbc:	b580      	push	{r7, lr}
 8003fbe:	b082      	sub	sp, #8
 8003fc0:	af00      	add	r7, sp, #0
 8003fc2:	4603      	mov	r3, r0
 8003fc4:	71fb      	strb	r3, [r7, #7]
 8003fc6:	460b      	mov	r3, r1
 8003fc8:	71bb      	strb	r3, [r7, #6]
 8003fca:	4613      	mov	r3, r2
 8003fcc:	717b      	strb	r3, [r7, #5]
	RCC_VidPort_Clock(Copy_u8Port,Clock_Enable);
 8003fce:	79fb      	ldrb	r3, [r7, #7]
 8003fd0:	2101      	movs	r1, #1
 8003fd2:	4618      	mov	r0, r3
 8003fd4:	f7fc fa78 	bl	80004c8 <RCC_VidPort_Clock>
	switch(Copy_u8Port)
 8003fd8:	79fb      	ldrb	r3, [r7, #7]
 8003fda:	2b04      	cmp	r3, #4
 8003fdc:	f201 8488 	bhi.w	80058f0 <GPIO_VidPin_Mode+0x1934>
 8003fe0:	a201      	add	r2, pc, #4	; (adr r2, 8003fe8 <GPIO_VidPin_Mode+0x2c>)
 8003fe2:	f852 f023 	ldr.w	pc, [r2, r3, lsl #2]
 8003fe6:	bf00      	nop
 8003fe8:	08003ffd 	.word	0x08003ffd
 8003fec:	080044fd 	.word	0x080044fd
 8003ff0:	080049fd 	.word	0x080049fd
 8003ff4:	08004efd 	.word	0x08004efd
 8003ff8:	080053f9 	.word	0x080053f9
	{
		case(Port_A):
			switch (Copy_u8Pin)
 8003ffc:	79bb      	ldrb	r3, [r7, #6]
 8003ffe:	2b0f      	cmp	r3, #15
 8004000:	f200 8276 	bhi.w	80044f0 <GPIO_VidPin_Mode+0x534>
 8004004:	a201      	add	r2, pc, #4	; (adr r2, 800400c <GPIO_VidPin_Mode+0x50>)
 8004006:	f852 f023 	ldr.w	pc, [r2, r3, lsl #2]
 800400a:	bf00      	nop
 800400c:	0800404d 	.word	0x0800404d
 8004010:	08004097 	.word	0x08004097
 8004014:	080040e1 	.word	0x080040e1
 8004018:	0800412b 	.word	0x0800412b
 800401c:	08004175 	.word	0x08004175
 8004020:	080041bf 	.word	0x080041bf
 8004024:	08004209 	.word	0x08004209
 8004028:	08004253 	.word	0x08004253
 800402c:	080042a1 	.word	0x080042a1
 8004030:	080042eb 	.word	0x080042eb
 8004034:	08004335 	.word	0x08004335
 8004038:	0800437f 	.word	0x0800437f
 800403c:	080043c9 	.word	0x080043c9
 8004040:	08004413 	.word	0x08004413
 8004044:	0800445d 	.word	0x0800445d
 8004048:	080044a7 	.word	0x080044a7
			{
				case (Pin_0):
						if(Copy_u8Mode==GPIO_Output){Set_Bit(GPIO_A->MODER,GPIO_MODER_MODER_0_OUTPUT);}
 800404c:	797b      	ldrb	r3, [r7, #5]
 800404e:	2b01      	cmp	r3, #1
 8004050:	d106      	bne.n	8004060 <GPIO_VidPin_Mode+0xa4>
 8004052:	4a92      	ldr	r2, [pc, #584]	; (800429c <GPIO_VidPin_Mode+0x2e0>)
 8004054:	4b91      	ldr	r3, [pc, #580]	; (800429c <GPIO_VidPin_Mode+0x2e0>)
 8004056:	681b      	ldr	r3, [r3, #0]
 8004058:	f043 0301 	orr.w	r3, r3, #1
 800405c:	6013      	str	r3, [r2, #0]
						else if(Copy_u8Mode==GPIO_Alternate){Set_Bit(GPIO_A->MODER,GPIO_MODER_MODER_0_ALTERNATE);}
						else if(Copy_u8Mode==GPIO_Analog){Set_Bit(GPIO_A->MODER,GPIO_MODER_MODER_0_ANALOG);}
						else{Clear_Bit(GPIO_A->MODER,GPIO_MODER_MODER_0_ANALOG);}
					break;
 800405e:	e248      	b.n	80044f2 <GPIO_VidPin_Mode+0x536>
						else if(Copy_u8Mode==GPIO_Alternate){Set_Bit(GPIO_A->MODER,GPIO_MODER_MODER_0_ALTERNATE);}
 8004060:	797b      	ldrb	r3, [r7, #5]
 8004062:	2b02      	cmp	r3, #2
 8004064:	d106      	bne.n	8004074 <GPIO_VidPin_Mode+0xb8>
 8004066:	4a8d      	ldr	r2, [pc, #564]	; (800429c <GPIO_VidPin_Mode+0x2e0>)
 8004068:	4b8c      	ldr	r3, [pc, #560]	; (800429c <GPIO_VidPin_Mode+0x2e0>)
 800406a:	681b      	ldr	r3, [r3, #0]
 800406c:	f043 0302 	orr.w	r3, r3, #2
 8004070:	6013      	str	r3, [r2, #0]
					break;
 8004072:	e23e      	b.n	80044f2 <GPIO_VidPin_Mode+0x536>
						else if(Copy_u8Mode==GPIO_Analog){Set_Bit(GPIO_A->MODER,GPIO_MODER_MODER_0_ANALOG);}
 8004074:	797b      	ldrb	r3, [r7, #5]
 8004076:	2b03      	cmp	r3, #3
 8004078:	d106      	bne.n	8004088 <GPIO_VidPin_Mode+0xcc>
 800407a:	4a88      	ldr	r2, [pc, #544]	; (800429c <GPIO_VidPin_Mode+0x2e0>)
 800407c:	4b87      	ldr	r3, [pc, #540]	; (800429c <GPIO_VidPin_Mode+0x2e0>)
 800407e:	681b      	ldr	r3, [r3, #0]
 8004080:	f043 0303 	orr.w	r3, r3, #3
 8004084:	6013      	str	r3, [r2, #0]
					break;
 8004086:	e234      	b.n	80044f2 <GPIO_VidPin_Mode+0x536>
						else{Clear_Bit(GPIO_A->MODER,GPIO_MODER_MODER_0_ANALOG);}
 8004088:	4a84      	ldr	r2, [pc, #528]	; (800429c <GPIO_VidPin_Mode+0x2e0>)
 800408a:	4b84      	ldr	r3, [pc, #528]	; (800429c <GPIO_VidPin_Mode+0x2e0>)
 800408c:	681b      	ldr	r3, [r3, #0]
 800408e:	f023 0303 	bic.w	r3, r3, #3
 8004092:	6013      	str	r3, [r2, #0]
					break;
 8004094:	e22d      	b.n	80044f2 <GPIO_VidPin_Mode+0x536>
				case (Pin_1):
						if(Copy_u8Mode==GPIO_Output){Set_Bit(GPIO_A->MODER,GPIO_MODER_MODER_1_OUTPUT);}
 8004096:	797b      	ldrb	r3, [r7, #5]
 8004098:	2b01      	cmp	r3, #1
 800409a:	d106      	bne.n	80040aa <GPIO_VidPin_Mode+0xee>
 800409c:	4a7f      	ldr	r2, [pc, #508]	; (800429c <GPIO_VidPin_Mode+0x2e0>)
 800409e:	4b7f      	ldr	r3, [pc, #508]	; (800429c <GPIO_VidPin_Mode+0x2e0>)
 80040a0:	681b      	ldr	r3, [r3, #0]
 80040a2:	f043 0304 	orr.w	r3, r3, #4
 80040a6:	6013      	str	r3, [r2, #0]
						else if(Copy_u8Mode==GPIO_Alternate){Set_Bit(GPIO_A->MODER,GPIO_MODER_MODER_1_ALTERNATE);}
						else if(Copy_u8Mode==GPIO_Analog){Set_Bit(GPIO_A->MODER,GPIO_MODER_MODER_1_ANALOG);}
						else{Clear_Bit(GPIO_A->MODER,GPIO_MODER_MODER_1_ANALOG);}
					break;
 80040a8:	e223      	b.n	80044f2 <GPIO_VidPin_Mode+0x536>
						else if(Copy_u8Mode==GPIO_Alternate){Set_Bit(GPIO_A->MODER,GPIO_MODER_MODER_1_ALTERNATE);}
 80040aa:	797b      	ldrb	r3, [r7, #5]
 80040ac:	2b02      	cmp	r3, #2
 80040ae:	d106      	bne.n	80040be <GPIO_VidPin_Mode+0x102>
 80040b0:	4a7a      	ldr	r2, [pc, #488]	; (800429c <GPIO_VidPin_Mode+0x2e0>)
 80040b2:	4b7a      	ldr	r3, [pc, #488]	; (800429c <GPIO_VidPin_Mode+0x2e0>)
 80040b4:	681b      	ldr	r3, [r3, #0]
 80040b6:	f043 0308 	orr.w	r3, r3, #8
 80040ba:	6013      	str	r3, [r2, #0]
					break;
 80040bc:	e219      	b.n	80044f2 <GPIO_VidPin_Mode+0x536>
						else if(Copy_u8Mode==GPIO_Analog){Set_Bit(GPIO_A->MODER,GPIO_MODER_MODER_1_ANALOG);}
 80040be:	797b      	ldrb	r3, [r7, #5]
 80040c0:	2b03      	cmp	r3, #3
 80040c2:	d106      	bne.n	80040d2 <GPIO_VidPin_Mode+0x116>
 80040c4:	4a75      	ldr	r2, [pc, #468]	; (800429c <GPIO_VidPin_Mode+0x2e0>)
 80040c6:	4b75      	ldr	r3, [pc, #468]	; (800429c <GPIO_VidPin_Mode+0x2e0>)
 80040c8:	681b      	ldr	r3, [r3, #0]
 80040ca:	f043 030c 	orr.w	r3, r3, #12
 80040ce:	6013      	str	r3, [r2, #0]
					break;
 80040d0:	e20f      	b.n	80044f2 <GPIO_VidPin_Mode+0x536>
						else{Clear_Bit(GPIO_A->MODER,GPIO_MODER_MODER_1_ANALOG);}
 80040d2:	4a72      	ldr	r2, [pc, #456]	; (800429c <GPIO_VidPin_Mode+0x2e0>)
 80040d4:	4b71      	ldr	r3, [pc, #452]	; (800429c <GPIO_VidPin_Mode+0x2e0>)
 80040d6:	681b      	ldr	r3, [r3, #0]
 80040d8:	f023 030c 	bic.w	r3, r3, #12
 80040dc:	6013      	str	r3, [r2, #0]
					break;
 80040de:	e208      	b.n	80044f2 <GPIO_VidPin_Mode+0x536>
				case (Pin_2):
						if(Copy_u8Mode==GPIO_Output){Set_Bit(GPIO_A->MODER,GPIO_MODER_MODER_2_OUTPUT);}
 80040e0:	797b      	ldrb	r3, [r7, #5]
 80040e2:	2b01      	cmp	r3, #1
 80040e4:	d106      	bne.n	80040f4 <GPIO_VidPin_Mode+0x138>
 80040e6:	4a6d      	ldr	r2, [pc, #436]	; (800429c <GPIO_VidPin_Mode+0x2e0>)
 80040e8:	4b6c      	ldr	r3, [pc, #432]	; (800429c <GPIO_VidPin_Mode+0x2e0>)
 80040ea:	681b      	ldr	r3, [r3, #0]
 80040ec:	f043 0310 	orr.w	r3, r3, #16
 80040f0:	6013      	str	r3, [r2, #0]
						else if(Copy_u8Mode==GPIO_Alternate){Set_Bit(GPIO_A->MODER,GPIO_MODER_MODER_2_ALTERNATE);}
						else if(Copy_u8Mode==GPIO_Analog){Set_Bit(GPIO_A->MODER,GPIO_MODER_MODER_2_ANALOG);}
						else{Clear_Bit(GPIO_A->MODER,GPIO_MODER_MODER_2_ANALOG);}
					break;
 80040f2:	e1fe      	b.n	80044f2 <GPIO_VidPin_Mode+0x536>
						else if(Copy_u8Mode==GPIO_Alternate){Set_Bit(GPIO_A->MODER,GPIO_MODER_MODER_2_ALTERNATE);}
 80040f4:	797b      	ldrb	r3, [r7, #5]
 80040f6:	2b02      	cmp	r3, #2
 80040f8:	d106      	bne.n	8004108 <GPIO_VidPin_Mode+0x14c>
 80040fa:	4a68      	ldr	r2, [pc, #416]	; (800429c <GPIO_VidPin_Mode+0x2e0>)
 80040fc:	4b67      	ldr	r3, [pc, #412]	; (800429c <GPIO_VidPin_Mode+0x2e0>)
 80040fe:	681b      	ldr	r3, [r3, #0]
 8004100:	f043 0320 	orr.w	r3, r3, #32
 8004104:	6013      	str	r3, [r2, #0]
					break;
 8004106:	e1f4      	b.n	80044f2 <GPIO_VidPin_Mode+0x536>
						else if(Copy_u8Mode==GPIO_Analog){Set_Bit(GPIO_A->MODER,GPIO_MODER_MODER_2_ANALOG);}
 8004108:	797b      	ldrb	r3, [r7, #5]
 800410a:	2b03      	cmp	r3, #3
 800410c:	d106      	bne.n	800411c <GPIO_VidPin_Mode+0x160>
 800410e:	4a63      	ldr	r2, [pc, #396]	; (800429c <GPIO_VidPin_Mode+0x2e0>)
 8004110:	4b62      	ldr	r3, [pc, #392]	; (800429c <GPIO_VidPin_Mode+0x2e0>)
 8004112:	681b      	ldr	r3, [r3, #0]
 8004114:	f043 0330 	orr.w	r3, r3, #48	; 0x30
 8004118:	6013      	str	r3, [r2, #0]
					break;
 800411a:	e1ea      	b.n	80044f2 <GPIO_VidPin_Mode+0x536>
						else{Clear_Bit(GPIO_A->MODER,GPIO_MODER_MODER_2_ANALOG);}
 800411c:	4a5f      	ldr	r2, [pc, #380]	; (800429c <GPIO_VidPin_Mode+0x2e0>)
 800411e:	4b5f      	ldr	r3, [pc, #380]	; (800429c <GPIO_VidPin_Mode+0x2e0>)
 8004120:	681b      	ldr	r3, [r3, #0]
 8004122:	f023 0330 	bic.w	r3, r3, #48	; 0x30
 8004126:	6013      	str	r3, [r2, #0]
					break;
 8004128:	e1e3      	b.n	80044f2 <GPIO_VidPin_Mode+0x536>
				case (Pin_3):
						if(Copy_u8Mode==GPIO_Output){Set_Bit(GPIO_A->MODER,GPIO_MODER_MODER_3_OUTPUT);}
 800412a:	797b      	ldrb	r3, [r7, #5]
 800412c:	2b01      	cmp	r3, #1
 800412e:	d106      	bne.n	800413e <GPIO_VidPin_Mode+0x182>
 8004130:	4a5a      	ldr	r2, [pc, #360]	; (800429c <GPIO_VidPin_Mode+0x2e0>)
 8004132:	4b5a      	ldr	r3, [pc, #360]	; (800429c <GPIO_VidPin_Mode+0x2e0>)
 8004134:	681b      	ldr	r3, [r3, #0]
 8004136:	f043 0340 	orr.w	r3, r3, #64	; 0x40
 800413a:	6013      	str	r3, [r2, #0]
						else if(Copy_u8Mode==GPIO_Alternate){Set_Bit(GPIO_A->MODER,GPIO_MODER_MODER_3_ALTERNATE);}
						else if(Copy_u8Mode==GPIO_Analog){Set_Bit(GPIO_A->MODER,GPIO_MODER_MODER_3_ANALOG);}
						else{Clear_Bit(GPIO_A->MODER,GPIO_MODER_MODER_3_ANALOG);}
					break;
 800413c:	e1d9      	b.n	80044f2 <GPIO_VidPin_Mode+0x536>
						else if(Copy_u8Mode==GPIO_Alternate){Set_Bit(GPIO_A->MODER,GPIO_MODER_MODER_3_ALTERNATE);}
 800413e:	797b      	ldrb	r3, [r7, #5]
 8004140:	2b02      	cmp	r3, #2
 8004142:	d106      	bne.n	8004152 <GPIO_VidPin_Mode+0x196>
 8004144:	4a55      	ldr	r2, [pc, #340]	; (800429c <GPIO_VidPin_Mode+0x2e0>)
 8004146:	4b55      	ldr	r3, [pc, #340]	; (800429c <GPIO_VidPin_Mode+0x2e0>)
 8004148:	681b      	ldr	r3, [r3, #0]
 800414a:	f043 0380 	orr.w	r3, r3, #128	; 0x80
 800414e:	6013      	str	r3, [r2, #0]
					break;
 8004150:	e1cf      	b.n	80044f2 <GPIO_VidPin_Mode+0x536>
						else if(Copy_u8Mode==GPIO_Analog){Set_Bit(GPIO_A->MODER,GPIO_MODER_MODER_3_ANALOG);}
 8004152:	797b      	ldrb	r3, [r7, #5]
 8004154:	2b03      	cmp	r3, #3
 8004156:	d106      	bne.n	8004166 <GPIO_VidPin_Mode+0x1aa>
 8004158:	4a50      	ldr	r2, [pc, #320]	; (800429c <GPIO_VidPin_Mode+0x2e0>)
 800415a:	4b50      	ldr	r3, [pc, #320]	; (800429c <GPIO_VidPin_Mode+0x2e0>)
 800415c:	681b      	ldr	r3, [r3, #0]
 800415e:	f043 03c0 	orr.w	r3, r3, #192	; 0xc0
 8004162:	6013      	str	r3, [r2, #0]
					break;
 8004164:	e1c5      	b.n	80044f2 <GPIO_VidPin_Mode+0x536>
						else{Clear_Bit(GPIO_A->MODER,GPIO_MODER_MODER_3_ANALOG);}
 8004166:	4a4d      	ldr	r2, [pc, #308]	; (800429c <GPIO_VidPin_Mode+0x2e0>)
 8004168:	4b4c      	ldr	r3, [pc, #304]	; (800429c <GPIO_VidPin_Mode+0x2e0>)
 800416a:	681b      	ldr	r3, [r3, #0]
 800416c:	f023 03c0 	bic.w	r3, r3, #192	; 0xc0
 8004170:	6013      	str	r3, [r2, #0]
					break;
 8004172:	e1be      	b.n	80044f2 <GPIO_VidPin_Mode+0x536>
				case (Pin_4):
						if(Copy_u8Mode==GPIO_Output){Set_Bit(GPIO_A->MODER,GPIO_MODER_MODER_4_OUTPUT);}
 8004174:	797b      	ldrb	r3, [r7, #5]
 8004176:	2b01      	cmp	r3, #1
 8004178:	d106      	bne.n	8004188 <GPIO_VidPin_Mode+0x1cc>
 800417a:	4a48      	ldr	r2, [pc, #288]	; (800429c <GPIO_VidPin_Mode+0x2e0>)
 800417c:	4b47      	ldr	r3, [pc, #284]	; (800429c <GPIO_VidPin_Mode+0x2e0>)
 800417e:	681b      	ldr	r3, [r3, #0]
 8004180:	f443 7380 	orr.w	r3, r3, #256	; 0x100
 8004184:	6013      	str	r3, [r2, #0]
						else if(Copy_u8Mode==GPIO_Alternate){Set_Bit(GPIO_A->MODER,GPIO_MODER_MODER_4_ALTERNATE);}
						else if(Copy_u8Mode==GPIO_Analog){Set_Bit(GPIO_A->MODER,GPIO_MODER_MODER_4_ANALOG);}
						else{Clear_Bit(GPIO_A->MODER,GPIO_MODER_MODER_4_ANALOG);}
					break;
 8004186:	e1b4      	b.n	80044f2 <GPIO_VidPin_Mode+0x536>
						else if(Copy_u8Mode==GPIO_Alternate){Set_Bit(GPIO_A->MODER,GPIO_MODER_MODER_4_ALTERNATE);}
 8004188:	797b      	ldrb	r3, [r7, #5]
 800418a:	2b02      	cmp	r3, #2
 800418c:	d106      	bne.n	800419c <GPIO_VidPin_Mode+0x1e0>
 800418e:	4a43      	ldr	r2, [pc, #268]	; (800429c <GPIO_VidPin_Mode+0x2e0>)
 8004190:	4b42      	ldr	r3, [pc, #264]	; (800429c <GPIO_VidPin_Mode+0x2e0>)
 8004192:	681b      	ldr	r3, [r3, #0]
 8004194:	f443 7300 	orr.w	r3, r3, #512	; 0x200
 8004198:	6013      	str	r3, [r2, #0]
					break;
 800419a:	e1aa      	b.n	80044f2 <GPIO_VidPin_Mode+0x536>
						else if(Copy_u8Mode==GPIO_Analog){Set_Bit(GPIO_A->MODER,GPIO_MODER_MODER_4_ANALOG);}
 800419c:	797b      	ldrb	r3, [r7, #5]
 800419e:	2b03      	cmp	r3, #3
 80041a0:	d106      	bne.n	80041b0 <GPIO_VidPin_Mode+0x1f4>
 80041a2:	4a3e      	ldr	r2, [pc, #248]	; (800429c <GPIO_VidPin_Mode+0x2e0>)
 80041a4:	4b3d      	ldr	r3, [pc, #244]	; (800429c <GPIO_VidPin_Mode+0x2e0>)
 80041a6:	681b      	ldr	r3, [r3, #0]
 80041a8:	f443 7340 	orr.w	r3, r3, #768	; 0x300
 80041ac:	6013      	str	r3, [r2, #0]
					break;
 80041ae:	e1a0      	b.n	80044f2 <GPIO_VidPin_Mode+0x536>
						else{Clear_Bit(GPIO_A->MODER,GPIO_MODER_MODER_4_ANALOG);}
 80041b0:	4a3a      	ldr	r2, [pc, #232]	; (800429c <GPIO_VidPin_Mode+0x2e0>)
 80041b2:	4b3a      	ldr	r3, [pc, #232]	; (800429c <GPIO_VidPin_Mode+0x2e0>)
 80041b4:	681b      	ldr	r3, [r3, #0]
 80041b6:	f423 7340 	bic.w	r3, r3, #768	; 0x300
 80041ba:	6013      	str	r3, [r2, #0]
					break;
 80041bc:	e199      	b.n	80044f2 <GPIO_VidPin_Mode+0x536>
				case (Pin_5):
						if(Copy_u8Mode==GPIO_Output){Set_Bit(GPIO_A->MODER,GPIO_MODER_MODER_5_OUTPUT);}
 80041be:	797b      	ldrb	r3, [r7, #5]
 80041c0:	2b01      	cmp	r3, #1
 80041c2:	d106      	bne.n	80041d2 <GPIO_VidPin_Mode+0x216>
 80041c4:	4a35      	ldr	r2, [pc, #212]	; (800429c <GPIO_VidPin_Mode+0x2e0>)
 80041c6:	4b35      	ldr	r3, [pc, #212]	; (800429c <GPIO_VidPin_Mode+0x2e0>)
 80041c8:	681b      	ldr	r3, [r3, #0]
 80041ca:	f443 6380 	orr.w	r3, r3, #1024	; 0x400
 80041ce:	6013      	str	r3, [r2, #0]
						else if(Copy_u8Mode==GPIO_Alternate){Set_Bit(GPIO_A->MODER,GPIO_MODER_MODER_5_ALTERNATE);}
						else if(Copy_u8Mode==GPIO_Analog){Set_Bit(GPIO_A->MODER,GPIO_MODER_MODER_5_ANALOG);}
						else{Clear_Bit(GPIO_A->MODER,GPIO_MODER_MODER_5_ANALOG);}
					break;
 80041d0:	e18f      	b.n	80044f2 <GPIO_VidPin_Mode+0x536>
						else if(Copy_u8Mode==GPIO_Alternate){Set_Bit(GPIO_A->MODER,GPIO_MODER_MODER_5_ALTERNATE);}
 80041d2:	797b      	ldrb	r3, [r7, #5]
 80041d4:	2b02      	cmp	r3, #2
 80041d6:	d106      	bne.n	80041e6 <GPIO_VidPin_Mode+0x22a>
 80041d8:	4a30      	ldr	r2, [pc, #192]	; (800429c <GPIO_VidPin_Mode+0x2e0>)
 80041da:	4b30      	ldr	r3, [pc, #192]	; (800429c <GPIO_VidPin_Mode+0x2e0>)
 80041dc:	681b      	ldr	r3, [r3, #0]
 80041de:	f443 6300 	orr.w	r3, r3, #2048	; 0x800
 80041e2:	6013      	str	r3, [r2, #0]
					break;
 80041e4:	e185      	b.n	80044f2 <GPIO_VidPin_Mode+0x536>
						else if(Copy_u8Mode==GPIO_Analog){Set_Bit(GPIO_A->MODER,GPIO_MODER_MODER_5_ANALOG);}
 80041e6:	797b      	ldrb	r3, [r7, #5]
 80041e8:	2b03      	cmp	r3, #3
 80041ea:	d106      	bne.n	80041fa <GPIO_VidPin_Mode+0x23e>
 80041ec:	4a2b      	ldr	r2, [pc, #172]	; (800429c <GPIO_VidPin_Mode+0x2e0>)
 80041ee:	4b2b      	ldr	r3, [pc, #172]	; (800429c <GPIO_VidPin_Mode+0x2e0>)
 80041f0:	681b      	ldr	r3, [r3, #0]
 80041f2:	f443 6340 	orr.w	r3, r3, #3072	; 0xc00
 80041f6:	6013      	str	r3, [r2, #0]
					break;
 80041f8:	e17b      	b.n	80044f2 <GPIO_VidPin_Mode+0x536>
						else{Clear_Bit(GPIO_A->MODER,GPIO_MODER_MODER_5_ANALOG);}
 80041fa:	4a28      	ldr	r2, [pc, #160]	; (800429c <GPIO_VidPin_Mode+0x2e0>)
 80041fc:	4b27      	ldr	r3, [pc, #156]	; (800429c <GPIO_VidPin_Mode+0x2e0>)
 80041fe:	681b      	ldr	r3, [r3, #0]
 8004200:	f423 6340 	bic.w	r3, r3, #3072	; 0xc00
 8004204:	6013      	str	r3, [r2, #0]
					break;
 8004206:	e174      	b.n	80044f2 <GPIO_VidPin_Mode+0x536>
				case (Pin_6):
						if(Copy_u8Mode==GPIO_Output){Set_Bit(GPIO_A->MODER,GPIO_MODER_MODER_6_OUTPUT);}
 8004208:	797b      	ldrb	r3, [r7, #5]
 800420a:	2b01      	cmp	r3, #1
 800420c:	d106      	bne.n	800421c <GPIO_VidPin_Mode+0x260>
 800420e:	4a23      	ldr	r2, [pc, #140]	; (800429c <GPIO_VidPin_Mode+0x2e0>)
 8004210:	4b22      	ldr	r3, [pc, #136]	; (800429c <GPIO_VidPin_Mode+0x2e0>)
 8004212:	681b      	ldr	r3, [r3, #0]
 8004214:	f443 5380 	orr.w	r3, r3, #4096	; 0x1000
 8004218:	6013      	str	r3, [r2, #0]
						else if(Copy_u8Mode==GPIO_Alternate){Set_Bit(GPIO_A->MODER,GPIO_MODER_MODER_6_ALTERNATE);}
						else if(Copy_u8Mode==GPIO_Analog){Set_Bit(GPIO_A->MODER,GPIO_MODER_MODER_6_ANALOG);}
						else{Clear_Bit(GPIO_A->MODER,GPIO_MODER_MODER_6_ANALOG);}
					break;
 800421a:	e16a      	b.n	80044f2 <GPIO_VidPin_Mode+0x536>
						else if(Copy_u8Mode==GPIO_Alternate){Set_Bit(GPIO_A->MODER,GPIO_MODER_MODER_6_ALTERNATE);}
 800421c:	797b      	ldrb	r3, [r7, #5]
 800421e:	2b02      	cmp	r3, #2
 8004220:	d106      	bne.n	8004230 <GPIO_VidPin_Mode+0x274>
 8004222:	4a1e      	ldr	r2, [pc, #120]	; (800429c <GPIO_VidPin_Mode+0x2e0>)
 8004224:	4b1d      	ldr	r3, [pc, #116]	; (800429c <GPIO_VidPin_Mode+0x2e0>)
 8004226:	681b      	ldr	r3, [r3, #0]
 8004228:	f443 5300 	orr.w	r3, r3, #8192	; 0x2000
 800422c:	6013      	str	r3, [r2, #0]
					break;
 800422e:	e160      	b.n	80044f2 <GPIO_VidPin_Mode+0x536>
						else if(Copy_u8Mode==GPIO_Analog){Set_Bit(GPIO_A->MODER,GPIO_MODER_MODER_6_ANALOG);}
 8004230:	797b      	ldrb	r3, [r7, #5]
 8004232:	2b03      	cmp	r3, #3
 8004234:	d106      	bne.n	8004244 <GPIO_VidPin_Mode+0x288>
 8004236:	4a19      	ldr	r2, [pc, #100]	; (800429c <GPIO_VidPin_Mode+0x2e0>)
 8004238:	4b18      	ldr	r3, [pc, #96]	; (800429c <GPIO_VidPin_Mode+0x2e0>)
 800423a:	681b      	ldr	r3, [r3, #0]
 800423c:	f443 5340 	orr.w	r3, r3, #12288	; 0x3000
 8004240:	6013      	str	r3, [r2, #0]
					break;
 8004242:	e156      	b.n	80044f2 <GPIO_VidPin_Mode+0x536>
						else{Clear_Bit(GPIO_A->MODER,GPIO_MODER_MODER_6_ANALOG);}
 8004244:	4a15      	ldr	r2, [pc, #84]	; (800429c <GPIO_VidPin_Mode+0x2e0>)
 8004246:	4b15      	ldr	r3, [pc, #84]	; (800429c <GPIO_VidPin_Mode+0x2e0>)
 8004248:	681b      	ldr	r3, [r3, #0]
 800424a:	f423 5340 	bic.w	r3, r3, #12288	; 0x3000
 800424e:	6013      	str	r3, [r2, #0]
					break;
 8004250:	e14f      	b.n	80044f2 <GPIO_VidPin_Mode+0x536>
				case (Pin_7):
						if(Copy_u8Mode==GPIO_Output){Set_Bit(GPIO_A->MODER,GPIO_MODER_MODER_7_OUTPUT);}
 8004252:	797b      	ldrb	r3, [r7, #5]
 8004254:	2b01      	cmp	r3, #1
 8004256:	d106      	bne.n	8004266 <GPIO_VidPin_Mode+0x2aa>
 8004258:	4a10      	ldr	r2, [pc, #64]	; (800429c <GPIO_VidPin_Mode+0x2e0>)
 800425a:	4b10      	ldr	r3, [pc, #64]	; (800429c <GPIO_VidPin_Mode+0x2e0>)
 800425c:	681b      	ldr	r3, [r3, #0]
 800425e:	f443 4380 	orr.w	r3, r3, #16384	; 0x4000
 8004262:	6013      	str	r3, [r2, #0]
						else if(Copy_u8Mode==GPIO_Alternate){Set_Bit(GPIO_A->MODER,GPIO_MODER_MODER_7_ALTERNATE);}
						else if(Copy_u8Mode==GPIO_Analog){Set_Bit(GPIO_A->MODER,GPIO_MODER_MODER_7_ANALOG);}
						else{Clear_Bit(GPIO_A->MODER,GPIO_MODER_MODER_7_ANALOG);}
					break;
 8004264:	e145      	b.n	80044f2 <GPIO_VidPin_Mode+0x536>
						else if(Copy_u8Mode==GPIO_Alternate){Set_Bit(GPIO_A->MODER,GPIO_MODER_MODER_7_ALTERNATE);}
 8004266:	797b      	ldrb	r3, [r7, #5]
 8004268:	2b02      	cmp	r3, #2
 800426a:	d106      	bne.n	800427a <GPIO_VidPin_Mode+0x2be>
 800426c:	4a0b      	ldr	r2, [pc, #44]	; (800429c <GPIO_VidPin_Mode+0x2e0>)
 800426e:	4b0b      	ldr	r3, [pc, #44]	; (800429c <GPIO_VidPin_Mode+0x2e0>)
 8004270:	681b      	ldr	r3, [r3, #0]
 8004272:	f443 4300 	orr.w	r3, r3, #32768	; 0x8000
 8004276:	6013      	str	r3, [r2, #0]
					break;
 8004278:	e13b      	b.n	80044f2 <GPIO_VidPin_Mode+0x536>
						else if(Copy_u8Mode==GPIO_Analog){Set_Bit(GPIO_A->MODER,GPIO_MODER_MODER_7_ANALOG);}
 800427a:	797b      	ldrb	r3, [r7, #5]
 800427c:	2b03      	cmp	r3, #3
 800427e:	d106      	bne.n	800428e <GPIO_VidPin_Mode+0x2d2>
 8004280:	4a06      	ldr	r2, [pc, #24]	; (800429c <GPIO_VidPin_Mode+0x2e0>)
 8004282:	4b06      	ldr	r3, [pc, #24]	; (800429c <GPIO_VidPin_Mode+0x2e0>)
 8004284:	681b      	ldr	r3, [r3, #0]
 8004286:	f443 4340 	orr.w	r3, r3, #49152	; 0xc000
 800428a:	6013      	str	r3, [r2, #0]
					break;
 800428c:	e131      	b.n	80044f2 <GPIO_VidPin_Mode+0x536>
						else{Clear_Bit(GPIO_A->MODER,GPIO_MODER_MODER_7_ANALOG);}
 800428e:	4a03      	ldr	r2, [pc, #12]	; (800429c <GPIO_VidPin_Mode+0x2e0>)
 8004290:	4b02      	ldr	r3, [pc, #8]	; (800429c <GPIO_VidPin_Mode+0x2e0>)
 8004292:	681b      	ldr	r3, [r3, #0]
 8004294:	f423 4340 	bic.w	r3, r3, #49152	; 0xc000
 8004298:	6013      	str	r3, [r2, #0]
					break;
 800429a:	e12a      	b.n	80044f2 <GPIO_VidPin_Mode+0x536>
 800429c:	40020000 	.word	0x40020000
				case (Pin_8):
						if(Copy_u8Mode==GPIO_Output){Set_Bit(GPIO_A->MODER,GPIO_MODER_MODER_8_OUTPUT);}
 80042a0:	797b      	ldrb	r3, [r7, #5]
 80042a2:	2b01      	cmp	r3, #1
 80042a4:	d106      	bne.n	80042b4 <GPIO_VidPin_Mode+0x2f8>
 80042a6:	4a94      	ldr	r2, [pc, #592]	; (80044f8 <GPIO_VidPin_Mode+0x53c>)
 80042a8:	4b93      	ldr	r3, [pc, #588]	; (80044f8 <GPIO_VidPin_Mode+0x53c>)
 80042aa:	681b      	ldr	r3, [r3, #0]
 80042ac:	f443 3380 	orr.w	r3, r3, #65536	; 0x10000
 80042b0:	6013      	str	r3, [r2, #0]
						else if(Copy_u8Mode==GPIO_Alternate){Set_Bit(GPIO_A->MODER,GPIO_MODER_MODER_8_ALTERNATE);}
						else if(Copy_u8Mode==GPIO_Analog){Set_Bit(GPIO_A->MODER,GPIO_MODER_MODER_8_ANALOG);}
						else{Clear_Bit(GPIO_A->MODER,GPIO_MODER_MODER_8_ANALOG);}
					break;
 80042b2:	e11e      	b.n	80044f2 <GPIO_VidPin_Mode+0x536>
						else if(Copy_u8Mode==GPIO_Alternate){Set_Bit(GPIO_A->MODER,GPIO_MODER_MODER_8_ALTERNATE);}
 80042b4:	797b      	ldrb	r3, [r7, #5]
 80042b6:	2b02      	cmp	r3, #2
 80042b8:	d106      	bne.n	80042c8 <GPIO_VidPin_Mode+0x30c>
 80042ba:	4a8f      	ldr	r2, [pc, #572]	; (80044f8 <GPIO_VidPin_Mode+0x53c>)
 80042bc:	4b8e      	ldr	r3, [pc, #568]	; (80044f8 <GPIO_VidPin_Mode+0x53c>)
 80042be:	681b      	ldr	r3, [r3, #0]
 80042c0:	f443 3300 	orr.w	r3, r3, #131072	; 0x20000
 80042c4:	6013      	str	r3, [r2, #0]
					break;
 80042c6:	e114      	b.n	80044f2 <GPIO_VidPin_Mode+0x536>
						else if(Copy_u8Mode==GPIO_Analog){Set_Bit(GPIO_A->MODER,GPIO_MODER_MODER_8_ANALOG);}
 80042c8:	797b      	ldrb	r3, [r7, #5]
 80042ca:	2b03      	cmp	r3, #3
 80042cc:	d106      	bne.n	80042dc <GPIO_VidPin_Mode+0x320>
 80042ce:	4a8a      	ldr	r2, [pc, #552]	; (80044f8 <GPIO_VidPin_Mode+0x53c>)
 80042d0:	4b89      	ldr	r3, [pc, #548]	; (80044f8 <GPIO_VidPin_Mode+0x53c>)
 80042d2:	681b      	ldr	r3, [r3, #0]
 80042d4:	f443 3340 	orr.w	r3, r3, #196608	; 0x30000
 80042d8:	6013      	str	r3, [r2, #0]
					break;
 80042da:	e10a      	b.n	80044f2 <GPIO_VidPin_Mode+0x536>
						else{Clear_Bit(GPIO_A->MODER,GPIO_MODER_MODER_8_ANALOG);}
 80042dc:	4a86      	ldr	r2, [pc, #536]	; (80044f8 <GPIO_VidPin_Mode+0x53c>)
 80042de:	4b86      	ldr	r3, [pc, #536]	; (80044f8 <GPIO_VidPin_Mode+0x53c>)
 80042e0:	681b      	ldr	r3, [r3, #0]
 80042e2:	f423 3340 	bic.w	r3, r3, #196608	; 0x30000
 80042e6:	6013      	str	r3, [r2, #0]
					break;
 80042e8:	e103      	b.n	80044f2 <GPIO_VidPin_Mode+0x536>
				case (Pin_9):
						if(Copy_u8Mode==GPIO_Output){Set_Bit(GPIO_A->MODER,GPIO_MODER_MODER_9_OUTPUT);}
 80042ea:	797b      	ldrb	r3, [r7, #5]
 80042ec:	2b01      	cmp	r3, #1
 80042ee:	d106      	bne.n	80042fe <GPIO_VidPin_Mode+0x342>
 80042f0:	4a81      	ldr	r2, [pc, #516]	; (80044f8 <GPIO_VidPin_Mode+0x53c>)
 80042f2:	4b81      	ldr	r3, [pc, #516]	; (80044f8 <GPIO_VidPin_Mode+0x53c>)
 80042f4:	681b      	ldr	r3, [r3, #0]
 80042f6:	f443 2380 	orr.w	r3, r3, #262144	; 0x40000
 80042fa:	6013      	str	r3, [r2, #0]
						else if(Copy_u8Mode==GPIO_Alternate){Set_Bit(GPIO_A->MODER,GPIO_MODER_MODER_9_ALTERNATE);}
						else if(Copy_u8Mode==GPIO_Analog){Set_Bit(GPIO_A->MODER,GPIO_MODER_MODER_9_ANALOG);}
						else{Clear_Bit(GPIO_A->MODER,GPIO_MODER_MODER_9_ANALOG);}
					break;
 80042fc:	e0f9      	b.n	80044f2 <GPIO_VidPin_Mode+0x536>
						else if(Copy_u8Mode==GPIO_Alternate){Set_Bit(GPIO_A->MODER,GPIO_MODER_MODER_9_ALTERNATE);}
 80042fe:	797b      	ldrb	r3, [r7, #5]
 8004300:	2b02      	cmp	r3, #2
 8004302:	d106      	bne.n	8004312 <GPIO_VidPin_Mode+0x356>
 8004304:	4a7c      	ldr	r2, [pc, #496]	; (80044f8 <GPIO_VidPin_Mode+0x53c>)
 8004306:	4b7c      	ldr	r3, [pc, #496]	; (80044f8 <GPIO_VidPin_Mode+0x53c>)
 8004308:	681b      	ldr	r3, [r3, #0]
 800430a:	f443 2300 	orr.w	r3, r3, #524288	; 0x80000
 800430e:	6013      	str	r3, [r2, #0]
					break;
 8004310:	e0ef      	b.n	80044f2 <GPIO_VidPin_Mode+0x536>
						else if(Copy_u8Mode==GPIO_Analog){Set_Bit(GPIO_A->MODER,GPIO_MODER_MODER_9_ANALOG);}
 8004312:	797b      	ldrb	r3, [r7, #5]
 8004314:	2b03      	cmp	r3, #3
 8004316:	d106      	bne.n	8004326 <GPIO_VidPin_Mode+0x36a>
 8004318:	4a77      	ldr	r2, [pc, #476]	; (80044f8 <GPIO_VidPin_Mode+0x53c>)
 800431a:	4b77      	ldr	r3, [pc, #476]	; (80044f8 <GPIO_VidPin_Mode+0x53c>)
 800431c:	681b      	ldr	r3, [r3, #0]
 800431e:	f443 2340 	orr.w	r3, r3, #786432	; 0xc0000
 8004322:	6013      	str	r3, [r2, #0]
					break;
 8004324:	e0e5      	b.n	80044f2 <GPIO_VidPin_Mode+0x536>
						else{Clear_Bit(GPIO_A->MODER,GPIO_MODER_MODER_9_ANALOG);}
 8004326:	4a74      	ldr	r2, [pc, #464]	; (80044f8 <GPIO_VidPin_Mode+0x53c>)
 8004328:	4b73      	ldr	r3, [pc, #460]	; (80044f8 <GPIO_VidPin_Mode+0x53c>)
 800432a:	681b      	ldr	r3, [r3, #0]
 800432c:	f423 2340 	bic.w	r3, r3, #786432	; 0xc0000
 8004330:	6013      	str	r3, [r2, #0]
					break;
 8004332:	e0de      	b.n	80044f2 <GPIO_VidPin_Mode+0x536>
				case (Pin_10):
						if(Copy_u8Mode==GPIO_Output){Set_Bit(GPIO_A->MODER,GPIO_MODER_MODER_10_OUTPUT);}
 8004334:	797b      	ldrb	r3, [r7, #5]
 8004336:	2b01      	cmp	r3, #1
 8004338:	d106      	bne.n	8004348 <GPIO_VidPin_Mode+0x38c>
 800433a:	4a6f      	ldr	r2, [pc, #444]	; (80044f8 <GPIO_VidPin_Mode+0x53c>)
 800433c:	4b6e      	ldr	r3, [pc, #440]	; (80044f8 <GPIO_VidPin_Mode+0x53c>)
 800433e:	681b      	ldr	r3, [r3, #0]
 8004340:	f443 1380 	orr.w	r3, r3, #1048576	; 0x100000
 8004344:	6013      	str	r3, [r2, #0]
						else if(Copy_u8Mode==GPIO_Alternate){Set_Bit(GPIO_A->MODER,GPIO_MODER_MODER_10_ALTERNATE);}
						else if(Copy_u8Mode==GPIO_Analog){Set_Bit(GPIO_A->MODER,GPIO_MODER_MODER_10_ANALOG);}
						else{Clear_Bit(GPIO_A->MODER,GPIO_MODER_MODER_10_ANALOG);}
					break;
 8004346:	e0d4      	b.n	80044f2 <GPIO_VidPin_Mode+0x536>
						else if(Copy_u8Mode==GPIO_Alternate){Set_Bit(GPIO_A->MODER,GPIO_MODER_MODER_10_ALTERNATE);}
 8004348:	797b      	ldrb	r3, [r7, #5]
 800434a:	2b02      	cmp	r3, #2
 800434c:	d106      	bne.n	800435c <GPIO_VidPin_Mode+0x3a0>
 800434e:	4a6a      	ldr	r2, [pc, #424]	; (80044f8 <GPIO_VidPin_Mode+0x53c>)
 8004350:	4b69      	ldr	r3, [pc, #420]	; (80044f8 <GPIO_VidPin_Mode+0x53c>)
 8004352:	681b      	ldr	r3, [r3, #0]
 8004354:	f443 1300 	orr.w	r3, r3, #2097152	; 0x200000
 8004358:	6013      	str	r3, [r2, #0]
					break;
 800435a:	e0ca      	b.n	80044f2 <GPIO_VidPin_Mode+0x536>
						else if(Copy_u8Mode==GPIO_Analog){Set_Bit(GPIO_A->MODER,GPIO_MODER_MODER_10_ANALOG);}
 800435c:	797b      	ldrb	r3, [r7, #5]
 800435e:	2b03      	cmp	r3, #3
 8004360:	d106      	bne.n	8004370 <GPIO_VidPin_Mode+0x3b4>
 8004362:	4a65      	ldr	r2, [pc, #404]	; (80044f8 <GPIO_VidPin_Mode+0x53c>)
 8004364:	4b64      	ldr	r3, [pc, #400]	; (80044f8 <GPIO_VidPin_Mode+0x53c>)
 8004366:	681b      	ldr	r3, [r3, #0]
 8004368:	f443 1340 	orr.w	r3, r3, #3145728	; 0x300000
 800436c:	6013      	str	r3, [r2, #0]
					break;
 800436e:	e0c0      	b.n	80044f2 <GPIO_VidPin_Mode+0x536>
						else{Clear_Bit(GPIO_A->MODER,GPIO_MODER_MODER_10_ANALOG);}
 8004370:	4a61      	ldr	r2, [pc, #388]	; (80044f8 <GPIO_VidPin_Mode+0x53c>)
 8004372:	4b61      	ldr	r3, [pc, #388]	; (80044f8 <GPIO_VidPin_Mode+0x53c>)
 8004374:	681b      	ldr	r3, [r3, #0]
 8004376:	f423 1340 	bic.w	r3, r3, #3145728	; 0x300000
 800437a:	6013      	str	r3, [r2, #0]
					break;
 800437c:	e0b9      	b.n	80044f2 <GPIO_VidPin_Mode+0x536>
				case (Pin_11):
						if(Copy_u8Mode==GPIO_Output){Set_Bit(GPIO_A->MODER,GPIO_MODER_MODER_11_OUTPUT);}
 800437e:	797b      	ldrb	r3, [r7, #5]
 8004380:	2b01      	cmp	r3, #1
 8004382:	d106      	bne.n	8004392 <GPIO_VidPin_Mode+0x3d6>
 8004384:	4a5c      	ldr	r2, [pc, #368]	; (80044f8 <GPIO_VidPin_Mode+0x53c>)
 8004386:	4b5c      	ldr	r3, [pc, #368]	; (80044f8 <GPIO_VidPin_Mode+0x53c>)
 8004388:	681b      	ldr	r3, [r3, #0]
 800438a:	f443 0380 	orr.w	r3, r3, #4194304	; 0x400000
 800438e:	6013      	str	r3, [r2, #0]
						else if(Copy_u8Mode==GPIO_Alternate){Set_Bit(GPIO_A->MODER,GPIO_MODER_MODER_11_ALTERNATE);}
						else if(Copy_u8Mode==GPIO_Analog){Set_Bit(GPIO_A->MODER,GPIO_MODER_MODER_11_ANALOG);}
						else{Clear_Bit(GPIO_A->MODER,GPIO_MODER_MODER_11_ANALOG);}
					break;
 8004390:	e0af      	b.n	80044f2 <GPIO_VidPin_Mode+0x536>
						else if(Copy_u8Mode==GPIO_Alternate){Set_Bit(GPIO_A->MODER,GPIO_MODER_MODER_11_ALTERNATE);}
 8004392:	797b      	ldrb	r3, [r7, #5]
 8004394:	2b02      	cmp	r3, #2
 8004396:	d106      	bne.n	80043a6 <GPIO_VidPin_Mode+0x3ea>
 8004398:	4a57      	ldr	r2, [pc, #348]	; (80044f8 <GPIO_VidPin_Mode+0x53c>)
 800439a:	4b57      	ldr	r3, [pc, #348]	; (80044f8 <GPIO_VidPin_Mode+0x53c>)
 800439c:	681b      	ldr	r3, [r3, #0]
 800439e:	f443 0300 	orr.w	r3, r3, #8388608	; 0x800000
 80043a2:	6013      	str	r3, [r2, #0]
					break;
 80043a4:	e0a5      	b.n	80044f2 <GPIO_VidPin_Mode+0x536>
						else if(Copy_u8Mode==GPIO_Analog){Set_Bit(GPIO_A->MODER,GPIO_MODER_MODER_11_ANALOG);}
 80043a6:	797b      	ldrb	r3, [r7, #5]
 80043a8:	2b03      	cmp	r3, #3
 80043aa:	d106      	bne.n	80043ba <GPIO_VidPin_Mode+0x3fe>
 80043ac:	4a52      	ldr	r2, [pc, #328]	; (80044f8 <GPIO_VidPin_Mode+0x53c>)
 80043ae:	4b52      	ldr	r3, [pc, #328]	; (80044f8 <GPIO_VidPin_Mode+0x53c>)
 80043b0:	681b      	ldr	r3, [r3, #0]
 80043b2:	f443 0340 	orr.w	r3, r3, #12582912	; 0xc00000
 80043b6:	6013      	str	r3, [r2, #0]
					break;
 80043b8:	e09b      	b.n	80044f2 <GPIO_VidPin_Mode+0x536>
						else{Clear_Bit(GPIO_A->MODER,GPIO_MODER_MODER_11_ANALOG);}
 80043ba:	4a4f      	ldr	r2, [pc, #316]	; (80044f8 <GPIO_VidPin_Mode+0x53c>)
 80043bc:	4b4e      	ldr	r3, [pc, #312]	; (80044f8 <GPIO_VidPin_Mode+0x53c>)
 80043be:	681b      	ldr	r3, [r3, #0]
 80043c0:	f423 0340 	bic.w	r3, r3, #12582912	; 0xc00000
 80043c4:	6013      	str	r3, [r2, #0]
					break;
 80043c6:	e094      	b.n	80044f2 <GPIO_VidPin_Mode+0x536>
				case (Pin_12):
						if(Copy_u8Mode==GPIO_Output){Set_Bit(GPIO_A->MODER,GPIO_MODER_MODER_12_OUTPUT);}
 80043c8:	797b      	ldrb	r3, [r7, #5]
 80043ca:	2b01      	cmp	r3, #1
 80043cc:	d106      	bne.n	80043dc <GPIO_VidPin_Mode+0x420>
 80043ce:	4a4a      	ldr	r2, [pc, #296]	; (80044f8 <GPIO_VidPin_Mode+0x53c>)
 80043d0:	4b49      	ldr	r3, [pc, #292]	; (80044f8 <GPIO_VidPin_Mode+0x53c>)
 80043d2:	681b      	ldr	r3, [r3, #0]
 80043d4:	f043 7380 	orr.w	r3, r3, #16777216	; 0x1000000
 80043d8:	6013      	str	r3, [r2, #0]
						else if(Copy_u8Mode==GPIO_Alternate){Set_Bit(GPIO_A->MODER,GPIO_MODER_MODER_12_ALTERNATE);}
						else if(Copy_u8Mode==GPIO_Analog){Set_Bit(GPIO_A->MODER,GPIO_MODER_MODER_12_ANALOG);}
						else{Clear_Bit(GPIO_A->MODER,GPIO_MODER_MODER_12_ANALOG);}
					break;
 80043da:	e08a      	b.n	80044f2 <GPIO_VidPin_Mode+0x536>
						else if(Copy_u8Mode==GPIO_Alternate){Set_Bit(GPIO_A->MODER,GPIO_MODER_MODER_12_ALTERNATE);}
 80043dc:	797b      	ldrb	r3, [r7, #5]
 80043de:	2b02      	cmp	r3, #2
 80043e0:	d106      	bne.n	80043f0 <GPIO_VidPin_Mode+0x434>
 80043e2:	4a45      	ldr	r2, [pc, #276]	; (80044f8 <GPIO_VidPin_Mode+0x53c>)
 80043e4:	4b44      	ldr	r3, [pc, #272]	; (80044f8 <GPIO_VidPin_Mode+0x53c>)
 80043e6:	681b      	ldr	r3, [r3, #0]
 80043e8:	f043 7300 	orr.w	r3, r3, #33554432	; 0x2000000
 80043ec:	6013      	str	r3, [r2, #0]
					break;
 80043ee:	e080      	b.n	80044f2 <GPIO_VidPin_Mode+0x536>
						else if(Copy_u8Mode==GPIO_Analog){Set_Bit(GPIO_A->MODER,GPIO_MODER_MODER_12_ANALOG);}
 80043f0:	797b      	ldrb	r3, [r7, #5]
 80043f2:	2b03      	cmp	r3, #3
 80043f4:	d106      	bne.n	8004404 <GPIO_VidPin_Mode+0x448>
 80043f6:	4a40      	ldr	r2, [pc, #256]	; (80044f8 <GPIO_VidPin_Mode+0x53c>)
 80043f8:	4b3f      	ldr	r3, [pc, #252]	; (80044f8 <GPIO_VidPin_Mode+0x53c>)
 80043fa:	681b      	ldr	r3, [r3, #0]
 80043fc:	f043 7340 	orr.w	r3, r3, #50331648	; 0x3000000
 8004400:	6013      	str	r3, [r2, #0]
					break;
 8004402:	e076      	b.n	80044f2 <GPIO_VidPin_Mode+0x536>
						else{Clear_Bit(GPIO_A->MODER,GPIO_MODER_MODER_12_ANALOG);}
 8004404:	4a3c      	ldr	r2, [pc, #240]	; (80044f8 <GPIO_VidPin_Mode+0x53c>)
 8004406:	4b3c      	ldr	r3, [pc, #240]	; (80044f8 <GPIO_VidPin_Mode+0x53c>)
 8004408:	681b      	ldr	r3, [r3, #0]
 800440a:	f023 7340 	bic.w	r3, r3, #50331648	; 0x3000000
 800440e:	6013      	str	r3, [r2, #0]
					break;
 8004410:	e06f      	b.n	80044f2 <GPIO_VidPin_Mode+0x536>
				case (Pin_13):
						if(Copy_u8Mode==GPIO_Output){Set_Bit(GPIO_A->MODER,GPIO_MODER_MODER_13_OUTPUT);}
 8004412:	797b      	ldrb	r3, [r7, #5]
 8004414:	2b01      	cmp	r3, #1
 8004416:	d106      	bne.n	8004426 <GPIO_VidPin_Mode+0x46a>
 8004418:	4a37      	ldr	r2, [pc, #220]	; (80044f8 <GPIO_VidPin_Mode+0x53c>)
 800441a:	4b37      	ldr	r3, [pc, #220]	; (80044f8 <GPIO_VidPin_Mode+0x53c>)
 800441c:	681b      	ldr	r3, [r3, #0]
 800441e:	f043 6380 	orr.w	r3, r3, #67108864	; 0x4000000
 8004422:	6013      	str	r3, [r2, #0]
						else if(Copy_u8Mode==GPIO_Alternate){Set_Bit(GPIO_A->MODER,GPIO_MODER_MODER_13_ALTERNATE);}
						else if(Copy_u8Mode==GPIO_Analog){Set_Bit(GPIO_A->MODER,GPIO_MODER_MODER_13_ANALOG);}
						else{Clear_Bit(GPIO_A->MODER,GPIO_MODER_MODER_13_ANALOG);}
					break;
 8004424:	e065      	b.n	80044f2 <GPIO_VidPin_Mode+0x536>
						else if(Copy_u8Mode==GPIO_Alternate){Set_Bit(GPIO_A->MODER,GPIO_MODER_MODER_13_ALTERNATE);}
 8004426:	797b      	ldrb	r3, [r7, #5]
 8004428:	2b02      	cmp	r3, #2
 800442a:	d106      	bne.n	800443a <GPIO_VidPin_Mode+0x47e>
 800442c:	4a32      	ldr	r2, [pc, #200]	; (80044f8 <GPIO_VidPin_Mode+0x53c>)
 800442e:	4b32      	ldr	r3, [pc, #200]	; (80044f8 <GPIO_VidPin_Mode+0x53c>)
 8004430:	681b      	ldr	r3, [r3, #0]
 8004432:	f043 6300 	orr.w	r3, r3, #134217728	; 0x8000000
 8004436:	6013      	str	r3, [r2, #0]
					break;
 8004438:	e05b      	b.n	80044f2 <GPIO_VidPin_Mode+0x536>
						else if(Copy_u8Mode==GPIO_Analog){Set_Bit(GPIO_A->MODER,GPIO_MODER_MODER_13_ANALOG);}
 800443a:	797b      	ldrb	r3, [r7, #5]
 800443c:	2b03      	cmp	r3, #3
 800443e:	d106      	bne.n	800444e <GPIO_VidPin_Mode+0x492>
 8004440:	4a2d      	ldr	r2, [pc, #180]	; (80044f8 <GPIO_VidPin_Mode+0x53c>)
 8004442:	4b2d      	ldr	r3, [pc, #180]	; (80044f8 <GPIO_VidPin_Mode+0x53c>)
 8004444:	681b      	ldr	r3, [r3, #0]
 8004446:	f043 6340 	orr.w	r3, r3, #201326592	; 0xc000000
 800444a:	6013      	str	r3, [r2, #0]
					break;
 800444c:	e051      	b.n	80044f2 <GPIO_VidPin_Mode+0x536>
						else{Clear_Bit(GPIO_A->MODER,GPIO_MODER_MODER_13_ANALOG);}
 800444e:	4a2a      	ldr	r2, [pc, #168]	; (80044f8 <GPIO_VidPin_Mode+0x53c>)
 8004450:	4b29      	ldr	r3, [pc, #164]	; (80044f8 <GPIO_VidPin_Mode+0x53c>)
 8004452:	681b      	ldr	r3, [r3, #0]
 8004454:	f023 6340 	bic.w	r3, r3, #201326592	; 0xc000000
 8004458:	6013      	str	r3, [r2, #0]
					break;
 800445a:	e04a      	b.n	80044f2 <GPIO_VidPin_Mode+0x536>
				case (Pin_14):
						if(Copy_u8Mode==GPIO_Output){Set_Bit(GPIO_A->MODER,GPIO_MODER_MODER_14_OUTPUT);}
 800445c:	797b      	ldrb	r3, [r7, #5]
 800445e:	2b01      	cmp	r3, #1
 8004460:	d106      	bne.n	8004470 <GPIO_VidPin_Mode+0x4b4>
 8004462:	4a25      	ldr	r2, [pc, #148]	; (80044f8 <GPIO_VidPin_Mode+0x53c>)
 8004464:	4b24      	ldr	r3, [pc, #144]	; (80044f8 <GPIO_VidPin_Mode+0x53c>)
 8004466:	681b      	ldr	r3, [r3, #0]
 8004468:	f043 5380 	orr.w	r3, r3, #268435456	; 0x10000000
 800446c:	6013      	str	r3, [r2, #0]
						else if(Copy_u8Mode==GPIO_Alternate){Set_Bit(GPIO_A->MODER,GPIO_MODER_MODER_14_ALTERNATE);}
						else if(Copy_u8Mode==GPIO_Analog){Set_Bit(GPIO_A->MODER,GPIO_MODER_MODER_14_ANALOG);}
						else{Clear_Bit(GPIO_A->MODER,GPIO_MODER_MODER_14_ANALOG);}
					break;
 800446e:	e040      	b.n	80044f2 <GPIO_VidPin_Mode+0x536>
						else if(Copy_u8Mode==GPIO_Alternate){Set_Bit(GPIO_A->MODER,GPIO_MODER_MODER_14_ALTERNATE);}
 8004470:	797b      	ldrb	r3, [r7, #5]
 8004472:	2b02      	cmp	r3, #2
 8004474:	d106      	bne.n	8004484 <GPIO_VidPin_Mode+0x4c8>
 8004476:	4a20      	ldr	r2, [pc, #128]	; (80044f8 <GPIO_VidPin_Mode+0x53c>)
 8004478:	4b1f      	ldr	r3, [pc, #124]	; (80044f8 <GPIO_VidPin_Mode+0x53c>)
 800447a:	681b      	ldr	r3, [r3, #0]
 800447c:	f043 5300 	orr.w	r3, r3, #536870912	; 0x20000000
 8004480:	6013      	str	r3, [r2, #0]
					break;
 8004482:	e036      	b.n	80044f2 <GPIO_VidPin_Mode+0x536>
						else if(Copy_u8Mode==GPIO_Analog){Set_Bit(GPIO_A->MODER,GPIO_MODER_MODER_14_ANALOG);}
 8004484:	797b      	ldrb	r3, [r7, #5]
 8004486:	2b03      	cmp	r3, #3
 8004488:	d106      	bne.n	8004498 <GPIO_VidPin_Mode+0x4dc>
 800448a:	4a1b      	ldr	r2, [pc, #108]	; (80044f8 <GPIO_VidPin_Mode+0x53c>)
 800448c:	4b1a      	ldr	r3, [pc, #104]	; (80044f8 <GPIO_VidPin_Mode+0x53c>)
 800448e:	681b      	ldr	r3, [r3, #0]
 8004490:	f043 5340 	orr.w	r3, r3, #805306368	; 0x30000000
 8004494:	6013      	str	r3, [r2, #0]
					break;
 8004496:	e02c      	b.n	80044f2 <GPIO_VidPin_Mode+0x536>
						else{Clear_Bit(GPIO_A->MODER,GPIO_MODER_MODER_14_ANALOG);}
 8004498:	4a17      	ldr	r2, [pc, #92]	; (80044f8 <GPIO_VidPin_Mode+0x53c>)
 800449a:	4b17      	ldr	r3, [pc, #92]	; (80044f8 <GPIO_VidPin_Mode+0x53c>)
 800449c:	681b      	ldr	r3, [r3, #0]
 800449e:	f023 5340 	bic.w	r3, r3, #805306368	; 0x30000000
 80044a2:	6013      	str	r3, [r2, #0]
					break;
 80044a4:	e025      	b.n	80044f2 <GPIO_VidPin_Mode+0x536>
				case (Pin_15):
						if(Copy_u8Mode==GPIO_Output){Set_Bit(GPIO_A->MODER,GPIO_MODER_MODER_15_OUTPUT);}
 80044a6:	797b      	ldrb	r3, [r7, #5]
 80044a8:	2b01      	cmp	r3, #1
 80044aa:	d106      	bne.n	80044ba <GPIO_VidPin_Mode+0x4fe>
 80044ac:	4a12      	ldr	r2, [pc, #72]	; (80044f8 <GPIO_VidPin_Mode+0x53c>)
 80044ae:	4b12      	ldr	r3, [pc, #72]	; (80044f8 <GPIO_VidPin_Mode+0x53c>)
 80044b0:	681b      	ldr	r3, [r3, #0]
 80044b2:	f043 4380 	orr.w	r3, r3, #1073741824	; 0x40000000
 80044b6:	6013      	str	r3, [r2, #0]
						else if(Copy_u8Mode==GPIO_Alternate){Set_Bit(GPIO_A->MODER,GPIO_MODER_MODER_15_ALTERNATE);}
						else if(Copy_u8Mode==GPIO_Analog){Set_Bit(GPIO_A->MODER,GPIO_MODER_MODER_15_ANALOG);}
						else{Clear_Bit(GPIO_A->MODER,GPIO_MODER_MODER_15_ANALOG);}
					break;
 80044b8:	e01b      	b.n	80044f2 <GPIO_VidPin_Mode+0x536>
						else if(Copy_u8Mode==GPIO_Alternate){Set_Bit(GPIO_A->MODER,GPIO_MODER_MODER_15_ALTERNATE);}
 80044ba:	797b      	ldrb	r3, [r7, #5]
 80044bc:	2b02      	cmp	r3, #2
 80044be:	d106      	bne.n	80044ce <GPIO_VidPin_Mode+0x512>
 80044c0:	4a0d      	ldr	r2, [pc, #52]	; (80044f8 <GPIO_VidPin_Mode+0x53c>)
 80044c2:	4b0d      	ldr	r3, [pc, #52]	; (80044f8 <GPIO_VidPin_Mode+0x53c>)
 80044c4:	681b      	ldr	r3, [r3, #0]
 80044c6:	f043 4300 	orr.w	r3, r3, #2147483648	; 0x80000000
 80044ca:	6013      	str	r3, [r2, #0]
					break;
 80044cc:	e011      	b.n	80044f2 <GPIO_VidPin_Mode+0x536>
						else if(Copy_u8Mode==GPIO_Analog){Set_Bit(GPIO_A->MODER,GPIO_MODER_MODER_15_ANALOG);}
 80044ce:	797b      	ldrb	r3, [r7, #5]
 80044d0:	2b03      	cmp	r3, #3
 80044d2:	d106      	bne.n	80044e2 <GPIO_VidPin_Mode+0x526>
 80044d4:	4a08      	ldr	r2, [pc, #32]	; (80044f8 <GPIO_VidPin_Mode+0x53c>)
 80044d6:	4b08      	ldr	r3, [pc, #32]	; (80044f8 <GPIO_VidPin_Mode+0x53c>)
 80044d8:	681b      	ldr	r3, [r3, #0]
 80044da:	f043 4340 	orr.w	r3, r3, #3221225472	; 0xc0000000
 80044de:	6013      	str	r3, [r2, #0]
					break;
 80044e0:	e007      	b.n	80044f2 <GPIO_VidPin_Mode+0x536>
						else{Clear_Bit(GPIO_A->MODER,GPIO_MODER_MODER_15_ANALOG);}
 80044e2:	4a05      	ldr	r2, [pc, #20]	; (80044f8 <GPIO_VidPin_Mode+0x53c>)
 80044e4:	4b04      	ldr	r3, [pc, #16]	; (80044f8 <GPIO_VidPin_Mode+0x53c>)
 80044e6:	681b      	ldr	r3, [r3, #0]
 80044e8:	f023 4340 	bic.w	r3, r3, #3221225472	; 0xc0000000
 80044ec:	6013      	str	r3, [r2, #0]
					break;
 80044ee:	e000      	b.n	80044f2 <GPIO_VidPin_Mode+0x536>
				default:break;
 80044f0:	bf00      	nop
			}
			break;
 80044f2:	f001 b9fe 	b.w	80058f2 <GPIO_VidPin_Mode+0x1936>
 80044f6:	bf00      	nop
 80044f8:	40020000 	.word	0x40020000
		case(Port_B):
			switch (Copy_u8Pin)
 80044fc:	79bb      	ldrb	r3, [r7, #6]
 80044fe:	2b0f      	cmp	r3, #15
 8004500:	f200 8276 	bhi.w	80049f0 <GPIO_VidPin_Mode+0xa34>
 8004504:	a201      	add	r2, pc, #4	; (adr r2, 800450c <GPIO_VidPin_Mode+0x550>)
 8004506:	f852 f023 	ldr.w	pc, [r2, r3, lsl #2]
 800450a:	bf00      	nop
 800450c:	0800454d 	.word	0x0800454d
 8004510:	08004597 	.word	0x08004597
 8004514:	080045e1 	.word	0x080045e1
 8004518:	0800462b 	.word	0x0800462b
 800451c:	08004675 	.word	0x08004675
 8004520:	080046bf 	.word	0x080046bf
 8004524:	08004709 	.word	0x08004709
 8004528:	08004753 	.word	0x08004753
 800452c:	080047a1 	.word	0x080047a1
 8004530:	080047eb 	.word	0x080047eb
 8004534:	08004835 	.word	0x08004835
 8004538:	0800487f 	.word	0x0800487f
 800453c:	080048c9 	.word	0x080048c9
 8004540:	08004913 	.word	0x08004913
 8004544:	0800495d 	.word	0x0800495d
 8004548:	080049a7 	.word	0x080049a7
			{
				case (Pin_0):
						if(Copy_u8Mode==GPIO_Output){Set_Bit(GPIO_B->MODER,GPIO_MODER_MODER_0_OUTPUT);}
 800454c:	797b      	ldrb	r3, [r7, #5]
 800454e:	2b01      	cmp	r3, #1
 8004550:	d106      	bne.n	8004560 <GPIO_VidPin_Mode+0x5a4>
 8004552:	4a92      	ldr	r2, [pc, #584]	; (800479c <GPIO_VidPin_Mode+0x7e0>)
 8004554:	4b91      	ldr	r3, [pc, #580]	; (800479c <GPIO_VidPin_Mode+0x7e0>)
 8004556:	681b      	ldr	r3, [r3, #0]
 8004558:	f043 0301 	orr.w	r3, r3, #1
 800455c:	6013      	str	r3, [r2, #0]
						else if(Copy_u8Mode==GPIO_Alternate){Set_Bit(GPIO_B->MODER,GPIO_MODER_MODER_0_ALTERNATE);}
						else if(Copy_u8Mode==GPIO_Analog){Set_Bit(GPIO_B->MODER,GPIO_MODER_MODER_0_ANALOG);}
						else{Clear_Bit(GPIO_B->MODER,GPIO_MODER_MODER_0_ANALOG);}
					break;
 800455e:	e248      	b.n	80049f2 <GPIO_VidPin_Mode+0xa36>
						else if(Copy_u8Mode==GPIO_Alternate){Set_Bit(GPIO_B->MODER,GPIO_MODER_MODER_0_ALTERNATE);}
 8004560:	797b      	ldrb	r3, [r7, #5]
 8004562:	2b02      	cmp	r3, #2
 8004564:	d106      	bne.n	8004574 <GPIO_VidPin_Mode+0x5b8>
 8004566:	4a8d      	ldr	r2, [pc, #564]	; (800479c <GPIO_VidPin_Mode+0x7e0>)
 8004568:	4b8c      	ldr	r3, [pc, #560]	; (800479c <GPIO_VidPin_Mode+0x7e0>)
 800456a:	681b      	ldr	r3, [r3, #0]
 800456c:	f043 0302 	orr.w	r3, r3, #2
 8004570:	6013      	str	r3, [r2, #0]
					break;
 8004572:	e23e      	b.n	80049f2 <GPIO_VidPin_Mode+0xa36>
						else if(Copy_u8Mode==GPIO_Analog){Set_Bit(GPIO_B->MODER,GPIO_MODER_MODER_0_ANALOG);}
 8004574:	797b      	ldrb	r3, [r7, #5]
 8004576:	2b03      	cmp	r3, #3
 8004578:	d106      	bne.n	8004588 <GPIO_VidPin_Mode+0x5cc>
 800457a:	4a88      	ldr	r2, [pc, #544]	; (800479c <GPIO_VidPin_Mode+0x7e0>)
 800457c:	4b87      	ldr	r3, [pc, #540]	; (800479c <GPIO_VidPin_Mode+0x7e0>)
 800457e:	681b      	ldr	r3, [r3, #0]
 8004580:	f043 0303 	orr.w	r3, r3, #3
 8004584:	6013      	str	r3, [r2, #0]
					break;
 8004586:	e234      	b.n	80049f2 <GPIO_VidPin_Mode+0xa36>
						else{Clear_Bit(GPIO_B->MODER,GPIO_MODER_MODER_0_ANALOG);}
 8004588:	4a84      	ldr	r2, [pc, #528]	; (800479c <GPIO_VidPin_Mode+0x7e0>)
 800458a:	4b84      	ldr	r3, [pc, #528]	; (800479c <GPIO_VidPin_Mode+0x7e0>)
 800458c:	681b      	ldr	r3, [r3, #0]
 800458e:	f023 0303 	bic.w	r3, r3, #3
 8004592:	6013      	str	r3, [r2, #0]
					break;
 8004594:	e22d      	b.n	80049f2 <GPIO_VidPin_Mode+0xa36>
				case (Pin_1):
						if(Copy_u8Mode==GPIO_Output){Set_Bit(GPIO_B->MODER,GPIO_MODER_MODER_1_OUTPUT);}
 8004596:	797b      	ldrb	r3, [r7, #5]
 8004598:	2b01      	cmp	r3, #1
 800459a:	d106      	bne.n	80045aa <GPIO_VidPin_Mode+0x5ee>
 800459c:	4a7f      	ldr	r2, [pc, #508]	; (800479c <GPIO_VidPin_Mode+0x7e0>)
 800459e:	4b7f      	ldr	r3, [pc, #508]	; (800479c <GPIO_VidPin_Mode+0x7e0>)
 80045a0:	681b      	ldr	r3, [r3, #0]
 80045a2:	f043 0304 	orr.w	r3, r3, #4
 80045a6:	6013      	str	r3, [r2, #0]
						else if(Copy_u8Mode==GPIO_Alternate){Set_Bit(GPIO_B->MODER,GPIO_MODER_MODER_1_ALTERNATE);}
						else if(Copy_u8Mode==GPIO_Analog){Set_Bit(GPIO_B->MODER,GPIO_MODER_MODER_1_ANALOG);}
						else{Clear_Bit(GPIO_B->MODER,GPIO_MODER_MODER_1_ANALOG);}
					break;
 80045a8:	e223      	b.n	80049f2 <GPIO_VidPin_Mode+0xa36>
						else if(Copy_u8Mode==GPIO_Alternate){Set_Bit(GPIO_B->MODER,GPIO_MODER_MODER_1_ALTERNATE);}
 80045aa:	797b      	ldrb	r3, [r7, #5]
 80045ac:	2b02      	cmp	r3, #2
 80045ae:	d106      	bne.n	80045be <GPIO_VidPin_Mode+0x602>
 80045b0:	4a7a      	ldr	r2, [pc, #488]	; (800479c <GPIO_VidPin_Mode+0x7e0>)
 80045b2:	4b7a      	ldr	r3, [pc, #488]	; (800479c <GPIO_VidPin_Mode+0x7e0>)
 80045b4:	681b      	ldr	r3, [r3, #0]
 80045b6:	f043 0308 	orr.w	r3, r3, #8
 80045ba:	6013      	str	r3, [r2, #0]
					break;
 80045bc:	e219      	b.n	80049f2 <GPIO_VidPin_Mode+0xa36>
						else if(Copy_u8Mode==GPIO_Analog){Set_Bit(GPIO_B->MODER,GPIO_MODER_MODER_1_ANALOG);}
 80045be:	797b      	ldrb	r3, [r7, #5]
 80045c0:	2b03      	cmp	r3, #3
 80045c2:	d106      	bne.n	80045d2 <GPIO_VidPin_Mode+0x616>
 80045c4:	4a75      	ldr	r2, [pc, #468]	; (800479c <GPIO_VidPin_Mode+0x7e0>)
 80045c6:	4b75      	ldr	r3, [pc, #468]	; (800479c <GPIO_VidPin_Mode+0x7e0>)
 80045c8:	681b      	ldr	r3, [r3, #0]
 80045ca:	f043 030c 	orr.w	r3, r3, #12
 80045ce:	6013      	str	r3, [r2, #0]
					break;
 80045d0:	e20f      	b.n	80049f2 <GPIO_VidPin_Mode+0xa36>
						else{Clear_Bit(GPIO_B->MODER,GPIO_MODER_MODER_1_ANALOG);}
 80045d2:	4a72      	ldr	r2, [pc, #456]	; (800479c <GPIO_VidPin_Mode+0x7e0>)
 80045d4:	4b71      	ldr	r3, [pc, #452]	; (800479c <GPIO_VidPin_Mode+0x7e0>)
 80045d6:	681b      	ldr	r3, [r3, #0]
 80045d8:	f023 030c 	bic.w	r3, r3, #12
 80045dc:	6013      	str	r3, [r2, #0]
					break;
 80045de:	e208      	b.n	80049f2 <GPIO_VidPin_Mode+0xa36>
				case (Pin_2):
						if(Copy_u8Mode==GPIO_Output){Set_Bit(GPIO_B->MODER,GPIO_MODER_MODER_2_OUTPUT);}
 80045e0:	797b      	ldrb	r3, [r7, #5]
 80045e2:	2b01      	cmp	r3, #1
 80045e4:	d106      	bne.n	80045f4 <GPIO_VidPin_Mode+0x638>
 80045e6:	4a6d      	ldr	r2, [pc, #436]	; (800479c <GPIO_VidPin_Mode+0x7e0>)
 80045e8:	4b6c      	ldr	r3, [pc, #432]	; (800479c <GPIO_VidPin_Mode+0x7e0>)
 80045ea:	681b      	ldr	r3, [r3, #0]
 80045ec:	f043 0310 	orr.w	r3, r3, #16
 80045f0:	6013      	str	r3, [r2, #0]
						else if(Copy_u8Mode==GPIO_Alternate){Set_Bit(GPIO_B->MODER,GPIO_MODER_MODER_2_ALTERNATE);}
						else if(Copy_u8Mode==GPIO_Analog){Set_Bit(GPIO_B->MODER,GPIO_MODER_MODER_2_ANALOG);}
						else{Clear_Bit(GPIO_B->MODER,GPIO_MODER_MODER_2_ANALOG);}
					break;
 80045f2:	e1fe      	b.n	80049f2 <GPIO_VidPin_Mode+0xa36>
						else if(Copy_u8Mode==GPIO_Alternate){Set_Bit(GPIO_B->MODER,GPIO_MODER_MODER_2_ALTERNATE);}
 80045f4:	797b      	ldrb	r3, [r7, #5]
 80045f6:	2b02      	cmp	r3, #2
 80045f8:	d106      	bne.n	8004608 <GPIO_VidPin_Mode+0x64c>
 80045fa:	4a68      	ldr	r2, [pc, #416]	; (800479c <GPIO_VidPin_Mode+0x7e0>)
 80045fc:	4b67      	ldr	r3, [pc, #412]	; (800479c <GPIO_VidPin_Mode+0x7e0>)
 80045fe:	681b      	ldr	r3, [r3, #0]
 8004600:	f043 0320 	orr.w	r3, r3, #32
 8004604:	6013      	str	r3, [r2, #0]
					break;
 8004606:	e1f4      	b.n	80049f2 <GPIO_VidPin_Mode+0xa36>
						else if(Copy_u8Mode==GPIO_Analog){Set_Bit(GPIO_B->MODER,GPIO_MODER_MODER_2_ANALOG);}
 8004608:	797b      	ldrb	r3, [r7, #5]
 800460a:	2b03      	cmp	r3, #3
 800460c:	d106      	bne.n	800461c <GPIO_VidPin_Mode+0x660>
 800460e:	4a63      	ldr	r2, [pc, #396]	; (800479c <GPIO_VidPin_Mode+0x7e0>)
 8004610:	4b62      	ldr	r3, [pc, #392]	; (800479c <GPIO_VidPin_Mode+0x7e0>)
 8004612:	681b      	ldr	r3, [r3, #0]
 8004614:	f043 0330 	orr.w	r3, r3, #48	; 0x30
 8004618:	6013      	str	r3, [r2, #0]
					break;
 800461a:	e1ea      	b.n	80049f2 <GPIO_VidPin_Mode+0xa36>
						else{Clear_Bit(GPIO_B->MODER,GPIO_MODER_MODER_2_ANALOG);}
 800461c:	4a5f      	ldr	r2, [pc, #380]	; (800479c <GPIO_VidPin_Mode+0x7e0>)
 800461e:	4b5f      	ldr	r3, [pc, #380]	; (800479c <GPIO_VidPin_Mode+0x7e0>)
 8004620:	681b      	ldr	r3, [r3, #0]
 8004622:	f023 0330 	bic.w	r3, r3, #48	; 0x30
 8004626:	6013      	str	r3, [r2, #0]
					break;
 8004628:	e1e3      	b.n	80049f2 <GPIO_VidPin_Mode+0xa36>
				case (Pin_3):
						if(Copy_u8Mode==GPIO_Output){Set_Bit(GPIO_B->MODER,GPIO_MODER_MODER_3_OUTPUT);}
 800462a:	797b      	ldrb	r3, [r7, #5]
 800462c:	2b01      	cmp	r3, #1
 800462e:	d106      	bne.n	800463e <GPIO_VidPin_Mode+0x682>
 8004630:	4a5a      	ldr	r2, [pc, #360]	; (800479c <GPIO_VidPin_Mode+0x7e0>)
 8004632:	4b5a      	ldr	r3, [pc, #360]	; (800479c <GPIO_VidPin_Mode+0x7e0>)
 8004634:	681b      	ldr	r3, [r3, #0]
 8004636:	f043 0340 	orr.w	r3, r3, #64	; 0x40
 800463a:	6013      	str	r3, [r2, #0]
						else if(Copy_u8Mode==GPIO_Alternate){Set_Bit(GPIO_B->MODER,GPIO_MODER_MODER_3_ALTERNATE);}
						else if(Copy_u8Mode==GPIO_Analog){Set_Bit(GPIO_B->MODER,GPIO_MODER_MODER_3_ANALOG);}
						else{Clear_Bit(GPIO_B->MODER,GPIO_MODER_MODER_3_ANALOG);}
					break;
 800463c:	e1d9      	b.n	80049f2 <GPIO_VidPin_Mode+0xa36>
						else if(Copy_u8Mode==GPIO_Alternate){Set_Bit(GPIO_B->MODER,GPIO_MODER_MODER_3_ALTERNATE);}
 800463e:	797b      	ldrb	r3, [r7, #5]
 8004640:	2b02      	cmp	r3, #2
 8004642:	d106      	bne.n	8004652 <GPIO_VidPin_Mode+0x696>
 8004644:	4a55      	ldr	r2, [pc, #340]	; (800479c <GPIO_VidPin_Mode+0x7e0>)
 8004646:	4b55      	ldr	r3, [pc, #340]	; (800479c <GPIO_VidPin_Mode+0x7e0>)
 8004648:	681b      	ldr	r3, [r3, #0]
 800464a:	f043 0380 	orr.w	r3, r3, #128	; 0x80
 800464e:	6013      	str	r3, [r2, #0]
					break;
 8004650:	e1cf      	b.n	80049f2 <GPIO_VidPin_Mode+0xa36>
						else if(Copy_u8Mode==GPIO_Analog){Set_Bit(GPIO_B->MODER,GPIO_MODER_MODER_3_ANALOG);}
 8004652:	797b      	ldrb	r3, [r7, #5]
 8004654:	2b03      	cmp	r3, #3
 8004656:	d106      	bne.n	8004666 <GPIO_VidPin_Mode+0x6aa>
 8004658:	4a50      	ldr	r2, [pc, #320]	; (800479c <GPIO_VidPin_Mode+0x7e0>)
 800465a:	4b50      	ldr	r3, [pc, #320]	; (800479c <GPIO_VidPin_Mode+0x7e0>)
 800465c:	681b      	ldr	r3, [r3, #0]
 800465e:	f043 03c0 	orr.w	r3, r3, #192	; 0xc0
 8004662:	6013      	str	r3, [r2, #0]
					break;
 8004664:	e1c5      	b.n	80049f2 <GPIO_VidPin_Mode+0xa36>
						else{Clear_Bit(GPIO_B->MODER,GPIO_MODER_MODER_3_ANALOG);}
 8004666:	4a4d      	ldr	r2, [pc, #308]	; (800479c <GPIO_VidPin_Mode+0x7e0>)
 8004668:	4b4c      	ldr	r3, [pc, #304]	; (800479c <GPIO_VidPin_Mode+0x7e0>)
 800466a:	681b      	ldr	r3, [r3, #0]
 800466c:	f023 03c0 	bic.w	r3, r3, #192	; 0xc0
 8004670:	6013      	str	r3, [r2, #0]
					break;
 8004672:	e1be      	b.n	80049f2 <GPIO_VidPin_Mode+0xa36>
				case (Pin_4):
						if(Copy_u8Mode==GPIO_Output){Set_Bit(GPIO_B->MODER,GPIO_MODER_MODER_4_OUTPUT);}
 8004674:	797b      	ldrb	r3, [r7, #5]
 8004676:	2b01      	cmp	r3, #1
 8004678:	d106      	bne.n	8004688 <GPIO_VidPin_Mode+0x6cc>
 800467a:	4a48      	ldr	r2, [pc, #288]	; (800479c <GPIO_VidPin_Mode+0x7e0>)
 800467c:	4b47      	ldr	r3, [pc, #284]	; (800479c <GPIO_VidPin_Mode+0x7e0>)
 800467e:	681b      	ldr	r3, [r3, #0]
 8004680:	f443 7380 	orr.w	r3, r3, #256	; 0x100
 8004684:	6013      	str	r3, [r2, #0]
						else if(Copy_u8Mode==GPIO_Alternate){Set_Bit(GPIO_B->MODER,GPIO_MODER_MODER_4_ALTERNATE);}
						else if(Copy_u8Mode==GPIO_Analog){Set_Bit(GPIO_B->MODER,GPIO_MODER_MODER_4_ANALOG);}
						else{Clear_Bit(GPIO_B->MODER,GPIO_MODER_MODER_4_ANALOG);}
					break;
 8004686:	e1b4      	b.n	80049f2 <GPIO_VidPin_Mode+0xa36>
						else if(Copy_u8Mode==GPIO_Alternate){Set_Bit(GPIO_B->MODER,GPIO_MODER_MODER_4_ALTERNATE);}
 8004688:	797b      	ldrb	r3, [r7, #5]
 800468a:	2b02      	cmp	r3, #2
 800468c:	d106      	bne.n	800469c <GPIO_VidPin_Mode+0x6e0>
 800468e:	4a43      	ldr	r2, [pc, #268]	; (800479c <GPIO_VidPin_Mode+0x7e0>)
 8004690:	4b42      	ldr	r3, [pc, #264]	; (800479c <GPIO_VidPin_Mode+0x7e0>)
 8004692:	681b      	ldr	r3, [r3, #0]
 8004694:	f443 7300 	orr.w	r3, r3, #512	; 0x200
 8004698:	6013      	str	r3, [r2, #0]
					break;
 800469a:	e1aa      	b.n	80049f2 <GPIO_VidPin_Mode+0xa36>
						else if(Copy_u8Mode==GPIO_Analog){Set_Bit(GPIO_B->MODER,GPIO_MODER_MODER_4_ANALOG);}
 800469c:	797b      	ldrb	r3, [r7, #5]
 800469e:	2b03      	cmp	r3, #3
 80046a0:	d106      	bne.n	80046b0 <GPIO_VidPin_Mode+0x6f4>
 80046a2:	4a3e      	ldr	r2, [pc, #248]	; (800479c <GPIO_VidPin_Mode+0x7e0>)
 80046a4:	4b3d      	ldr	r3, [pc, #244]	; (800479c <GPIO_VidPin_Mode+0x7e0>)
 80046a6:	681b      	ldr	r3, [r3, #0]
 80046a8:	f443 7340 	orr.w	r3, r3, #768	; 0x300
 80046ac:	6013      	str	r3, [r2, #0]
					break;
 80046ae:	e1a0      	b.n	80049f2 <GPIO_VidPin_Mode+0xa36>
						else{Clear_Bit(GPIO_B->MODER,GPIO_MODER_MODER_4_ANALOG);}
 80046b0:	4a3a      	ldr	r2, [pc, #232]	; (800479c <GPIO_VidPin_Mode+0x7e0>)
 80046b2:	4b3a      	ldr	r3, [pc, #232]	; (800479c <GPIO_VidPin_Mode+0x7e0>)
 80046b4:	681b      	ldr	r3, [r3, #0]
 80046b6:	f423 7340 	bic.w	r3, r3, #768	; 0x300
 80046ba:	6013      	str	r3, [r2, #0]
					break;
 80046bc:	e199      	b.n	80049f2 <GPIO_VidPin_Mode+0xa36>
				case (Pin_5):
						if(Copy_u8Mode==GPIO_Output){Set_Bit(GPIO_B->MODER,GPIO_MODER_MODER_5_OUTPUT);}
 80046be:	797b      	ldrb	r3, [r7, #5]
 80046c0:	2b01      	cmp	r3, #1
 80046c2:	d106      	bne.n	80046d2 <GPIO_VidPin_Mode+0x716>
 80046c4:	4a35      	ldr	r2, [pc, #212]	; (800479c <GPIO_VidPin_Mode+0x7e0>)
 80046c6:	4b35      	ldr	r3, [pc, #212]	; (800479c <GPIO_VidPin_Mode+0x7e0>)
 80046c8:	681b      	ldr	r3, [r3, #0]
 80046ca:	f443 6380 	orr.w	r3, r3, #1024	; 0x400
 80046ce:	6013      	str	r3, [r2, #0]
						else if(Copy_u8Mode==GPIO_Alternate){Set_Bit(GPIO_B->MODER,GPIO_MODER_MODER_5_ALTERNATE);}
						else if(Copy_u8Mode==GPIO_Analog){Set_Bit(GPIO_B->MODER,GPIO_MODER_MODER_5_ANALOG);}
						else{Clear_Bit(GPIO_B->MODER,GPIO_MODER_MODER_5_ANALOG);}
					break;
 80046d0:	e18f      	b.n	80049f2 <GPIO_VidPin_Mode+0xa36>
						else if(Copy_u8Mode==GPIO_Alternate){Set_Bit(GPIO_B->MODER,GPIO_MODER_MODER_5_ALTERNATE);}
 80046d2:	797b      	ldrb	r3, [r7, #5]
 80046d4:	2b02      	cmp	r3, #2
 80046d6:	d106      	bne.n	80046e6 <GPIO_VidPin_Mode+0x72a>
 80046d8:	4a30      	ldr	r2, [pc, #192]	; (800479c <GPIO_VidPin_Mode+0x7e0>)
 80046da:	4b30      	ldr	r3, [pc, #192]	; (800479c <GPIO_VidPin_Mode+0x7e0>)
 80046dc:	681b      	ldr	r3, [r3, #0]
 80046de:	f443 6300 	orr.w	r3, r3, #2048	; 0x800
 80046e2:	6013      	str	r3, [r2, #0]
					break;
 80046e4:	e185      	b.n	80049f2 <GPIO_VidPin_Mode+0xa36>
						else if(Copy_u8Mode==GPIO_Analog){Set_Bit(GPIO_B->MODER,GPIO_MODER_MODER_5_ANALOG);}
 80046e6:	797b      	ldrb	r3, [r7, #5]
 80046e8:	2b03      	cmp	r3, #3
 80046ea:	d106      	bne.n	80046fa <GPIO_VidPin_Mode+0x73e>
 80046ec:	4a2b      	ldr	r2, [pc, #172]	; (800479c <GPIO_VidPin_Mode+0x7e0>)
 80046ee:	4b2b      	ldr	r3, [pc, #172]	; (800479c <GPIO_VidPin_Mode+0x7e0>)
 80046f0:	681b      	ldr	r3, [r3, #0]
 80046f2:	f443 6340 	orr.w	r3, r3, #3072	; 0xc00
 80046f6:	6013      	str	r3, [r2, #0]
					break;
 80046f8:	e17b      	b.n	80049f2 <GPIO_VidPin_Mode+0xa36>
						else{Clear_Bit(GPIO_B->MODER,GPIO_MODER_MODER_5_ANALOG);}
 80046fa:	4a28      	ldr	r2, [pc, #160]	; (800479c <GPIO_VidPin_Mode+0x7e0>)
 80046fc:	4b27      	ldr	r3, [pc, #156]	; (800479c <GPIO_VidPin_Mode+0x7e0>)
 80046fe:	681b      	ldr	r3, [r3, #0]
 8004700:	f423 6340 	bic.w	r3, r3, #3072	; 0xc00
 8004704:	6013      	str	r3, [r2, #0]
					break;
 8004706:	e174      	b.n	80049f2 <GPIO_VidPin_Mode+0xa36>
				case (Pin_6):
						if(Copy_u8Mode==GPIO_Output){Set_Bit(GPIO_B->MODER,GPIO_MODER_MODER_6_OUTPUT);}
 8004708:	797b      	ldrb	r3, [r7, #5]
 800470a:	2b01      	cmp	r3, #1
 800470c:	d106      	bne.n	800471c <GPIO_VidPin_Mode+0x760>
 800470e:	4a23      	ldr	r2, [pc, #140]	; (800479c <GPIO_VidPin_Mode+0x7e0>)
 8004710:	4b22      	ldr	r3, [pc, #136]	; (800479c <GPIO_VidPin_Mode+0x7e0>)
 8004712:	681b      	ldr	r3, [r3, #0]
 8004714:	f443 5380 	orr.w	r3, r3, #4096	; 0x1000
 8004718:	6013      	str	r3, [r2, #0]
						else if(Copy_u8Mode==GPIO_Alternate){Set_Bit(GPIO_B->MODER,GPIO_MODER_MODER_6_ALTERNATE);}
						else if(Copy_u8Mode==GPIO_Analog){Set_Bit(GPIO_B->MODER,GPIO_MODER_MODER_6_ANALOG);}
						else{Clear_Bit(GPIO_B->MODER,GPIO_MODER_MODER_6_ANALOG);}
					break;
 800471a:	e16a      	b.n	80049f2 <GPIO_VidPin_Mode+0xa36>
						else if(Copy_u8Mode==GPIO_Alternate){Set_Bit(GPIO_B->MODER,GPIO_MODER_MODER_6_ALTERNATE);}
 800471c:	797b      	ldrb	r3, [r7, #5]
 800471e:	2b02      	cmp	r3, #2
 8004720:	d106      	bne.n	8004730 <GPIO_VidPin_Mode+0x774>
 8004722:	4a1e      	ldr	r2, [pc, #120]	; (800479c <GPIO_VidPin_Mode+0x7e0>)
 8004724:	4b1d      	ldr	r3, [pc, #116]	; (800479c <GPIO_VidPin_Mode+0x7e0>)
 8004726:	681b      	ldr	r3, [r3, #0]
 8004728:	f443 5300 	orr.w	r3, r3, #8192	; 0x2000
 800472c:	6013      	str	r3, [r2, #0]
					break;
 800472e:	e160      	b.n	80049f2 <GPIO_VidPin_Mode+0xa36>
						else if(Copy_u8Mode==GPIO_Analog){Set_Bit(GPIO_B->MODER,GPIO_MODER_MODER_6_ANALOG);}
 8004730:	797b      	ldrb	r3, [r7, #5]
 8004732:	2b03      	cmp	r3, #3
 8004734:	d106      	bne.n	8004744 <GPIO_VidPin_Mode+0x788>
 8004736:	4a19      	ldr	r2, [pc, #100]	; (800479c <GPIO_VidPin_Mode+0x7e0>)
 8004738:	4b18      	ldr	r3, [pc, #96]	; (800479c <GPIO_VidPin_Mode+0x7e0>)
 800473a:	681b      	ldr	r3, [r3, #0]
 800473c:	f443 5340 	orr.w	r3, r3, #12288	; 0x3000
 8004740:	6013      	str	r3, [r2, #0]
					break;
 8004742:	e156      	b.n	80049f2 <GPIO_VidPin_Mode+0xa36>
						else{Clear_Bit(GPIO_B->MODER,GPIO_MODER_MODER_6_ANALOG);}
 8004744:	4a15      	ldr	r2, [pc, #84]	; (800479c <GPIO_VidPin_Mode+0x7e0>)
 8004746:	4b15      	ldr	r3, [pc, #84]	; (800479c <GPIO_VidPin_Mode+0x7e0>)
 8004748:	681b      	ldr	r3, [r3, #0]
 800474a:	f423 5340 	bic.w	r3, r3, #12288	; 0x3000
 800474e:	6013      	str	r3, [r2, #0]
					break;
 8004750:	e14f      	b.n	80049f2 <GPIO_VidPin_Mode+0xa36>
				case (Pin_7):
						if(Copy_u8Mode==GPIO_Output){Set_Bit(GPIO_B->MODER,GPIO_MODER_MODER_7_OUTPUT);}
 8004752:	797b      	ldrb	r3, [r7, #5]
 8004754:	2b01      	cmp	r3, #1
 8004756:	d106      	bne.n	8004766 <GPIO_VidPin_Mode+0x7aa>
 8004758:	4a10      	ldr	r2, [pc, #64]	; (800479c <GPIO_VidPin_Mode+0x7e0>)
 800475a:	4b10      	ldr	r3, [pc, #64]	; (800479c <GPIO_VidPin_Mode+0x7e0>)
 800475c:	681b      	ldr	r3, [r3, #0]
 800475e:	f443 4380 	orr.w	r3, r3, #16384	; 0x4000
 8004762:	6013      	str	r3, [r2, #0]
						else if(Copy_u8Mode==GPIO_Alternate){Set_Bit(GPIO_B->MODER,GPIO_MODER_MODER_7_ALTERNATE);}
						else if(Copy_u8Mode==GPIO_Analog){Set_Bit(GPIO_B->MODER,GPIO_MODER_MODER_7_ANALOG);}
						else{Clear_Bit(GPIO_B->MODER,GPIO_MODER_MODER_7_ANALOG);}
					break;
 8004764:	e145      	b.n	80049f2 <GPIO_VidPin_Mode+0xa36>
						else if(Copy_u8Mode==GPIO_Alternate){Set_Bit(GPIO_B->MODER,GPIO_MODER_MODER_7_ALTERNATE);}
 8004766:	797b      	ldrb	r3, [r7, #5]
 8004768:	2b02      	cmp	r3, #2
 800476a:	d106      	bne.n	800477a <GPIO_VidPin_Mode+0x7be>
 800476c:	4a0b      	ldr	r2, [pc, #44]	; (800479c <GPIO_VidPin_Mode+0x7e0>)
 800476e:	4b0b      	ldr	r3, [pc, #44]	; (800479c <GPIO_VidPin_Mode+0x7e0>)
 8004770:	681b      	ldr	r3, [r3, #0]
 8004772:	f443 4300 	orr.w	r3, r3, #32768	; 0x8000
 8004776:	6013      	str	r3, [r2, #0]
					break;
 8004778:	e13b      	b.n	80049f2 <GPIO_VidPin_Mode+0xa36>
						else if(Copy_u8Mode==GPIO_Analog){Set_Bit(GPIO_B->MODER,GPIO_MODER_MODER_7_ANALOG);}
 800477a:	797b      	ldrb	r3, [r7, #5]
 800477c:	2b03      	cmp	r3, #3
 800477e:	d106      	bne.n	800478e <GPIO_VidPin_Mode+0x7d2>
 8004780:	4a06      	ldr	r2, [pc, #24]	; (800479c <GPIO_VidPin_Mode+0x7e0>)
 8004782:	4b06      	ldr	r3, [pc, #24]	; (800479c <GPIO_VidPin_Mode+0x7e0>)
 8004784:	681b      	ldr	r3, [r3, #0]
 8004786:	f443 4340 	orr.w	r3, r3, #49152	; 0xc000
 800478a:	6013      	str	r3, [r2, #0]
					break;
 800478c:	e131      	b.n	80049f2 <GPIO_VidPin_Mode+0xa36>
						else{Clear_Bit(GPIO_B->MODER,GPIO_MODER_MODER_7_ANALOG);}
 800478e:	4a03      	ldr	r2, [pc, #12]	; (800479c <GPIO_VidPin_Mode+0x7e0>)
 8004790:	4b02      	ldr	r3, [pc, #8]	; (800479c <GPIO_VidPin_Mode+0x7e0>)
 8004792:	681b      	ldr	r3, [r3, #0]
 8004794:	f423 4340 	bic.w	r3, r3, #49152	; 0xc000
 8004798:	6013      	str	r3, [r2, #0]
					break;
 800479a:	e12a      	b.n	80049f2 <GPIO_VidPin_Mode+0xa36>
 800479c:	40020400 	.word	0x40020400
				case (Pin_8):
						if(Copy_u8Mode==GPIO_Output){Set_Bit(GPIO_B->MODER,GPIO_MODER_MODER_8_OUTPUT);}
 80047a0:	797b      	ldrb	r3, [r7, #5]
 80047a2:	2b01      	cmp	r3, #1
 80047a4:	d106      	bne.n	80047b4 <GPIO_VidPin_Mode+0x7f8>
 80047a6:	4a94      	ldr	r2, [pc, #592]	; (80049f8 <GPIO_VidPin_Mode+0xa3c>)
 80047a8:	4b93      	ldr	r3, [pc, #588]	; (80049f8 <GPIO_VidPin_Mode+0xa3c>)
 80047aa:	681b      	ldr	r3, [r3, #0]
 80047ac:	f443 3380 	orr.w	r3, r3, #65536	; 0x10000
 80047b0:	6013      	str	r3, [r2, #0]
						else if(Copy_u8Mode==GPIO_Alternate){Set_Bit(GPIO_B->MODER,GPIO_MODER_MODER_8_ALTERNATE);}
						else if(Copy_u8Mode==GPIO_Analog){Set_Bit(GPIO_B->MODER,GPIO_MODER_MODER_8_ANALOG);}
						else{Clear_Bit(GPIO_B->MODER,GPIO_MODER_MODER_8_ANALOG);}
					break;
 80047b2:	e11e      	b.n	80049f2 <GPIO_VidPin_Mode+0xa36>
						else if(Copy_u8Mode==GPIO_Alternate){Set_Bit(GPIO_B->MODER,GPIO_MODER_MODER_8_ALTERNATE);}
 80047b4:	797b      	ldrb	r3, [r7, #5]
 80047b6:	2b02      	cmp	r3, #2
 80047b8:	d106      	bne.n	80047c8 <GPIO_VidPin_Mode+0x80c>
 80047ba:	4a8f      	ldr	r2, [pc, #572]	; (80049f8 <GPIO_VidPin_Mode+0xa3c>)
 80047bc:	4b8e      	ldr	r3, [pc, #568]	; (80049f8 <GPIO_VidPin_Mode+0xa3c>)
 80047be:	681b      	ldr	r3, [r3, #0]
 80047c0:	f443 3300 	orr.w	r3, r3, #131072	; 0x20000
 80047c4:	6013      	str	r3, [r2, #0]
					break;
 80047c6:	e114      	b.n	80049f2 <GPIO_VidPin_Mode+0xa36>
						else if(Copy_u8Mode==GPIO_Analog){Set_Bit(GPIO_B->MODER,GPIO_MODER_MODER_8_ANALOG);}
 80047c8:	797b      	ldrb	r3, [r7, #5]
 80047ca:	2b03      	cmp	r3, #3
 80047cc:	d106      	bne.n	80047dc <GPIO_VidPin_Mode+0x820>
 80047ce:	4a8a      	ldr	r2, [pc, #552]	; (80049f8 <GPIO_VidPin_Mode+0xa3c>)
 80047d0:	4b89      	ldr	r3, [pc, #548]	; (80049f8 <GPIO_VidPin_Mode+0xa3c>)
 80047d2:	681b      	ldr	r3, [r3, #0]
 80047d4:	f443 3340 	orr.w	r3, r3, #196608	; 0x30000
 80047d8:	6013      	str	r3, [r2, #0]
					break;
 80047da:	e10a      	b.n	80049f2 <GPIO_VidPin_Mode+0xa36>
						else{Clear_Bit(GPIO_B->MODER,GPIO_MODER_MODER_8_ANALOG);}
 80047dc:	4a86      	ldr	r2, [pc, #536]	; (80049f8 <GPIO_VidPin_Mode+0xa3c>)
 80047de:	4b86      	ldr	r3, [pc, #536]	; (80049f8 <GPIO_VidPin_Mode+0xa3c>)
 80047e0:	681b      	ldr	r3, [r3, #0]
 80047e2:	f423 3340 	bic.w	r3, r3, #196608	; 0x30000
 80047e6:	6013      	str	r3, [r2, #0]
					break;
 80047e8:	e103      	b.n	80049f2 <GPIO_VidPin_Mode+0xa36>
				case (Pin_9):
						if(Copy_u8Mode==GPIO_Output){Set_Bit(GPIO_B->MODER,GPIO_MODER_MODER_9_OUTPUT);}
 80047ea:	797b      	ldrb	r3, [r7, #5]
 80047ec:	2b01      	cmp	r3, #1
 80047ee:	d106      	bne.n	80047fe <GPIO_VidPin_Mode+0x842>
 80047f0:	4a81      	ldr	r2, [pc, #516]	; (80049f8 <GPIO_VidPin_Mode+0xa3c>)
 80047f2:	4b81      	ldr	r3, [pc, #516]	; (80049f8 <GPIO_VidPin_Mode+0xa3c>)
 80047f4:	681b      	ldr	r3, [r3, #0]
 80047f6:	f443 2380 	orr.w	r3, r3, #262144	; 0x40000
 80047fa:	6013      	str	r3, [r2, #0]
						else if(Copy_u8Mode==GPIO_Alternate){Set_Bit(GPIO_B->MODER,GPIO_MODER_MODER_9_ALTERNATE);}
						else if(Copy_u8Mode==GPIO_Analog){Set_Bit(GPIO_B->MODER,GPIO_MODER_MODER_9_ANALOG);}
						else{Clear_Bit(GPIO_B->MODER,GPIO_MODER_MODER_9_ANALOG);}
					break;
 80047fc:	e0f9      	b.n	80049f2 <GPIO_VidPin_Mode+0xa36>
						else if(Copy_u8Mode==GPIO_Alternate){Set_Bit(GPIO_B->MODER,GPIO_MODER_MODER_9_ALTERNATE);}
 80047fe:	797b      	ldrb	r3, [r7, #5]
 8004800:	2b02      	cmp	r3, #2
 8004802:	d106      	bne.n	8004812 <GPIO_VidPin_Mode+0x856>
 8004804:	4a7c      	ldr	r2, [pc, #496]	; (80049f8 <GPIO_VidPin_Mode+0xa3c>)
 8004806:	4b7c      	ldr	r3, [pc, #496]	; (80049f8 <GPIO_VidPin_Mode+0xa3c>)
 8004808:	681b      	ldr	r3, [r3, #0]
 800480a:	f443 2300 	orr.w	r3, r3, #524288	; 0x80000
 800480e:	6013      	str	r3, [r2, #0]
					break;
 8004810:	e0ef      	b.n	80049f2 <GPIO_VidPin_Mode+0xa36>
						else if(Copy_u8Mode==GPIO_Analog){Set_Bit(GPIO_B->MODER,GPIO_MODER_MODER_9_ANALOG);}
 8004812:	797b      	ldrb	r3, [r7, #5]
 8004814:	2b03      	cmp	r3, #3
 8004816:	d106      	bne.n	8004826 <GPIO_VidPin_Mode+0x86a>
 8004818:	4a77      	ldr	r2, [pc, #476]	; (80049f8 <GPIO_VidPin_Mode+0xa3c>)
 800481a:	4b77      	ldr	r3, [pc, #476]	; (80049f8 <GPIO_VidPin_Mode+0xa3c>)
 800481c:	681b      	ldr	r3, [r3, #0]
 800481e:	f443 2340 	orr.w	r3, r3, #786432	; 0xc0000
 8004822:	6013      	str	r3, [r2, #0]
					break;
 8004824:	e0e5      	b.n	80049f2 <GPIO_VidPin_Mode+0xa36>
						else{Clear_Bit(GPIO_B->MODER,GPIO_MODER_MODER_9_ANALOG);}
 8004826:	4a74      	ldr	r2, [pc, #464]	; (80049f8 <GPIO_VidPin_Mode+0xa3c>)
 8004828:	4b73      	ldr	r3, [pc, #460]	; (80049f8 <GPIO_VidPin_Mode+0xa3c>)
 800482a:	681b      	ldr	r3, [r3, #0]
 800482c:	f423 2340 	bic.w	r3, r3, #786432	; 0xc0000
 8004830:	6013      	str	r3, [r2, #0]
					break;
 8004832:	e0de      	b.n	80049f2 <GPIO_VidPin_Mode+0xa36>
				case (Pin_10):
						if(Copy_u8Mode==GPIO_Output){Set_Bit(GPIO_B->MODER,GPIO_MODER_MODER_10_OUTPUT);}
 8004834:	797b      	ldrb	r3, [r7, #5]
 8004836:	2b01      	cmp	r3, #1
 8004838:	d106      	bne.n	8004848 <GPIO_VidPin_Mode+0x88c>
 800483a:	4a6f      	ldr	r2, [pc, #444]	; (80049f8 <GPIO_VidPin_Mode+0xa3c>)
 800483c:	4b6e      	ldr	r3, [pc, #440]	; (80049f8 <GPIO_VidPin_Mode+0xa3c>)
 800483e:	681b      	ldr	r3, [r3, #0]
 8004840:	f443 1380 	orr.w	r3, r3, #1048576	; 0x100000
 8004844:	6013      	str	r3, [r2, #0]
						else if(Copy_u8Mode==GPIO_Alternate){Set_Bit(GPIO_B->MODER,GPIO_MODER_MODER_10_ALTERNATE);}
						else if(Copy_u8Mode==GPIO_Analog){Set_Bit(GPIO_B->MODER,GPIO_MODER_MODER_10_ANALOG);}
						else{Clear_Bit(GPIO_B->MODER,GPIO_MODER_MODER_10_ANALOG);}
					break;
 8004846:	e0d4      	b.n	80049f2 <GPIO_VidPin_Mode+0xa36>
						else if(Copy_u8Mode==GPIO_Alternate){Set_Bit(GPIO_B->MODER,GPIO_MODER_MODER_10_ALTERNATE);}
 8004848:	797b      	ldrb	r3, [r7, #5]
 800484a:	2b02      	cmp	r3, #2
 800484c:	d106      	bne.n	800485c <GPIO_VidPin_Mode+0x8a0>
 800484e:	4a6a      	ldr	r2, [pc, #424]	; (80049f8 <GPIO_VidPin_Mode+0xa3c>)
 8004850:	4b69      	ldr	r3, [pc, #420]	; (80049f8 <GPIO_VidPin_Mode+0xa3c>)
 8004852:	681b      	ldr	r3, [r3, #0]
 8004854:	f443 1300 	orr.w	r3, r3, #2097152	; 0x200000
 8004858:	6013      	str	r3, [r2, #0]
					break;
 800485a:	e0ca      	b.n	80049f2 <GPIO_VidPin_Mode+0xa36>
						else if(Copy_u8Mode==GPIO_Analog){Set_Bit(GPIO_B->MODER,GPIO_MODER_MODER_10_ANALOG);}
 800485c:	797b      	ldrb	r3, [r7, #5]
 800485e:	2b03      	cmp	r3, #3
 8004860:	d106      	bne.n	8004870 <GPIO_VidPin_Mode+0x8b4>
 8004862:	4a65      	ldr	r2, [pc, #404]	; (80049f8 <GPIO_VidPin_Mode+0xa3c>)
 8004864:	4b64      	ldr	r3, [pc, #400]	; (80049f8 <GPIO_VidPin_Mode+0xa3c>)
 8004866:	681b      	ldr	r3, [r3, #0]
 8004868:	f443 1340 	orr.w	r3, r3, #3145728	; 0x300000
 800486c:	6013      	str	r3, [r2, #0]
					break;
 800486e:	e0c0      	b.n	80049f2 <GPIO_VidPin_Mode+0xa36>
						else{Clear_Bit(GPIO_B->MODER,GPIO_MODER_MODER_10_ANALOG);}
 8004870:	4a61      	ldr	r2, [pc, #388]	; (80049f8 <GPIO_VidPin_Mode+0xa3c>)
 8004872:	4b61      	ldr	r3, [pc, #388]	; (80049f8 <GPIO_VidPin_Mode+0xa3c>)
 8004874:	681b      	ldr	r3, [r3, #0]
 8004876:	f423 1340 	bic.w	r3, r3, #3145728	; 0x300000
 800487a:	6013      	str	r3, [r2, #0]
					break;
 800487c:	e0b9      	b.n	80049f2 <GPIO_VidPin_Mode+0xa36>
				case (Pin_11):
						if(Copy_u8Mode==GPIO_Output){Set_Bit(GPIO_B->MODER,GPIO_MODER_MODER_11_OUTPUT);}
 800487e:	797b      	ldrb	r3, [r7, #5]
 8004880:	2b01      	cmp	r3, #1
 8004882:	d106      	bne.n	8004892 <GPIO_VidPin_Mode+0x8d6>
 8004884:	4a5c      	ldr	r2, [pc, #368]	; (80049f8 <GPIO_VidPin_Mode+0xa3c>)
 8004886:	4b5c      	ldr	r3, [pc, #368]	; (80049f8 <GPIO_VidPin_Mode+0xa3c>)
 8004888:	681b      	ldr	r3, [r3, #0]
 800488a:	f443 0380 	orr.w	r3, r3, #4194304	; 0x400000
 800488e:	6013      	str	r3, [r2, #0]
						else if(Copy_u8Mode==GPIO_Alternate){Set_Bit(GPIO_B->MODER,GPIO_MODER_MODER_11_ALTERNATE);}
						else if(Copy_u8Mode==GPIO_Analog){Set_Bit(GPIO_B->MODER,GPIO_MODER_MODER_11_ANALOG);}
						else{Clear_Bit(GPIO_B->MODER,GPIO_MODER_MODER_11_ANALOG);}
					break;
 8004890:	e0af      	b.n	80049f2 <GPIO_VidPin_Mode+0xa36>
						else if(Copy_u8Mode==GPIO_Alternate){Set_Bit(GPIO_B->MODER,GPIO_MODER_MODER_11_ALTERNATE);}
 8004892:	797b      	ldrb	r3, [r7, #5]
 8004894:	2b02      	cmp	r3, #2
 8004896:	d106      	bne.n	80048a6 <GPIO_VidPin_Mode+0x8ea>
 8004898:	4a57      	ldr	r2, [pc, #348]	; (80049f8 <GPIO_VidPin_Mode+0xa3c>)
 800489a:	4b57      	ldr	r3, [pc, #348]	; (80049f8 <GPIO_VidPin_Mode+0xa3c>)
 800489c:	681b      	ldr	r3, [r3, #0]
 800489e:	f443 0300 	orr.w	r3, r3, #8388608	; 0x800000
 80048a2:	6013      	str	r3, [r2, #0]
					break;
 80048a4:	e0a5      	b.n	80049f2 <GPIO_VidPin_Mode+0xa36>
						else if(Copy_u8Mode==GPIO_Analog){Set_Bit(GPIO_B->MODER,GPIO_MODER_MODER_11_ANALOG);}
 80048a6:	797b      	ldrb	r3, [r7, #5]
 80048a8:	2b03      	cmp	r3, #3
 80048aa:	d106      	bne.n	80048ba <GPIO_VidPin_Mode+0x8fe>
 80048ac:	4a52      	ldr	r2, [pc, #328]	; (80049f8 <GPIO_VidPin_Mode+0xa3c>)
 80048ae:	4b52      	ldr	r3, [pc, #328]	; (80049f8 <GPIO_VidPin_Mode+0xa3c>)
 80048b0:	681b      	ldr	r3, [r3, #0]
 80048b2:	f443 0340 	orr.w	r3, r3, #12582912	; 0xc00000
 80048b6:	6013      	str	r3, [r2, #0]
					break;
 80048b8:	e09b      	b.n	80049f2 <GPIO_VidPin_Mode+0xa36>
						else{Clear_Bit(GPIO_B->MODER,GPIO_MODER_MODER_11_ANALOG);}
 80048ba:	4a4f      	ldr	r2, [pc, #316]	; (80049f8 <GPIO_VidPin_Mode+0xa3c>)
 80048bc:	4b4e      	ldr	r3, [pc, #312]	; (80049f8 <GPIO_VidPin_Mode+0xa3c>)
 80048be:	681b      	ldr	r3, [r3, #0]
 80048c0:	f423 0340 	bic.w	r3, r3, #12582912	; 0xc00000
 80048c4:	6013      	str	r3, [r2, #0]
					break;
 80048c6:	e094      	b.n	80049f2 <GPIO_VidPin_Mode+0xa36>
				case (Pin_12):
						if(Copy_u8Mode==GPIO_Output){Set_Bit(GPIO_B->MODER,GPIO_MODER_MODER_12_OUTPUT);}
 80048c8:	797b      	ldrb	r3, [r7, #5]
 80048ca:	2b01      	cmp	r3, #1
 80048cc:	d106      	bne.n	80048dc <GPIO_VidPin_Mode+0x920>
 80048ce:	4a4a      	ldr	r2, [pc, #296]	; (80049f8 <GPIO_VidPin_Mode+0xa3c>)
 80048d0:	4b49      	ldr	r3, [pc, #292]	; (80049f8 <GPIO_VidPin_Mode+0xa3c>)
 80048d2:	681b      	ldr	r3, [r3, #0]
 80048d4:	f043 7380 	orr.w	r3, r3, #16777216	; 0x1000000
 80048d8:	6013      	str	r3, [r2, #0]
						else if(Copy_u8Mode==GPIO_Alternate){Set_Bit(GPIO_B->MODER,GPIO_MODER_MODER_12_ALTERNATE);}
						else if(Copy_u8Mode==GPIO_Analog){Set_Bit(GPIO_B->MODER,GPIO_MODER_MODER_12_ANALOG);}
						else{Clear_Bit(GPIO_B->MODER,GPIO_MODER_MODER_12_ANALOG);}
					break;
 80048da:	e08a      	b.n	80049f2 <GPIO_VidPin_Mode+0xa36>
						else if(Copy_u8Mode==GPIO_Alternate){Set_Bit(GPIO_B->MODER,GPIO_MODER_MODER_12_ALTERNATE);}
 80048dc:	797b      	ldrb	r3, [r7, #5]
 80048de:	2b02      	cmp	r3, #2
 80048e0:	d106      	bne.n	80048f0 <GPIO_VidPin_Mode+0x934>
 80048e2:	4a45      	ldr	r2, [pc, #276]	; (80049f8 <GPIO_VidPin_Mode+0xa3c>)
 80048e4:	4b44      	ldr	r3, [pc, #272]	; (80049f8 <GPIO_VidPin_Mode+0xa3c>)
 80048e6:	681b      	ldr	r3, [r3, #0]
 80048e8:	f043 7300 	orr.w	r3, r3, #33554432	; 0x2000000
 80048ec:	6013      	str	r3, [r2, #0]
					break;
 80048ee:	e080      	b.n	80049f2 <GPIO_VidPin_Mode+0xa36>
						else if(Copy_u8Mode==GPIO_Analog){Set_Bit(GPIO_B->MODER,GPIO_MODER_MODER_12_ANALOG);}
 80048f0:	797b      	ldrb	r3, [r7, #5]
 80048f2:	2b03      	cmp	r3, #3
 80048f4:	d106      	bne.n	8004904 <GPIO_VidPin_Mode+0x948>
 80048f6:	4a40      	ldr	r2, [pc, #256]	; (80049f8 <GPIO_VidPin_Mode+0xa3c>)
 80048f8:	4b3f      	ldr	r3, [pc, #252]	; (80049f8 <GPIO_VidPin_Mode+0xa3c>)
 80048fa:	681b      	ldr	r3, [r3, #0]
 80048fc:	f043 7340 	orr.w	r3, r3, #50331648	; 0x3000000
 8004900:	6013      	str	r3, [r2, #0]
					break;
 8004902:	e076      	b.n	80049f2 <GPIO_VidPin_Mode+0xa36>
						else{Clear_Bit(GPIO_B->MODER,GPIO_MODER_MODER_12_ANALOG);}
 8004904:	4a3c      	ldr	r2, [pc, #240]	; (80049f8 <GPIO_VidPin_Mode+0xa3c>)
 8004906:	4b3c      	ldr	r3, [pc, #240]	; (80049f8 <GPIO_VidPin_Mode+0xa3c>)
 8004908:	681b      	ldr	r3, [r3, #0]
 800490a:	f023 7340 	bic.w	r3, r3, #50331648	; 0x3000000
 800490e:	6013      	str	r3, [r2, #0]
					break;
 8004910:	e06f      	b.n	80049f2 <GPIO_VidPin_Mode+0xa36>
				case (Pin_13):
						if(Copy_u8Mode==GPIO_Output){Set_Bit(GPIO_B->MODER,GPIO_MODER_MODER_13_OUTPUT);}
 8004912:	797b      	ldrb	r3, [r7, #5]
 8004914:	2b01      	cmp	r3, #1
 8004916:	d106      	bne.n	8004926 <GPIO_VidPin_Mode+0x96a>
 8004918:	4a37      	ldr	r2, [pc, #220]	; (80049f8 <GPIO_VidPin_Mode+0xa3c>)
 800491a:	4b37      	ldr	r3, [pc, #220]	; (80049f8 <GPIO_VidPin_Mode+0xa3c>)
 800491c:	681b      	ldr	r3, [r3, #0]
 800491e:	f043 6380 	orr.w	r3, r3, #67108864	; 0x4000000
 8004922:	6013      	str	r3, [r2, #0]
						else if(Copy_u8Mode==GPIO_Alternate){Set_Bit(GPIO_B->MODER,GPIO_MODER_MODER_13_ALTERNATE);}
						else if(Copy_u8Mode==GPIO_Analog){Set_Bit(GPIO_B->MODER,GPIO_MODER_MODER_13_ANALOG);}
						else{Clear_Bit(GPIO_B->MODER,GPIO_MODER_MODER_13_ANALOG);}
					break;
 8004924:	e065      	b.n	80049f2 <GPIO_VidPin_Mode+0xa36>
						else if(Copy_u8Mode==GPIO_Alternate){Set_Bit(GPIO_B->MODER,GPIO_MODER_MODER_13_ALTERNATE);}
 8004926:	797b      	ldrb	r3, [r7, #5]
 8004928:	2b02      	cmp	r3, #2
 800492a:	d106      	bne.n	800493a <GPIO_VidPin_Mode+0x97e>
 800492c:	4a32      	ldr	r2, [pc, #200]	; (80049f8 <GPIO_VidPin_Mode+0xa3c>)
 800492e:	4b32      	ldr	r3, [pc, #200]	; (80049f8 <GPIO_VidPin_Mode+0xa3c>)
 8004930:	681b      	ldr	r3, [r3, #0]
 8004932:	f043 6300 	orr.w	r3, r3, #134217728	; 0x8000000
 8004936:	6013      	str	r3, [r2, #0]
					break;
 8004938:	e05b      	b.n	80049f2 <GPIO_VidPin_Mode+0xa36>
						else if(Copy_u8Mode==GPIO_Analog){Set_Bit(GPIO_B->MODER,GPIO_MODER_MODER_13_ANALOG);}
 800493a:	797b      	ldrb	r3, [r7, #5]
 800493c:	2b03      	cmp	r3, #3
 800493e:	d106      	bne.n	800494e <GPIO_VidPin_Mode+0x992>
 8004940:	4a2d      	ldr	r2, [pc, #180]	; (80049f8 <GPIO_VidPin_Mode+0xa3c>)
 8004942:	4b2d      	ldr	r3, [pc, #180]	; (80049f8 <GPIO_VidPin_Mode+0xa3c>)
 8004944:	681b      	ldr	r3, [r3, #0]
 8004946:	f043 6340 	orr.w	r3, r3, #201326592	; 0xc000000
 800494a:	6013      	str	r3, [r2, #0]
					break;
 800494c:	e051      	b.n	80049f2 <GPIO_VidPin_Mode+0xa36>
						else{Clear_Bit(GPIO_B->MODER,GPIO_MODER_MODER_13_ANALOG);}
 800494e:	4a2a      	ldr	r2, [pc, #168]	; (80049f8 <GPIO_VidPin_Mode+0xa3c>)
 8004950:	4b29      	ldr	r3, [pc, #164]	; (80049f8 <GPIO_VidPin_Mode+0xa3c>)
 8004952:	681b      	ldr	r3, [r3, #0]
 8004954:	f023 6340 	bic.w	r3, r3, #201326592	; 0xc000000
 8004958:	6013      	str	r3, [r2, #0]
					break;
 800495a:	e04a      	b.n	80049f2 <GPIO_VidPin_Mode+0xa36>
				case (Pin_14):
						if(Copy_u8Mode==GPIO_Output){Set_Bit(GPIO_B->MODER,GPIO_MODER_MODER_14_OUTPUT);}
 800495c:	797b      	ldrb	r3, [r7, #5]
 800495e:	2b01      	cmp	r3, #1
 8004960:	d106      	bne.n	8004970 <GPIO_VidPin_Mode+0x9b4>
 8004962:	4a25      	ldr	r2, [pc, #148]	; (80049f8 <GPIO_VidPin_Mode+0xa3c>)
 8004964:	4b24      	ldr	r3, [pc, #144]	; (80049f8 <GPIO_VidPin_Mode+0xa3c>)
 8004966:	681b      	ldr	r3, [r3, #0]
 8004968:	f043 5380 	orr.w	r3, r3, #268435456	; 0x10000000
 800496c:	6013      	str	r3, [r2, #0]
						else if(Copy_u8Mode==GPIO_Alternate){Set_Bit(GPIO_B->MODER,GPIO_MODER_MODER_14_ALTERNATE);}
						else if(Copy_u8Mode==GPIO_Analog){Set_Bit(GPIO_B->MODER,GPIO_MODER_MODER_14_ANALOG);}
						else{Clear_Bit(GPIO_B->MODER,GPIO_MODER_MODER_14_ANALOG);}
					break;
 800496e:	e040      	b.n	80049f2 <GPIO_VidPin_Mode+0xa36>
						else if(Copy_u8Mode==GPIO_Alternate){Set_Bit(GPIO_B->MODER,GPIO_MODER_MODER_14_ALTERNATE);}
 8004970:	797b      	ldrb	r3, [r7, #5]
 8004972:	2b02      	cmp	r3, #2
 8004974:	d106      	bne.n	8004984 <GPIO_VidPin_Mode+0x9c8>
 8004976:	4a20      	ldr	r2, [pc, #128]	; (80049f8 <GPIO_VidPin_Mode+0xa3c>)
 8004978:	4b1f      	ldr	r3, [pc, #124]	; (80049f8 <GPIO_VidPin_Mode+0xa3c>)
 800497a:	681b      	ldr	r3, [r3, #0]
 800497c:	f043 5300 	orr.w	r3, r3, #536870912	; 0x20000000
 8004980:	6013      	str	r3, [r2, #0]
					break;
 8004982:	e036      	b.n	80049f2 <GPIO_VidPin_Mode+0xa36>
						else if(Copy_u8Mode==GPIO_Analog){Set_Bit(GPIO_B->MODER,GPIO_MODER_MODER_14_ANALOG);}
 8004984:	797b      	ldrb	r3, [r7, #5]
 8004986:	2b03      	cmp	r3, #3
 8004988:	d106      	bne.n	8004998 <GPIO_VidPin_Mode+0x9dc>
 800498a:	4a1b      	ldr	r2, [pc, #108]	; (80049f8 <GPIO_VidPin_Mode+0xa3c>)
 800498c:	4b1a      	ldr	r3, [pc, #104]	; (80049f8 <GPIO_VidPin_Mode+0xa3c>)
 800498e:	681b      	ldr	r3, [r3, #0]
 8004990:	f043 5340 	orr.w	r3, r3, #805306368	; 0x30000000
 8004994:	6013      	str	r3, [r2, #0]
					break;
 8004996:	e02c      	b.n	80049f2 <GPIO_VidPin_Mode+0xa36>
						else{Clear_Bit(GPIO_B->MODER,GPIO_MODER_MODER_14_ANALOG);}
 8004998:	4a17      	ldr	r2, [pc, #92]	; (80049f8 <GPIO_VidPin_Mode+0xa3c>)
 800499a:	4b17      	ldr	r3, [pc, #92]	; (80049f8 <GPIO_VidPin_Mode+0xa3c>)
 800499c:	681b      	ldr	r3, [r3, #0]
 800499e:	f023 5340 	bic.w	r3, r3, #805306368	; 0x30000000
 80049a2:	6013      	str	r3, [r2, #0]
					break;
 80049a4:	e025      	b.n	80049f2 <GPIO_VidPin_Mode+0xa36>
				case (Pin_15):
						if(Copy_u8Mode==GPIO_Output){Set_Bit(GPIO_B->MODER,GPIO_MODER_MODER_15_OUTPUT);}
 80049a6:	797b      	ldrb	r3, [r7, #5]
 80049a8:	2b01      	cmp	r3, #1
 80049aa:	d106      	bne.n	80049ba <GPIO_VidPin_Mode+0x9fe>
 80049ac:	4a12      	ldr	r2, [pc, #72]	; (80049f8 <GPIO_VidPin_Mode+0xa3c>)
 80049ae:	4b12      	ldr	r3, [pc, #72]	; (80049f8 <GPIO_VidPin_Mode+0xa3c>)
 80049b0:	681b      	ldr	r3, [r3, #0]
 80049b2:	f043 4380 	orr.w	r3, r3, #1073741824	; 0x40000000
 80049b6:	6013      	str	r3, [r2, #0]
						else if(Copy_u8Mode==GPIO_Alternate){Set_Bit(GPIO_B->MODER,GPIO_MODER_MODER_15_ALTERNATE);}
						else if(Copy_u8Mode==GPIO_Analog){Set_Bit(GPIO_B->MODER,GPIO_MODER_MODER_15_ANALOG);}
						else{Clear_Bit(GPIO_B->MODER,GPIO_MODER_MODER_15_ANALOG);}
					break;
 80049b8:	e01b      	b.n	80049f2 <GPIO_VidPin_Mode+0xa36>
						else if(Copy_u8Mode==GPIO_Alternate){Set_Bit(GPIO_B->MODER,GPIO_MODER_MODER_15_ALTERNATE);}
 80049ba:	797b      	ldrb	r3, [r7, #5]
 80049bc:	2b02      	cmp	r3, #2
 80049be:	d106      	bne.n	80049ce <GPIO_VidPin_Mode+0xa12>
 80049c0:	4a0d      	ldr	r2, [pc, #52]	; (80049f8 <GPIO_VidPin_Mode+0xa3c>)
 80049c2:	4b0d      	ldr	r3, [pc, #52]	; (80049f8 <GPIO_VidPin_Mode+0xa3c>)
 80049c4:	681b      	ldr	r3, [r3, #0]
 80049c6:	f043 4300 	orr.w	r3, r3, #2147483648	; 0x80000000
 80049ca:	6013      	str	r3, [r2, #0]
					break;
 80049cc:	e011      	b.n	80049f2 <GPIO_VidPin_Mode+0xa36>
						else if(Copy_u8Mode==GPIO_Analog){Set_Bit(GPIO_B->MODER,GPIO_MODER_MODER_15_ANALOG);}
 80049ce:	797b      	ldrb	r3, [r7, #5]
 80049d0:	2b03      	cmp	r3, #3
 80049d2:	d106      	bne.n	80049e2 <GPIO_VidPin_Mode+0xa26>
 80049d4:	4a08      	ldr	r2, [pc, #32]	; (80049f8 <GPIO_VidPin_Mode+0xa3c>)
 80049d6:	4b08      	ldr	r3, [pc, #32]	; (80049f8 <GPIO_VidPin_Mode+0xa3c>)
 80049d8:	681b      	ldr	r3, [r3, #0]
 80049da:	f043 4340 	orr.w	r3, r3, #3221225472	; 0xc0000000
 80049de:	6013      	str	r3, [r2, #0]
					break;
 80049e0:	e007      	b.n	80049f2 <GPIO_VidPin_Mode+0xa36>
						else{Clear_Bit(GPIO_B->MODER,GPIO_MODER_MODER_15_ANALOG);}
 80049e2:	4a05      	ldr	r2, [pc, #20]	; (80049f8 <GPIO_VidPin_Mode+0xa3c>)
 80049e4:	4b04      	ldr	r3, [pc, #16]	; (80049f8 <GPIO_VidPin_Mode+0xa3c>)
 80049e6:	681b      	ldr	r3, [r3, #0]
 80049e8:	f023 4340 	bic.w	r3, r3, #3221225472	; 0xc0000000
 80049ec:	6013      	str	r3, [r2, #0]
					break;
 80049ee:	e000      	b.n	80049f2 <GPIO_VidPin_Mode+0xa36>
				default:break;
 80049f0:	bf00      	nop
			}
			break;
 80049f2:	f000 bf7e 	b.w	80058f2 <GPIO_VidPin_Mode+0x1936>
 80049f6:	bf00      	nop
 80049f8:	40020400 	.word	0x40020400
		case(Port_C):
				switch (Copy_u8Pin)
 80049fc:	79bb      	ldrb	r3, [r7, #6]
 80049fe:	2b0f      	cmp	r3, #15
 8004a00:	f200 8276 	bhi.w	8004ef0 <GPIO_VidPin_Mode+0xf34>
 8004a04:	a201      	add	r2, pc, #4	; (adr r2, 8004a0c <GPIO_VidPin_Mode+0xa50>)
 8004a06:	f852 f023 	ldr.w	pc, [r2, r3, lsl #2]
 8004a0a:	bf00      	nop
 8004a0c:	08004a4d 	.word	0x08004a4d
 8004a10:	08004a97 	.word	0x08004a97
 8004a14:	08004ae1 	.word	0x08004ae1
 8004a18:	08004b2b 	.word	0x08004b2b
 8004a1c:	08004b75 	.word	0x08004b75
 8004a20:	08004bbf 	.word	0x08004bbf
 8004a24:	08004c09 	.word	0x08004c09
 8004a28:	08004c53 	.word	0x08004c53
 8004a2c:	08004ca1 	.word	0x08004ca1
 8004a30:	08004ceb 	.word	0x08004ceb
 8004a34:	08004d35 	.word	0x08004d35
 8004a38:	08004d7f 	.word	0x08004d7f
 8004a3c:	08004dc9 	.word	0x08004dc9
 8004a40:	08004e13 	.word	0x08004e13
 8004a44:	08004e5d 	.word	0x08004e5d
 8004a48:	08004ea7 	.word	0x08004ea7
				{
					case (Pin_0):
							if(Copy_u8Mode==GPIO_Output){Set_Bit(GPIO_C->MODER,GPIO_MODER_MODER_0_OUTPUT);}
 8004a4c:	797b      	ldrb	r3, [r7, #5]
 8004a4e:	2b01      	cmp	r3, #1
 8004a50:	d106      	bne.n	8004a60 <GPIO_VidPin_Mode+0xaa4>
 8004a52:	4a92      	ldr	r2, [pc, #584]	; (8004c9c <GPIO_VidPin_Mode+0xce0>)
 8004a54:	4b91      	ldr	r3, [pc, #580]	; (8004c9c <GPIO_VidPin_Mode+0xce0>)
 8004a56:	681b      	ldr	r3, [r3, #0]
 8004a58:	f043 0301 	orr.w	r3, r3, #1
 8004a5c:	6013      	str	r3, [r2, #0]
							else if(Copy_u8Mode==GPIO_Alternate){Set_Bit(GPIO_C->MODER,GPIO_MODER_MODER_0_ALTERNATE);}
							else if(Copy_u8Mode==GPIO_Analog){Set_Bit(GPIO_C->MODER,GPIO_MODER_MODER_0_ANALOG);}
							else{Clear_Bit(GPIO_C->MODER,GPIO_MODER_MODER_0_ANALOG);}
						break;
 8004a5e:	e248      	b.n	8004ef2 <GPIO_VidPin_Mode+0xf36>
							else if(Copy_u8Mode==GPIO_Alternate){Set_Bit(GPIO_C->MODER,GPIO_MODER_MODER_0_ALTERNATE);}
 8004a60:	797b      	ldrb	r3, [r7, #5]
 8004a62:	2b02      	cmp	r3, #2
 8004a64:	d106      	bne.n	8004a74 <GPIO_VidPin_Mode+0xab8>
 8004a66:	4a8d      	ldr	r2, [pc, #564]	; (8004c9c <GPIO_VidPin_Mode+0xce0>)
 8004a68:	4b8c      	ldr	r3, [pc, #560]	; (8004c9c <GPIO_VidPin_Mode+0xce0>)
 8004a6a:	681b      	ldr	r3, [r3, #0]
 8004a6c:	f043 0302 	orr.w	r3, r3, #2
 8004a70:	6013      	str	r3, [r2, #0]
						break;
 8004a72:	e23e      	b.n	8004ef2 <GPIO_VidPin_Mode+0xf36>
							else if(Copy_u8Mode==GPIO_Analog){Set_Bit(GPIO_C->MODER,GPIO_MODER_MODER_0_ANALOG);}
 8004a74:	797b      	ldrb	r3, [r7, #5]
 8004a76:	2b03      	cmp	r3, #3
 8004a78:	d106      	bne.n	8004a88 <GPIO_VidPin_Mode+0xacc>
 8004a7a:	4a88      	ldr	r2, [pc, #544]	; (8004c9c <GPIO_VidPin_Mode+0xce0>)
 8004a7c:	4b87      	ldr	r3, [pc, #540]	; (8004c9c <GPIO_VidPin_Mode+0xce0>)
 8004a7e:	681b      	ldr	r3, [r3, #0]
 8004a80:	f043 0303 	orr.w	r3, r3, #3
 8004a84:	6013      	str	r3, [r2, #0]
						break;
 8004a86:	e234      	b.n	8004ef2 <GPIO_VidPin_Mode+0xf36>
							else{Clear_Bit(GPIO_C->MODER,GPIO_MODER_MODER_0_ANALOG);}
 8004a88:	4a84      	ldr	r2, [pc, #528]	; (8004c9c <GPIO_VidPin_Mode+0xce0>)
 8004a8a:	4b84      	ldr	r3, [pc, #528]	; (8004c9c <GPIO_VidPin_Mode+0xce0>)
 8004a8c:	681b      	ldr	r3, [r3, #0]
 8004a8e:	f023 0303 	bic.w	r3, r3, #3
 8004a92:	6013      	str	r3, [r2, #0]
						break;
 8004a94:	e22d      	b.n	8004ef2 <GPIO_VidPin_Mode+0xf36>
					case (Pin_1):
							if(Copy_u8Mode==GPIO_Output){Set_Bit(GPIO_C->MODER,GPIO_MODER_MODER_1_OUTPUT);}
 8004a96:	797b      	ldrb	r3, [r7, #5]
 8004a98:	2b01      	cmp	r3, #1
 8004a9a:	d106      	bne.n	8004aaa <GPIO_VidPin_Mode+0xaee>
 8004a9c:	4a7f      	ldr	r2, [pc, #508]	; (8004c9c <GPIO_VidPin_Mode+0xce0>)
 8004a9e:	4b7f      	ldr	r3, [pc, #508]	; (8004c9c <GPIO_VidPin_Mode+0xce0>)
 8004aa0:	681b      	ldr	r3, [r3, #0]
 8004aa2:	f043 0304 	orr.w	r3, r3, #4
 8004aa6:	6013      	str	r3, [r2, #0]
							else if(Copy_u8Mode==GPIO_Alternate){Set_Bit(GPIO_C->MODER,GPIO_MODER_MODER_1_ALTERNATE);}
							else if(Copy_u8Mode==GPIO_Analog){Set_Bit(GPIO_C->MODER,GPIO_MODER_MODER_1_ANALOG);}
							else{Clear_Bit(GPIO_C->MODER,GPIO_MODER_MODER_1_ANALOG);}
						break;
 8004aa8:	e223      	b.n	8004ef2 <GPIO_VidPin_Mode+0xf36>
							else if(Copy_u8Mode==GPIO_Alternate){Set_Bit(GPIO_C->MODER,GPIO_MODER_MODER_1_ALTERNATE);}
 8004aaa:	797b      	ldrb	r3, [r7, #5]
 8004aac:	2b02      	cmp	r3, #2
 8004aae:	d106      	bne.n	8004abe <GPIO_VidPin_Mode+0xb02>
 8004ab0:	4a7a      	ldr	r2, [pc, #488]	; (8004c9c <GPIO_VidPin_Mode+0xce0>)
 8004ab2:	4b7a      	ldr	r3, [pc, #488]	; (8004c9c <GPIO_VidPin_Mode+0xce0>)
 8004ab4:	681b      	ldr	r3, [r3, #0]
 8004ab6:	f043 0308 	orr.w	r3, r3, #8
 8004aba:	6013      	str	r3, [r2, #0]
						break;
 8004abc:	e219      	b.n	8004ef2 <GPIO_VidPin_Mode+0xf36>
							else if(Copy_u8Mode==GPIO_Analog){Set_Bit(GPIO_C->MODER,GPIO_MODER_MODER_1_ANALOG);}
 8004abe:	797b      	ldrb	r3, [r7, #5]
 8004ac0:	2b03      	cmp	r3, #3
 8004ac2:	d106      	bne.n	8004ad2 <GPIO_VidPin_Mode+0xb16>
 8004ac4:	4a75      	ldr	r2, [pc, #468]	; (8004c9c <GPIO_VidPin_Mode+0xce0>)
 8004ac6:	4b75      	ldr	r3, [pc, #468]	; (8004c9c <GPIO_VidPin_Mode+0xce0>)
 8004ac8:	681b      	ldr	r3, [r3, #0]
 8004aca:	f043 030c 	orr.w	r3, r3, #12
 8004ace:	6013      	str	r3, [r2, #0]
						break;
 8004ad0:	e20f      	b.n	8004ef2 <GPIO_VidPin_Mode+0xf36>
							else{Clear_Bit(GPIO_C->MODER,GPIO_MODER_MODER_1_ANALOG);}
 8004ad2:	4a72      	ldr	r2, [pc, #456]	; (8004c9c <GPIO_VidPin_Mode+0xce0>)
 8004ad4:	4b71      	ldr	r3, [pc, #452]	; (8004c9c <GPIO_VidPin_Mode+0xce0>)
 8004ad6:	681b      	ldr	r3, [r3, #0]
 8004ad8:	f023 030c 	bic.w	r3, r3, #12
 8004adc:	6013      	str	r3, [r2, #0]
						break;
 8004ade:	e208      	b.n	8004ef2 <GPIO_VidPin_Mode+0xf36>
					case (Pin_2):
							if(Copy_u8Mode==GPIO_Output){Set_Bit(GPIO_C->MODER,GPIO_MODER_MODER_2_OUTPUT);}
 8004ae0:	797b      	ldrb	r3, [r7, #5]
 8004ae2:	2b01      	cmp	r3, #1
 8004ae4:	d106      	bne.n	8004af4 <GPIO_VidPin_Mode+0xb38>
 8004ae6:	4a6d      	ldr	r2, [pc, #436]	; (8004c9c <GPIO_VidPin_Mode+0xce0>)
 8004ae8:	4b6c      	ldr	r3, [pc, #432]	; (8004c9c <GPIO_VidPin_Mode+0xce0>)
 8004aea:	681b      	ldr	r3, [r3, #0]
 8004aec:	f043 0310 	orr.w	r3, r3, #16
 8004af0:	6013      	str	r3, [r2, #0]
							else if(Copy_u8Mode==GPIO_Alternate){Set_Bit(GPIO_C->MODER,GPIO_MODER_MODER_2_ALTERNATE);}
							else if(Copy_u8Mode==GPIO_Analog){Set_Bit(GPIO_C->MODER,GPIO_MODER_MODER_2_ANALOG);}
							else{Clear_Bit(GPIO_C->MODER,GPIO_MODER_MODER_2_ANALOG);}
						break;
 8004af2:	e1fe      	b.n	8004ef2 <GPIO_VidPin_Mode+0xf36>
							else if(Copy_u8Mode==GPIO_Alternate){Set_Bit(GPIO_C->MODER,GPIO_MODER_MODER_2_ALTERNATE);}
 8004af4:	797b      	ldrb	r3, [r7, #5]
 8004af6:	2b02      	cmp	r3, #2
 8004af8:	d106      	bne.n	8004b08 <GPIO_VidPin_Mode+0xb4c>
 8004afa:	4a68      	ldr	r2, [pc, #416]	; (8004c9c <GPIO_VidPin_Mode+0xce0>)
 8004afc:	4b67      	ldr	r3, [pc, #412]	; (8004c9c <GPIO_VidPin_Mode+0xce0>)
 8004afe:	681b      	ldr	r3, [r3, #0]
 8004b00:	f043 0320 	orr.w	r3, r3, #32
 8004b04:	6013      	str	r3, [r2, #0]
						break;
 8004b06:	e1f4      	b.n	8004ef2 <GPIO_VidPin_Mode+0xf36>
							else if(Copy_u8Mode==GPIO_Analog){Set_Bit(GPIO_C->MODER,GPIO_MODER_MODER_2_ANALOG);}
 8004b08:	797b      	ldrb	r3, [r7, #5]
 8004b0a:	2b03      	cmp	r3, #3
 8004b0c:	d106      	bne.n	8004b1c <GPIO_VidPin_Mode+0xb60>
 8004b0e:	4a63      	ldr	r2, [pc, #396]	; (8004c9c <GPIO_VidPin_Mode+0xce0>)
 8004b10:	4b62      	ldr	r3, [pc, #392]	; (8004c9c <GPIO_VidPin_Mode+0xce0>)
 8004b12:	681b      	ldr	r3, [r3, #0]
 8004b14:	f043 0330 	orr.w	r3, r3, #48	; 0x30
 8004b18:	6013      	str	r3, [r2, #0]
						break;
 8004b1a:	e1ea      	b.n	8004ef2 <GPIO_VidPin_Mode+0xf36>
							else{Clear_Bit(GPIO_C->MODER,GPIO_MODER_MODER_2_ANALOG);}
 8004b1c:	4a5f      	ldr	r2, [pc, #380]	; (8004c9c <GPIO_VidPin_Mode+0xce0>)
 8004b1e:	4b5f      	ldr	r3, [pc, #380]	; (8004c9c <GPIO_VidPin_Mode+0xce0>)
 8004b20:	681b      	ldr	r3, [r3, #0]
 8004b22:	f023 0330 	bic.w	r3, r3, #48	; 0x30
 8004b26:	6013      	str	r3, [r2, #0]
						break;
 8004b28:	e1e3      	b.n	8004ef2 <GPIO_VidPin_Mode+0xf36>
					case (Pin_3):
							if(Copy_u8Mode==GPIO_Output){Set_Bit(GPIO_C->MODER,GPIO_MODER_MODER_3_OUTPUT);}
 8004b2a:	797b      	ldrb	r3, [r7, #5]
 8004b2c:	2b01      	cmp	r3, #1
 8004b2e:	d106      	bne.n	8004b3e <GPIO_VidPin_Mode+0xb82>
 8004b30:	4a5a      	ldr	r2, [pc, #360]	; (8004c9c <GPIO_VidPin_Mode+0xce0>)
 8004b32:	4b5a      	ldr	r3, [pc, #360]	; (8004c9c <GPIO_VidPin_Mode+0xce0>)
 8004b34:	681b      	ldr	r3, [r3, #0]
 8004b36:	f043 0340 	orr.w	r3, r3, #64	; 0x40
 8004b3a:	6013      	str	r3, [r2, #0]
							else if(Copy_u8Mode==GPIO_Alternate){Set_Bit(GPIO_C->MODER,GPIO_MODER_MODER_3_ALTERNATE);}
							else if(Copy_u8Mode==GPIO_Analog){Set_Bit(GPIO_C->MODER,GPIO_MODER_MODER_3_ANALOG);}
							else{Clear_Bit(GPIO_C->MODER,GPIO_MODER_MODER_3_ANALOG);}
						break;
 8004b3c:	e1d9      	b.n	8004ef2 <GPIO_VidPin_Mode+0xf36>
							else if(Copy_u8Mode==GPIO_Alternate){Set_Bit(GPIO_C->MODER,GPIO_MODER_MODER_3_ALTERNATE);}
 8004b3e:	797b      	ldrb	r3, [r7, #5]
 8004b40:	2b02      	cmp	r3, #2
 8004b42:	d106      	bne.n	8004b52 <GPIO_VidPin_Mode+0xb96>
 8004b44:	4a55      	ldr	r2, [pc, #340]	; (8004c9c <GPIO_VidPin_Mode+0xce0>)
 8004b46:	4b55      	ldr	r3, [pc, #340]	; (8004c9c <GPIO_VidPin_Mode+0xce0>)
 8004b48:	681b      	ldr	r3, [r3, #0]
 8004b4a:	f043 0380 	orr.w	r3, r3, #128	; 0x80
 8004b4e:	6013      	str	r3, [r2, #0]
						break;
 8004b50:	e1cf      	b.n	8004ef2 <GPIO_VidPin_Mode+0xf36>
							else if(Copy_u8Mode==GPIO_Analog){Set_Bit(GPIO_C->MODER,GPIO_MODER_MODER_3_ANALOG);}
 8004b52:	797b      	ldrb	r3, [r7, #5]
 8004b54:	2b03      	cmp	r3, #3
 8004b56:	d106      	bne.n	8004b66 <GPIO_VidPin_Mode+0xbaa>
 8004b58:	4a50      	ldr	r2, [pc, #320]	; (8004c9c <GPIO_VidPin_Mode+0xce0>)
 8004b5a:	4b50      	ldr	r3, [pc, #320]	; (8004c9c <GPIO_VidPin_Mode+0xce0>)
 8004b5c:	681b      	ldr	r3, [r3, #0]
 8004b5e:	f043 03c0 	orr.w	r3, r3, #192	; 0xc0
 8004b62:	6013      	str	r3, [r2, #0]
						break;
 8004b64:	e1c5      	b.n	8004ef2 <GPIO_VidPin_Mode+0xf36>
							else{Clear_Bit(GPIO_C->MODER,GPIO_MODER_MODER_3_ANALOG);}
 8004b66:	4a4d      	ldr	r2, [pc, #308]	; (8004c9c <GPIO_VidPin_Mode+0xce0>)
 8004b68:	4b4c      	ldr	r3, [pc, #304]	; (8004c9c <GPIO_VidPin_Mode+0xce0>)
 8004b6a:	681b      	ldr	r3, [r3, #0]
 8004b6c:	f023 03c0 	bic.w	r3, r3, #192	; 0xc0
 8004b70:	6013      	str	r3, [r2, #0]
						break;
 8004b72:	e1be      	b.n	8004ef2 <GPIO_VidPin_Mode+0xf36>
					case (Pin_4):
							if(Copy_u8Mode==GPIO_Output){Set_Bit(GPIO_C->MODER,GPIO_MODER_MODER_4_OUTPUT);}
 8004b74:	797b      	ldrb	r3, [r7, #5]
 8004b76:	2b01      	cmp	r3, #1
 8004b78:	d106      	bne.n	8004b88 <GPIO_VidPin_Mode+0xbcc>
 8004b7a:	4a48      	ldr	r2, [pc, #288]	; (8004c9c <GPIO_VidPin_Mode+0xce0>)
 8004b7c:	4b47      	ldr	r3, [pc, #284]	; (8004c9c <GPIO_VidPin_Mode+0xce0>)
 8004b7e:	681b      	ldr	r3, [r3, #0]
 8004b80:	f443 7380 	orr.w	r3, r3, #256	; 0x100
 8004b84:	6013      	str	r3, [r2, #0]
							else if(Copy_u8Mode==GPIO_Alternate){Set_Bit(GPIO_C->MODER,GPIO_MODER_MODER_4_ALTERNATE);}
							else if(Copy_u8Mode==GPIO_Analog){Set_Bit(GPIO_C->MODER,GPIO_MODER_MODER_4_ANALOG);}
							else{Clear_Bit(GPIO_C->MODER,GPIO_MODER_MODER_4_ANALOG);}
						break;
 8004b86:	e1b4      	b.n	8004ef2 <GPIO_VidPin_Mode+0xf36>
							else if(Copy_u8Mode==GPIO_Alternate){Set_Bit(GPIO_C->MODER,GPIO_MODER_MODER_4_ALTERNATE);}
 8004b88:	797b      	ldrb	r3, [r7, #5]
 8004b8a:	2b02      	cmp	r3, #2
 8004b8c:	d106      	bne.n	8004b9c <GPIO_VidPin_Mode+0xbe0>
 8004b8e:	4a43      	ldr	r2, [pc, #268]	; (8004c9c <GPIO_VidPin_Mode+0xce0>)
 8004b90:	4b42      	ldr	r3, [pc, #264]	; (8004c9c <GPIO_VidPin_Mode+0xce0>)
 8004b92:	681b      	ldr	r3, [r3, #0]
 8004b94:	f443 7300 	orr.w	r3, r3, #512	; 0x200
 8004b98:	6013      	str	r3, [r2, #0]
						break;
 8004b9a:	e1aa      	b.n	8004ef2 <GPIO_VidPin_Mode+0xf36>
							else if(Copy_u8Mode==GPIO_Analog){Set_Bit(GPIO_C->MODER,GPIO_MODER_MODER_4_ANALOG);}
 8004b9c:	797b      	ldrb	r3, [r7, #5]
 8004b9e:	2b03      	cmp	r3, #3
 8004ba0:	d106      	bne.n	8004bb0 <GPIO_VidPin_Mode+0xbf4>
 8004ba2:	4a3e      	ldr	r2, [pc, #248]	; (8004c9c <GPIO_VidPin_Mode+0xce0>)
 8004ba4:	4b3d      	ldr	r3, [pc, #244]	; (8004c9c <GPIO_VidPin_Mode+0xce0>)
 8004ba6:	681b      	ldr	r3, [r3, #0]
 8004ba8:	f443 7340 	orr.w	r3, r3, #768	; 0x300
 8004bac:	6013      	str	r3, [r2, #0]
						break;
 8004bae:	e1a0      	b.n	8004ef2 <GPIO_VidPin_Mode+0xf36>
							else{Clear_Bit(GPIO_C->MODER,GPIO_MODER_MODER_4_ANALOG);}
 8004bb0:	4a3a      	ldr	r2, [pc, #232]	; (8004c9c <GPIO_VidPin_Mode+0xce0>)
 8004bb2:	4b3a      	ldr	r3, [pc, #232]	; (8004c9c <GPIO_VidPin_Mode+0xce0>)
 8004bb4:	681b      	ldr	r3, [r3, #0]
 8004bb6:	f423 7340 	bic.w	r3, r3, #768	; 0x300
 8004bba:	6013      	str	r3, [r2, #0]
						break;
 8004bbc:	e199      	b.n	8004ef2 <GPIO_VidPin_Mode+0xf36>
					case (Pin_5):
							if(Copy_u8Mode==GPIO_Output){Set_Bit(GPIO_C->MODER,GPIO_MODER_MODER_5_OUTPUT);}
 8004bbe:	797b      	ldrb	r3, [r7, #5]
 8004bc0:	2b01      	cmp	r3, #1
 8004bc2:	d106      	bne.n	8004bd2 <GPIO_VidPin_Mode+0xc16>
 8004bc4:	4a35      	ldr	r2, [pc, #212]	; (8004c9c <GPIO_VidPin_Mode+0xce0>)
 8004bc6:	4b35      	ldr	r3, [pc, #212]	; (8004c9c <GPIO_VidPin_Mode+0xce0>)
 8004bc8:	681b      	ldr	r3, [r3, #0]
 8004bca:	f443 6380 	orr.w	r3, r3, #1024	; 0x400
 8004bce:	6013      	str	r3, [r2, #0]
							else if(Copy_u8Mode==GPIO_Alternate){Set_Bit(GPIO_C->MODER,GPIO_MODER_MODER_5_ALTERNATE);}
							else if(Copy_u8Mode==GPIO_Analog){Set_Bit(GPIO_C->MODER,GPIO_MODER_MODER_5_ANALOG);}
							else{Clear_Bit(GPIO_C->MODER,GPIO_MODER_MODER_5_ANALOG);}
						break;
 8004bd0:	e18f      	b.n	8004ef2 <GPIO_VidPin_Mode+0xf36>
							else if(Copy_u8Mode==GPIO_Alternate){Set_Bit(GPIO_C->MODER,GPIO_MODER_MODER_5_ALTERNATE);}
 8004bd2:	797b      	ldrb	r3, [r7, #5]
 8004bd4:	2b02      	cmp	r3, #2
 8004bd6:	d106      	bne.n	8004be6 <GPIO_VidPin_Mode+0xc2a>
 8004bd8:	4a30      	ldr	r2, [pc, #192]	; (8004c9c <GPIO_VidPin_Mode+0xce0>)
 8004bda:	4b30      	ldr	r3, [pc, #192]	; (8004c9c <GPIO_VidPin_Mode+0xce0>)
 8004bdc:	681b      	ldr	r3, [r3, #0]
 8004bde:	f443 6300 	orr.w	r3, r3, #2048	; 0x800
 8004be2:	6013      	str	r3, [r2, #0]
						break;
 8004be4:	e185      	b.n	8004ef2 <GPIO_VidPin_Mode+0xf36>
							else if(Copy_u8Mode==GPIO_Analog){Set_Bit(GPIO_C->MODER,GPIO_MODER_MODER_5_ANALOG);}
 8004be6:	797b      	ldrb	r3, [r7, #5]
 8004be8:	2b03      	cmp	r3, #3
 8004bea:	d106      	bne.n	8004bfa <GPIO_VidPin_Mode+0xc3e>
 8004bec:	4a2b      	ldr	r2, [pc, #172]	; (8004c9c <GPIO_VidPin_Mode+0xce0>)
 8004bee:	4b2b      	ldr	r3, [pc, #172]	; (8004c9c <GPIO_VidPin_Mode+0xce0>)
 8004bf0:	681b      	ldr	r3, [r3, #0]
 8004bf2:	f443 6340 	orr.w	r3, r3, #3072	; 0xc00
 8004bf6:	6013      	str	r3, [r2, #0]
						break;
 8004bf8:	e17b      	b.n	8004ef2 <GPIO_VidPin_Mode+0xf36>
							else{Clear_Bit(GPIO_C->MODER,GPIO_MODER_MODER_5_ANALOG);}
 8004bfa:	4a28      	ldr	r2, [pc, #160]	; (8004c9c <GPIO_VidPin_Mode+0xce0>)
 8004bfc:	4b27      	ldr	r3, [pc, #156]	; (8004c9c <GPIO_VidPin_Mode+0xce0>)
 8004bfe:	681b      	ldr	r3, [r3, #0]
 8004c00:	f423 6340 	bic.w	r3, r3, #3072	; 0xc00
 8004c04:	6013      	str	r3, [r2, #0]
						break;
 8004c06:	e174      	b.n	8004ef2 <GPIO_VidPin_Mode+0xf36>
					case (Pin_6):
							if(Copy_u8Mode==GPIO_Output){Set_Bit(GPIO_C->MODER,GPIO_MODER_MODER_6_OUTPUT);}
 8004c08:	797b      	ldrb	r3, [r7, #5]
 8004c0a:	2b01      	cmp	r3, #1
 8004c0c:	d106      	bne.n	8004c1c <GPIO_VidPin_Mode+0xc60>
 8004c0e:	4a23      	ldr	r2, [pc, #140]	; (8004c9c <GPIO_VidPin_Mode+0xce0>)
 8004c10:	4b22      	ldr	r3, [pc, #136]	; (8004c9c <GPIO_VidPin_Mode+0xce0>)
 8004c12:	681b      	ldr	r3, [r3, #0]
 8004c14:	f443 5380 	orr.w	r3, r3, #4096	; 0x1000
 8004c18:	6013      	str	r3, [r2, #0]
							else if(Copy_u8Mode==GPIO_Alternate){Set_Bit(GPIO_C->MODER,GPIO_MODER_MODER_6_ALTERNATE);}
							else if(Copy_u8Mode==GPIO_Analog){Set_Bit(GPIO_C->MODER,GPIO_MODER_MODER_6_ANALOG);}
							else{Clear_Bit(GPIO_C->MODER,GPIO_MODER_MODER_6_ANALOG);}
						break;
 8004c1a:	e16a      	b.n	8004ef2 <GPIO_VidPin_Mode+0xf36>
							else if(Copy_u8Mode==GPIO_Alternate){Set_Bit(GPIO_C->MODER,GPIO_MODER_MODER_6_ALTERNATE);}
 8004c1c:	797b      	ldrb	r3, [r7, #5]
 8004c1e:	2b02      	cmp	r3, #2
 8004c20:	d106      	bne.n	8004c30 <GPIO_VidPin_Mode+0xc74>
 8004c22:	4a1e      	ldr	r2, [pc, #120]	; (8004c9c <GPIO_VidPin_Mode+0xce0>)
 8004c24:	4b1d      	ldr	r3, [pc, #116]	; (8004c9c <GPIO_VidPin_Mode+0xce0>)
 8004c26:	681b      	ldr	r3, [r3, #0]
 8004c28:	f443 5300 	orr.w	r3, r3, #8192	; 0x2000
 8004c2c:	6013      	str	r3, [r2, #0]
						break;
 8004c2e:	e160      	b.n	8004ef2 <GPIO_VidPin_Mode+0xf36>
							else if(Copy_u8Mode==GPIO_Analog){Set_Bit(GPIO_C->MODER,GPIO_MODER_MODER_6_ANALOG);}
 8004c30:	797b      	ldrb	r3, [r7, #5]
 8004c32:	2b03      	cmp	r3, #3
 8004c34:	d106      	bne.n	8004c44 <GPIO_VidPin_Mode+0xc88>
 8004c36:	4a19      	ldr	r2, [pc, #100]	; (8004c9c <GPIO_VidPin_Mode+0xce0>)
 8004c38:	4b18      	ldr	r3, [pc, #96]	; (8004c9c <GPIO_VidPin_Mode+0xce0>)
 8004c3a:	681b      	ldr	r3, [r3, #0]
 8004c3c:	f443 5340 	orr.w	r3, r3, #12288	; 0x3000
 8004c40:	6013      	str	r3, [r2, #0]
						break;
 8004c42:	e156      	b.n	8004ef2 <GPIO_VidPin_Mode+0xf36>
							else{Clear_Bit(GPIO_C->MODER,GPIO_MODER_MODER_6_ANALOG);}
 8004c44:	4a15      	ldr	r2, [pc, #84]	; (8004c9c <GPIO_VidPin_Mode+0xce0>)
 8004c46:	4b15      	ldr	r3, [pc, #84]	; (8004c9c <GPIO_VidPin_Mode+0xce0>)
 8004c48:	681b      	ldr	r3, [r3, #0]
 8004c4a:	f423 5340 	bic.w	r3, r3, #12288	; 0x3000
 8004c4e:	6013      	str	r3, [r2, #0]
						break;
 8004c50:	e14f      	b.n	8004ef2 <GPIO_VidPin_Mode+0xf36>
					case (Pin_7):
							if(Copy_u8Mode==GPIO_Output){Set_Bit(GPIO_C->MODER,GPIO_MODER_MODER_7_OUTPUT);}
 8004c52:	797b      	ldrb	r3, [r7, #5]
 8004c54:	2b01      	cmp	r3, #1
 8004c56:	d106      	bne.n	8004c66 <GPIO_VidPin_Mode+0xcaa>
 8004c58:	4a10      	ldr	r2, [pc, #64]	; (8004c9c <GPIO_VidPin_Mode+0xce0>)
 8004c5a:	4b10      	ldr	r3, [pc, #64]	; (8004c9c <GPIO_VidPin_Mode+0xce0>)
 8004c5c:	681b      	ldr	r3, [r3, #0]
 8004c5e:	f443 4380 	orr.w	r3, r3, #16384	; 0x4000
 8004c62:	6013      	str	r3, [r2, #0]
							else if(Copy_u8Mode==GPIO_Alternate){Set_Bit(GPIO_C->MODER,GPIO_MODER_MODER_7_ALTERNATE);}
							else if(Copy_u8Mode==GPIO_Analog){Set_Bit(GPIO_C->MODER,GPIO_MODER_MODER_7_ANALOG);}
							else{Clear_Bit(GPIO_C->MODER,GPIO_MODER_MODER_7_ANALOG);}
						break;
 8004c64:	e145      	b.n	8004ef2 <GPIO_VidPin_Mode+0xf36>
							else if(Copy_u8Mode==GPIO_Alternate){Set_Bit(GPIO_C->MODER,GPIO_MODER_MODER_7_ALTERNATE);}
 8004c66:	797b      	ldrb	r3, [r7, #5]
 8004c68:	2b02      	cmp	r3, #2
 8004c6a:	d106      	bne.n	8004c7a <GPIO_VidPin_Mode+0xcbe>
 8004c6c:	4a0b      	ldr	r2, [pc, #44]	; (8004c9c <GPIO_VidPin_Mode+0xce0>)
 8004c6e:	4b0b      	ldr	r3, [pc, #44]	; (8004c9c <GPIO_VidPin_Mode+0xce0>)
 8004c70:	681b      	ldr	r3, [r3, #0]
 8004c72:	f443 4300 	orr.w	r3, r3, #32768	; 0x8000
 8004c76:	6013      	str	r3, [r2, #0]
						break;
 8004c78:	e13b      	b.n	8004ef2 <GPIO_VidPin_Mode+0xf36>
							else if(Copy_u8Mode==GPIO_Analog){Set_Bit(GPIO_C->MODER,GPIO_MODER_MODER_7_ANALOG);}
 8004c7a:	797b      	ldrb	r3, [r7, #5]
 8004c7c:	2b03      	cmp	r3, #3
 8004c7e:	d106      	bne.n	8004c8e <GPIO_VidPin_Mode+0xcd2>
 8004c80:	4a06      	ldr	r2, [pc, #24]	; (8004c9c <GPIO_VidPin_Mode+0xce0>)
 8004c82:	4b06      	ldr	r3, [pc, #24]	; (8004c9c <GPIO_VidPin_Mode+0xce0>)
 8004c84:	681b      	ldr	r3, [r3, #0]
 8004c86:	f443 4340 	orr.w	r3, r3, #49152	; 0xc000
 8004c8a:	6013      	str	r3, [r2, #0]
						break;
 8004c8c:	e131      	b.n	8004ef2 <GPIO_VidPin_Mode+0xf36>
							else{Clear_Bit(GPIO_C->MODER,GPIO_MODER_MODER_7_ANALOG);}
 8004c8e:	4a03      	ldr	r2, [pc, #12]	; (8004c9c <GPIO_VidPin_Mode+0xce0>)
 8004c90:	4b02      	ldr	r3, [pc, #8]	; (8004c9c <GPIO_VidPin_Mode+0xce0>)
 8004c92:	681b      	ldr	r3, [r3, #0]
 8004c94:	f423 4340 	bic.w	r3, r3, #49152	; 0xc000
 8004c98:	6013      	str	r3, [r2, #0]
						break;
 8004c9a:	e12a      	b.n	8004ef2 <GPIO_VidPin_Mode+0xf36>
 8004c9c:	40020800 	.word	0x40020800
					case (Pin_8):
							if(Copy_u8Mode==GPIO_Output){Set_Bit(GPIO_C->MODER,GPIO_MODER_MODER_8_OUTPUT);}
 8004ca0:	797b      	ldrb	r3, [r7, #5]
 8004ca2:	2b01      	cmp	r3, #1
 8004ca4:	d106      	bne.n	8004cb4 <GPIO_VidPin_Mode+0xcf8>
 8004ca6:	4a94      	ldr	r2, [pc, #592]	; (8004ef8 <GPIO_VidPin_Mode+0xf3c>)
 8004ca8:	4b93      	ldr	r3, [pc, #588]	; (8004ef8 <GPIO_VidPin_Mode+0xf3c>)
 8004caa:	681b      	ldr	r3, [r3, #0]
 8004cac:	f443 3380 	orr.w	r3, r3, #65536	; 0x10000
 8004cb0:	6013      	str	r3, [r2, #0]
							else if(Copy_u8Mode==GPIO_Alternate){Set_Bit(GPIO_C->MODER,GPIO_MODER_MODER_8_ALTERNATE);}
							else if(Copy_u8Mode==GPIO_Analog){Set_Bit(GPIO_C->MODER,GPIO_MODER_MODER_8_ANALOG);}
							else{Clear_Bit(GPIO_C->MODER,GPIO_MODER_MODER_8_ANALOG);}
						break;
 8004cb2:	e11e      	b.n	8004ef2 <GPIO_VidPin_Mode+0xf36>
							else if(Copy_u8Mode==GPIO_Alternate){Set_Bit(GPIO_C->MODER,GPIO_MODER_MODER_8_ALTERNATE);}
 8004cb4:	797b      	ldrb	r3, [r7, #5]
 8004cb6:	2b02      	cmp	r3, #2
 8004cb8:	d106      	bne.n	8004cc8 <GPIO_VidPin_Mode+0xd0c>
 8004cba:	4a8f      	ldr	r2, [pc, #572]	; (8004ef8 <GPIO_VidPin_Mode+0xf3c>)
 8004cbc:	4b8e      	ldr	r3, [pc, #568]	; (8004ef8 <GPIO_VidPin_Mode+0xf3c>)
 8004cbe:	681b      	ldr	r3, [r3, #0]
 8004cc0:	f443 3300 	orr.w	r3, r3, #131072	; 0x20000
 8004cc4:	6013      	str	r3, [r2, #0]
						break;
 8004cc6:	e114      	b.n	8004ef2 <GPIO_VidPin_Mode+0xf36>
							else if(Copy_u8Mode==GPIO_Analog){Set_Bit(GPIO_C->MODER,GPIO_MODER_MODER_8_ANALOG);}
 8004cc8:	797b      	ldrb	r3, [r7, #5]
 8004cca:	2b03      	cmp	r3, #3
 8004ccc:	d106      	bne.n	8004cdc <GPIO_VidPin_Mode+0xd20>
 8004cce:	4a8a      	ldr	r2, [pc, #552]	; (8004ef8 <GPIO_VidPin_Mode+0xf3c>)
 8004cd0:	4b89      	ldr	r3, [pc, #548]	; (8004ef8 <GPIO_VidPin_Mode+0xf3c>)
 8004cd2:	681b      	ldr	r3, [r3, #0]
 8004cd4:	f443 3340 	orr.w	r3, r3, #196608	; 0x30000
 8004cd8:	6013      	str	r3, [r2, #0]
						break;
 8004cda:	e10a      	b.n	8004ef2 <GPIO_VidPin_Mode+0xf36>
							else{Clear_Bit(GPIO_C->MODER,GPIO_MODER_MODER_8_ANALOG);}
 8004cdc:	4a86      	ldr	r2, [pc, #536]	; (8004ef8 <GPIO_VidPin_Mode+0xf3c>)
 8004cde:	4b86      	ldr	r3, [pc, #536]	; (8004ef8 <GPIO_VidPin_Mode+0xf3c>)
 8004ce0:	681b      	ldr	r3, [r3, #0]
 8004ce2:	f423 3340 	bic.w	r3, r3, #196608	; 0x30000
 8004ce6:	6013      	str	r3, [r2, #0]
						break;
 8004ce8:	e103      	b.n	8004ef2 <GPIO_VidPin_Mode+0xf36>
					case (Pin_9):
							if(Copy_u8Mode==GPIO_Output){Set_Bit(GPIO_C->MODER,GPIO_MODER_MODER_9_OUTPUT);}
 8004cea:	797b      	ldrb	r3, [r7, #5]
 8004cec:	2b01      	cmp	r3, #1
 8004cee:	d106      	bne.n	8004cfe <GPIO_VidPin_Mode+0xd42>
 8004cf0:	4a81      	ldr	r2, [pc, #516]	; (8004ef8 <GPIO_VidPin_Mode+0xf3c>)
 8004cf2:	4b81      	ldr	r3, [pc, #516]	; (8004ef8 <GPIO_VidPin_Mode+0xf3c>)
 8004cf4:	681b      	ldr	r3, [r3, #0]
 8004cf6:	f443 2380 	orr.w	r3, r3, #262144	; 0x40000
 8004cfa:	6013      	str	r3, [r2, #0]
							else if(Copy_u8Mode==GPIO_Alternate){Set_Bit(GPIO_C->MODER,GPIO_MODER_MODER_9_ALTERNATE);}
							else if(Copy_u8Mode==GPIO_Analog){Set_Bit(GPIO_C->MODER,GPIO_MODER_MODER_9_ANALOG);}
							else{Clear_Bit(GPIO_C->MODER,GPIO_MODER_MODER_9_ANALOG);}
						break;
 8004cfc:	e0f9      	b.n	8004ef2 <GPIO_VidPin_Mode+0xf36>
							else if(Copy_u8Mode==GPIO_Alternate){Set_Bit(GPIO_C->MODER,GPIO_MODER_MODER_9_ALTERNATE);}
 8004cfe:	797b      	ldrb	r3, [r7, #5]
 8004d00:	2b02      	cmp	r3, #2
 8004d02:	d106      	bne.n	8004d12 <GPIO_VidPin_Mode+0xd56>
 8004d04:	4a7c      	ldr	r2, [pc, #496]	; (8004ef8 <GPIO_VidPin_Mode+0xf3c>)
 8004d06:	4b7c      	ldr	r3, [pc, #496]	; (8004ef8 <GPIO_VidPin_Mode+0xf3c>)
 8004d08:	681b      	ldr	r3, [r3, #0]
 8004d0a:	f443 2300 	orr.w	r3, r3, #524288	; 0x80000
 8004d0e:	6013      	str	r3, [r2, #0]
						break;
 8004d10:	e0ef      	b.n	8004ef2 <GPIO_VidPin_Mode+0xf36>
							else if(Copy_u8Mode==GPIO_Analog){Set_Bit(GPIO_C->MODER,GPIO_MODER_MODER_9_ANALOG);}
 8004d12:	797b      	ldrb	r3, [r7, #5]
 8004d14:	2b03      	cmp	r3, #3
 8004d16:	d106      	bne.n	8004d26 <GPIO_VidPin_Mode+0xd6a>
 8004d18:	4a77      	ldr	r2, [pc, #476]	; (8004ef8 <GPIO_VidPin_Mode+0xf3c>)
 8004d1a:	4b77      	ldr	r3, [pc, #476]	; (8004ef8 <GPIO_VidPin_Mode+0xf3c>)
 8004d1c:	681b      	ldr	r3, [r3, #0]
 8004d1e:	f443 2340 	orr.w	r3, r3, #786432	; 0xc0000
 8004d22:	6013      	str	r3, [r2, #0]
						break;
 8004d24:	e0e5      	b.n	8004ef2 <GPIO_VidPin_Mode+0xf36>
							else{Clear_Bit(GPIO_C->MODER,GPIO_MODER_MODER_9_ANALOG);}
 8004d26:	4a74      	ldr	r2, [pc, #464]	; (8004ef8 <GPIO_VidPin_Mode+0xf3c>)
 8004d28:	4b73      	ldr	r3, [pc, #460]	; (8004ef8 <GPIO_VidPin_Mode+0xf3c>)
 8004d2a:	681b      	ldr	r3, [r3, #0]
 8004d2c:	f423 2340 	bic.w	r3, r3, #786432	; 0xc0000
 8004d30:	6013      	str	r3, [r2, #0]
						break;
 8004d32:	e0de      	b.n	8004ef2 <GPIO_VidPin_Mode+0xf36>
					case (Pin_10):
							if(Copy_u8Mode==GPIO_Output){Set_Bit(GPIO_C->MODER,GPIO_MODER_MODER_10_OUTPUT);}
 8004d34:	797b      	ldrb	r3, [r7, #5]
 8004d36:	2b01      	cmp	r3, #1
 8004d38:	d106      	bne.n	8004d48 <GPIO_VidPin_Mode+0xd8c>
 8004d3a:	4a6f      	ldr	r2, [pc, #444]	; (8004ef8 <GPIO_VidPin_Mode+0xf3c>)
 8004d3c:	4b6e      	ldr	r3, [pc, #440]	; (8004ef8 <GPIO_VidPin_Mode+0xf3c>)
 8004d3e:	681b      	ldr	r3, [r3, #0]
 8004d40:	f443 1380 	orr.w	r3, r3, #1048576	; 0x100000
 8004d44:	6013      	str	r3, [r2, #0]
							else if(Copy_u8Mode==GPIO_Alternate){Set_Bit(GPIO_C->MODER,GPIO_MODER_MODER_10_ALTERNATE);}
							else if(Copy_u8Mode==GPIO_Analog){Set_Bit(GPIO_C->MODER,GPIO_MODER_MODER_10_ANALOG);}
							else{Clear_Bit(GPIO_C->MODER,GPIO_MODER_MODER_10_ANALOG);}
						break;
 8004d46:	e0d4      	b.n	8004ef2 <GPIO_VidPin_Mode+0xf36>
							else if(Copy_u8Mode==GPIO_Alternate){Set_Bit(GPIO_C->MODER,GPIO_MODER_MODER_10_ALTERNATE);}
 8004d48:	797b      	ldrb	r3, [r7, #5]
 8004d4a:	2b02      	cmp	r3, #2
 8004d4c:	d106      	bne.n	8004d5c <GPIO_VidPin_Mode+0xda0>
 8004d4e:	4a6a      	ldr	r2, [pc, #424]	; (8004ef8 <GPIO_VidPin_Mode+0xf3c>)
 8004d50:	4b69      	ldr	r3, [pc, #420]	; (8004ef8 <GPIO_VidPin_Mode+0xf3c>)
 8004d52:	681b      	ldr	r3, [r3, #0]
 8004d54:	f443 1300 	orr.w	r3, r3, #2097152	; 0x200000
 8004d58:	6013      	str	r3, [r2, #0]
						break;
 8004d5a:	e0ca      	b.n	8004ef2 <GPIO_VidPin_Mode+0xf36>
							else if(Copy_u8Mode==GPIO_Analog){Set_Bit(GPIO_C->MODER,GPIO_MODER_MODER_10_ANALOG);}
 8004d5c:	797b      	ldrb	r3, [r7, #5]
 8004d5e:	2b03      	cmp	r3, #3
 8004d60:	d106      	bne.n	8004d70 <GPIO_VidPin_Mode+0xdb4>
 8004d62:	4a65      	ldr	r2, [pc, #404]	; (8004ef8 <GPIO_VidPin_Mode+0xf3c>)
 8004d64:	4b64      	ldr	r3, [pc, #400]	; (8004ef8 <GPIO_VidPin_Mode+0xf3c>)
 8004d66:	681b      	ldr	r3, [r3, #0]
 8004d68:	f443 1340 	orr.w	r3, r3, #3145728	; 0x300000
 8004d6c:	6013      	str	r3, [r2, #0]
						break;
 8004d6e:	e0c0      	b.n	8004ef2 <GPIO_VidPin_Mode+0xf36>
							else{Clear_Bit(GPIO_C->MODER,GPIO_MODER_MODER_10_ANALOG);}
 8004d70:	4a61      	ldr	r2, [pc, #388]	; (8004ef8 <GPIO_VidPin_Mode+0xf3c>)
 8004d72:	4b61      	ldr	r3, [pc, #388]	; (8004ef8 <GPIO_VidPin_Mode+0xf3c>)
 8004d74:	681b      	ldr	r3, [r3, #0]
 8004d76:	f423 1340 	bic.w	r3, r3, #3145728	; 0x300000
 8004d7a:	6013      	str	r3, [r2, #0]
						break;
 8004d7c:	e0b9      	b.n	8004ef2 <GPIO_VidPin_Mode+0xf36>
					case (Pin_11):
							if(Copy_u8Mode==GPIO_Output){Set_Bit(GPIO_C->MODER,GPIO_MODER_MODER_11_OUTPUT);}
 8004d7e:	797b      	ldrb	r3, [r7, #5]
 8004d80:	2b01      	cmp	r3, #1
 8004d82:	d106      	bne.n	8004d92 <GPIO_VidPin_Mode+0xdd6>
 8004d84:	4a5c      	ldr	r2, [pc, #368]	; (8004ef8 <GPIO_VidPin_Mode+0xf3c>)
 8004d86:	4b5c      	ldr	r3, [pc, #368]	; (8004ef8 <GPIO_VidPin_Mode+0xf3c>)
 8004d88:	681b      	ldr	r3, [r3, #0]
 8004d8a:	f443 0380 	orr.w	r3, r3, #4194304	; 0x400000
 8004d8e:	6013      	str	r3, [r2, #0]
							else if(Copy_u8Mode==GPIO_Alternate){Set_Bit(GPIO_C->MODER,GPIO_MODER_MODER_11_ALTERNATE);}
							else if(Copy_u8Mode==GPIO_Analog){Set_Bit(GPIO_C->MODER,GPIO_MODER_MODER_11_ANALOG);}
							else{Clear_Bit(GPIO_C->MODER,GPIO_MODER_MODER_11_ANALOG);}
						break;
 8004d90:	e0af      	b.n	8004ef2 <GPIO_VidPin_Mode+0xf36>
							else if(Copy_u8Mode==GPIO_Alternate){Set_Bit(GPIO_C->MODER,GPIO_MODER_MODER_11_ALTERNATE);}
 8004d92:	797b      	ldrb	r3, [r7, #5]
 8004d94:	2b02      	cmp	r3, #2
 8004d96:	d106      	bne.n	8004da6 <GPIO_VidPin_Mode+0xdea>
 8004d98:	4a57      	ldr	r2, [pc, #348]	; (8004ef8 <GPIO_VidPin_Mode+0xf3c>)
 8004d9a:	4b57      	ldr	r3, [pc, #348]	; (8004ef8 <GPIO_VidPin_Mode+0xf3c>)
 8004d9c:	681b      	ldr	r3, [r3, #0]
 8004d9e:	f443 0300 	orr.w	r3, r3, #8388608	; 0x800000
 8004da2:	6013      	str	r3, [r2, #0]
						break;
 8004da4:	e0a5      	b.n	8004ef2 <GPIO_VidPin_Mode+0xf36>
							else if(Copy_u8Mode==GPIO_Analog){Set_Bit(GPIO_C->MODER,GPIO_MODER_MODER_11_ANALOG);}
 8004da6:	797b      	ldrb	r3, [r7, #5]
 8004da8:	2b03      	cmp	r3, #3
 8004daa:	d106      	bne.n	8004dba <GPIO_VidPin_Mode+0xdfe>
 8004dac:	4a52      	ldr	r2, [pc, #328]	; (8004ef8 <GPIO_VidPin_Mode+0xf3c>)
 8004dae:	4b52      	ldr	r3, [pc, #328]	; (8004ef8 <GPIO_VidPin_Mode+0xf3c>)
 8004db0:	681b      	ldr	r3, [r3, #0]
 8004db2:	f443 0340 	orr.w	r3, r3, #12582912	; 0xc00000
 8004db6:	6013      	str	r3, [r2, #0]
						break;
 8004db8:	e09b      	b.n	8004ef2 <GPIO_VidPin_Mode+0xf36>
							else{Clear_Bit(GPIO_C->MODER,GPIO_MODER_MODER_11_ANALOG);}
 8004dba:	4a4f      	ldr	r2, [pc, #316]	; (8004ef8 <GPIO_VidPin_Mode+0xf3c>)
 8004dbc:	4b4e      	ldr	r3, [pc, #312]	; (8004ef8 <GPIO_VidPin_Mode+0xf3c>)
 8004dbe:	681b      	ldr	r3, [r3, #0]
 8004dc0:	f423 0340 	bic.w	r3, r3, #12582912	; 0xc00000
 8004dc4:	6013      	str	r3, [r2, #0]
						break;
 8004dc6:	e094      	b.n	8004ef2 <GPIO_VidPin_Mode+0xf36>
					case (Pin_12):
							if(Copy_u8Mode==GPIO_Output){Set_Bit(GPIO_C->MODER,GPIO_MODER_MODER_12_OUTPUT);}
 8004dc8:	797b      	ldrb	r3, [r7, #5]
 8004dca:	2b01      	cmp	r3, #1
 8004dcc:	d106      	bne.n	8004ddc <GPIO_VidPin_Mode+0xe20>
 8004dce:	4a4a      	ldr	r2, [pc, #296]	; (8004ef8 <GPIO_VidPin_Mode+0xf3c>)
 8004dd0:	4b49      	ldr	r3, [pc, #292]	; (8004ef8 <GPIO_VidPin_Mode+0xf3c>)
 8004dd2:	681b      	ldr	r3, [r3, #0]
 8004dd4:	f043 7380 	orr.w	r3, r3, #16777216	; 0x1000000
 8004dd8:	6013      	str	r3, [r2, #0]
							else if(Copy_u8Mode==GPIO_Alternate){Set_Bit(GPIO_C->MODER,GPIO_MODER_MODER_12_ALTERNATE);}
							else if(Copy_u8Mode==GPIO_Analog){Set_Bit(GPIO_C->MODER,GPIO_MODER_MODER_12_ANALOG);}
							else{Clear_Bit(GPIO_C->MODER,GPIO_MODER_MODER_12_ANALOG);}
						break;
 8004dda:	e08a      	b.n	8004ef2 <GPIO_VidPin_Mode+0xf36>
							else if(Copy_u8Mode==GPIO_Alternate){Set_Bit(GPIO_C->MODER,GPIO_MODER_MODER_12_ALTERNATE);}
 8004ddc:	797b      	ldrb	r3, [r7, #5]
 8004dde:	2b02      	cmp	r3, #2
 8004de0:	d106      	bne.n	8004df0 <GPIO_VidPin_Mode+0xe34>
 8004de2:	4a45      	ldr	r2, [pc, #276]	; (8004ef8 <GPIO_VidPin_Mode+0xf3c>)
 8004de4:	4b44      	ldr	r3, [pc, #272]	; (8004ef8 <GPIO_VidPin_Mode+0xf3c>)
 8004de6:	681b      	ldr	r3, [r3, #0]
 8004de8:	f043 7300 	orr.w	r3, r3, #33554432	; 0x2000000
 8004dec:	6013      	str	r3, [r2, #0]
						break;
 8004dee:	e080      	b.n	8004ef2 <GPIO_VidPin_Mode+0xf36>
							else if(Copy_u8Mode==GPIO_Analog){Set_Bit(GPIO_C->MODER,GPIO_MODER_MODER_12_ANALOG);}
 8004df0:	797b      	ldrb	r3, [r7, #5]
 8004df2:	2b03      	cmp	r3, #3
 8004df4:	d106      	bne.n	8004e04 <GPIO_VidPin_Mode+0xe48>
 8004df6:	4a40      	ldr	r2, [pc, #256]	; (8004ef8 <GPIO_VidPin_Mode+0xf3c>)
 8004df8:	4b3f      	ldr	r3, [pc, #252]	; (8004ef8 <GPIO_VidPin_Mode+0xf3c>)
 8004dfa:	681b      	ldr	r3, [r3, #0]
 8004dfc:	f043 7340 	orr.w	r3, r3, #50331648	; 0x3000000
 8004e00:	6013      	str	r3, [r2, #0]
						break;
 8004e02:	e076      	b.n	8004ef2 <GPIO_VidPin_Mode+0xf36>
							else{Clear_Bit(GPIO_C->MODER,GPIO_MODER_MODER_12_ANALOG);}
 8004e04:	4a3c      	ldr	r2, [pc, #240]	; (8004ef8 <GPIO_VidPin_Mode+0xf3c>)
 8004e06:	4b3c      	ldr	r3, [pc, #240]	; (8004ef8 <GPIO_VidPin_Mode+0xf3c>)
 8004e08:	681b      	ldr	r3, [r3, #0]
 8004e0a:	f023 7340 	bic.w	r3, r3, #50331648	; 0x3000000
 8004e0e:	6013      	str	r3, [r2, #0]
						break;
 8004e10:	e06f      	b.n	8004ef2 <GPIO_VidPin_Mode+0xf36>
					case (Pin_13):
							if(Copy_u8Mode==GPIO_Output){Set_Bit(GPIO_C->MODER,GPIO_MODER_MODER_13_OUTPUT);}
 8004e12:	797b      	ldrb	r3, [r7, #5]
 8004e14:	2b01      	cmp	r3, #1
 8004e16:	d106      	bne.n	8004e26 <GPIO_VidPin_Mode+0xe6a>
 8004e18:	4a37      	ldr	r2, [pc, #220]	; (8004ef8 <GPIO_VidPin_Mode+0xf3c>)
 8004e1a:	4b37      	ldr	r3, [pc, #220]	; (8004ef8 <GPIO_VidPin_Mode+0xf3c>)
 8004e1c:	681b      	ldr	r3, [r3, #0]
 8004e1e:	f043 6380 	orr.w	r3, r3, #67108864	; 0x4000000
 8004e22:	6013      	str	r3, [r2, #0]
							else if(Copy_u8Mode==GPIO_Alternate){Set_Bit(GPIO_C->MODER,GPIO_MODER_MODER_13_ALTERNATE);}
							else if(Copy_u8Mode==GPIO_Analog){Set_Bit(GPIO_C->MODER,GPIO_MODER_MODER_13_ANALOG);}
							else{Clear_Bit(GPIO_C->MODER,GPIO_MODER_MODER_13_ANALOG);}
						break;
 8004e24:	e065      	b.n	8004ef2 <GPIO_VidPin_Mode+0xf36>
							else if(Copy_u8Mode==GPIO_Alternate){Set_Bit(GPIO_C->MODER,GPIO_MODER_MODER_13_ALTERNATE);}
 8004e26:	797b      	ldrb	r3, [r7, #5]
 8004e28:	2b02      	cmp	r3, #2
 8004e2a:	d106      	bne.n	8004e3a <GPIO_VidPin_Mode+0xe7e>
 8004e2c:	4a32      	ldr	r2, [pc, #200]	; (8004ef8 <GPIO_VidPin_Mode+0xf3c>)
 8004e2e:	4b32      	ldr	r3, [pc, #200]	; (8004ef8 <GPIO_VidPin_Mode+0xf3c>)
 8004e30:	681b      	ldr	r3, [r3, #0]
 8004e32:	f043 6300 	orr.w	r3, r3, #134217728	; 0x8000000
 8004e36:	6013      	str	r3, [r2, #0]
						break;
 8004e38:	e05b      	b.n	8004ef2 <GPIO_VidPin_Mode+0xf36>
							else if(Copy_u8Mode==GPIO_Analog){Set_Bit(GPIO_C->MODER,GPIO_MODER_MODER_13_ANALOG);}
 8004e3a:	797b      	ldrb	r3, [r7, #5]
 8004e3c:	2b03      	cmp	r3, #3
 8004e3e:	d106      	bne.n	8004e4e <GPIO_VidPin_Mode+0xe92>
 8004e40:	4a2d      	ldr	r2, [pc, #180]	; (8004ef8 <GPIO_VidPin_Mode+0xf3c>)
 8004e42:	4b2d      	ldr	r3, [pc, #180]	; (8004ef8 <GPIO_VidPin_Mode+0xf3c>)
 8004e44:	681b      	ldr	r3, [r3, #0]
 8004e46:	f043 6340 	orr.w	r3, r3, #201326592	; 0xc000000
 8004e4a:	6013      	str	r3, [r2, #0]
						break;
 8004e4c:	e051      	b.n	8004ef2 <GPIO_VidPin_Mode+0xf36>
							else{Clear_Bit(GPIO_C->MODER,GPIO_MODER_MODER_13_ANALOG);}
 8004e4e:	4a2a      	ldr	r2, [pc, #168]	; (8004ef8 <GPIO_VidPin_Mode+0xf3c>)
 8004e50:	4b29      	ldr	r3, [pc, #164]	; (8004ef8 <GPIO_VidPin_Mode+0xf3c>)
 8004e52:	681b      	ldr	r3, [r3, #0]
 8004e54:	f023 6340 	bic.w	r3, r3, #201326592	; 0xc000000
 8004e58:	6013      	str	r3, [r2, #0]
						break;
 8004e5a:	e04a      	b.n	8004ef2 <GPIO_VidPin_Mode+0xf36>
					case (Pin_14):
							if(Copy_u8Mode==GPIO_Output){Set_Bit(GPIO_C->MODER,GPIO_MODER_MODER_14_OUTPUT);}
 8004e5c:	797b      	ldrb	r3, [r7, #5]
 8004e5e:	2b01      	cmp	r3, #1
 8004e60:	d106      	bne.n	8004e70 <GPIO_VidPin_Mode+0xeb4>
 8004e62:	4a25      	ldr	r2, [pc, #148]	; (8004ef8 <GPIO_VidPin_Mode+0xf3c>)
 8004e64:	4b24      	ldr	r3, [pc, #144]	; (8004ef8 <GPIO_VidPin_Mode+0xf3c>)
 8004e66:	681b      	ldr	r3, [r3, #0]
 8004e68:	f043 5380 	orr.w	r3, r3, #268435456	; 0x10000000
 8004e6c:	6013      	str	r3, [r2, #0]
							else if(Copy_u8Mode==GPIO_Alternate){Set_Bit(GPIO_C->MODER,GPIO_MODER_MODER_14_ALTERNATE);}
							else if(Copy_u8Mode==GPIO_Analog){Set_Bit(GPIO_C->MODER,GPIO_MODER_MODER_14_ANALOG);}
							else{Clear_Bit(GPIO_C->MODER,GPIO_MODER_MODER_14_ANALOG);}
						break;
 8004e6e:	e040      	b.n	8004ef2 <GPIO_VidPin_Mode+0xf36>
							else if(Copy_u8Mode==GPIO_Alternate){Set_Bit(GPIO_C->MODER,GPIO_MODER_MODER_14_ALTERNATE);}
 8004e70:	797b      	ldrb	r3, [r7, #5]
 8004e72:	2b02      	cmp	r3, #2
 8004e74:	d106      	bne.n	8004e84 <GPIO_VidPin_Mode+0xec8>
 8004e76:	4a20      	ldr	r2, [pc, #128]	; (8004ef8 <GPIO_VidPin_Mode+0xf3c>)
 8004e78:	4b1f      	ldr	r3, [pc, #124]	; (8004ef8 <GPIO_VidPin_Mode+0xf3c>)
 8004e7a:	681b      	ldr	r3, [r3, #0]
 8004e7c:	f043 5300 	orr.w	r3, r3, #536870912	; 0x20000000
 8004e80:	6013      	str	r3, [r2, #0]
						break;
 8004e82:	e036      	b.n	8004ef2 <GPIO_VidPin_Mode+0xf36>
							else if(Copy_u8Mode==GPIO_Analog){Set_Bit(GPIO_C->MODER,GPIO_MODER_MODER_14_ANALOG);}
 8004e84:	797b      	ldrb	r3, [r7, #5]
 8004e86:	2b03      	cmp	r3, #3
 8004e88:	d106      	bne.n	8004e98 <GPIO_VidPin_Mode+0xedc>
 8004e8a:	4a1b      	ldr	r2, [pc, #108]	; (8004ef8 <GPIO_VidPin_Mode+0xf3c>)
 8004e8c:	4b1a      	ldr	r3, [pc, #104]	; (8004ef8 <GPIO_VidPin_Mode+0xf3c>)
 8004e8e:	681b      	ldr	r3, [r3, #0]
 8004e90:	f043 5340 	orr.w	r3, r3, #805306368	; 0x30000000
 8004e94:	6013      	str	r3, [r2, #0]
						break;
 8004e96:	e02c      	b.n	8004ef2 <GPIO_VidPin_Mode+0xf36>
							else{Clear_Bit(GPIO_C->MODER,GPIO_MODER_MODER_14_ANALOG);}
 8004e98:	4a17      	ldr	r2, [pc, #92]	; (8004ef8 <GPIO_VidPin_Mode+0xf3c>)
 8004e9a:	4b17      	ldr	r3, [pc, #92]	; (8004ef8 <GPIO_VidPin_Mode+0xf3c>)
 8004e9c:	681b      	ldr	r3, [r3, #0]
 8004e9e:	f023 5340 	bic.w	r3, r3, #805306368	; 0x30000000
 8004ea2:	6013      	str	r3, [r2, #0]
						break;
 8004ea4:	e025      	b.n	8004ef2 <GPIO_VidPin_Mode+0xf36>
					case (Pin_15):
							if(Copy_u8Mode==GPIO_Output){Set_Bit(GPIO_C->MODER,GPIO_MODER_MODER_15_OUTPUT);}
 8004ea6:	797b      	ldrb	r3, [r7, #5]
 8004ea8:	2b01      	cmp	r3, #1
 8004eaa:	d106      	bne.n	8004eba <GPIO_VidPin_Mode+0xefe>
 8004eac:	4a12      	ldr	r2, [pc, #72]	; (8004ef8 <GPIO_VidPin_Mode+0xf3c>)
 8004eae:	4b12      	ldr	r3, [pc, #72]	; (8004ef8 <GPIO_VidPin_Mode+0xf3c>)
 8004eb0:	681b      	ldr	r3, [r3, #0]
 8004eb2:	f043 4380 	orr.w	r3, r3, #1073741824	; 0x40000000
 8004eb6:	6013      	str	r3, [r2, #0]
							else if(Copy_u8Mode==GPIO_Alternate){Set_Bit(GPIO_C->MODER,GPIO_MODER_MODER_15_ALTERNATE);}
							else if(Copy_u8Mode==GPIO_Analog){Set_Bit(GPIO_C->MODER,GPIO_MODER_MODER_15_ANALOG);}
							else{Clear_Bit(GPIO_C->MODER,GPIO_MODER_MODER_15_ANALOG);}
						break;
 8004eb8:	e01b      	b.n	8004ef2 <GPIO_VidPin_Mode+0xf36>
							else if(Copy_u8Mode==GPIO_Alternate){Set_Bit(GPIO_C->MODER,GPIO_MODER_MODER_15_ALTERNATE);}
 8004eba:	797b      	ldrb	r3, [r7, #5]
 8004ebc:	2b02      	cmp	r3, #2
 8004ebe:	d106      	bne.n	8004ece <GPIO_VidPin_Mode+0xf12>
 8004ec0:	4a0d      	ldr	r2, [pc, #52]	; (8004ef8 <GPIO_VidPin_Mode+0xf3c>)
 8004ec2:	4b0d      	ldr	r3, [pc, #52]	; (8004ef8 <GPIO_VidPin_Mode+0xf3c>)
 8004ec4:	681b      	ldr	r3, [r3, #0]
 8004ec6:	f043 4300 	orr.w	r3, r3, #2147483648	; 0x80000000
 8004eca:	6013      	str	r3, [r2, #0]
						break;
 8004ecc:	e011      	b.n	8004ef2 <GPIO_VidPin_Mode+0xf36>
							else if(Copy_u8Mode==GPIO_Analog){Set_Bit(GPIO_C->MODER,GPIO_MODER_MODER_15_ANALOG);}
 8004ece:	797b      	ldrb	r3, [r7, #5]
 8004ed0:	2b03      	cmp	r3, #3
 8004ed2:	d106      	bne.n	8004ee2 <GPIO_VidPin_Mode+0xf26>
 8004ed4:	4a08      	ldr	r2, [pc, #32]	; (8004ef8 <GPIO_VidPin_Mode+0xf3c>)
 8004ed6:	4b08      	ldr	r3, [pc, #32]	; (8004ef8 <GPIO_VidPin_Mode+0xf3c>)
 8004ed8:	681b      	ldr	r3, [r3, #0]
 8004eda:	f043 4340 	orr.w	r3, r3, #3221225472	; 0xc0000000
 8004ede:	6013      	str	r3, [r2, #0]
						break;
 8004ee0:	e007      	b.n	8004ef2 <GPIO_VidPin_Mode+0xf36>
							else{Clear_Bit(GPIO_C->MODER,GPIO_MODER_MODER_15_ANALOG);}
 8004ee2:	4a05      	ldr	r2, [pc, #20]	; (8004ef8 <GPIO_VidPin_Mode+0xf3c>)
 8004ee4:	4b04      	ldr	r3, [pc, #16]	; (8004ef8 <GPIO_VidPin_Mode+0xf3c>)
 8004ee6:	681b      	ldr	r3, [r3, #0]
 8004ee8:	f023 4340 	bic.w	r3, r3, #3221225472	; 0xc0000000
 8004eec:	6013      	str	r3, [r2, #0]
						break;
 8004eee:	e000      	b.n	8004ef2 <GPIO_VidPin_Mode+0xf36>
					default:break;
 8004ef0:	bf00      	nop
			}
			break;
 8004ef2:	f000 bcfe 	b.w	80058f2 <GPIO_VidPin_Mode+0x1936>
 8004ef6:	bf00      	nop
 8004ef8:	40020800 	.word	0x40020800
		case(Port_D):
			switch (Copy_u8Pin)
 8004efc:	79bb      	ldrb	r3, [r7, #6]
 8004efe:	2b0f      	cmp	r3, #15
 8004f00:	f200 8276 	bhi.w	80053f0 <GPIO_VidPin_Mode+0x1434>
 8004f04:	a201      	add	r2, pc, #4	; (adr r2, 8004f0c <GPIO_VidPin_Mode+0xf50>)
 8004f06:	f852 f023 	ldr.w	pc, [r2, r3, lsl #2]
 8004f0a:	bf00      	nop
 8004f0c:	08004f4d 	.word	0x08004f4d
 8004f10:	08004f97 	.word	0x08004f97
 8004f14:	08004fe1 	.word	0x08004fe1
 8004f18:	0800502b 	.word	0x0800502b
 8004f1c:	08005075 	.word	0x08005075
 8004f20:	080050bf 	.word	0x080050bf
 8004f24:	08005109 	.word	0x08005109
 8004f28:	08005153 	.word	0x08005153
 8004f2c:	080051a1 	.word	0x080051a1
 8004f30:	080051eb 	.word	0x080051eb
 8004f34:	08005235 	.word	0x08005235
 8004f38:	0800527f 	.word	0x0800527f
 8004f3c:	080052c9 	.word	0x080052c9
 8004f40:	08005313 	.word	0x08005313
 8004f44:	0800535d 	.word	0x0800535d
 8004f48:	080053a7 	.word	0x080053a7
			{
				case (Pin_0):
						if(Copy_u8Mode==GPIO_Output){Set_Bit(GPIO_D->MODER,GPIO_MODER_MODER_0_OUTPUT);}
 8004f4c:	797b      	ldrb	r3, [r7, #5]
 8004f4e:	2b01      	cmp	r3, #1
 8004f50:	d106      	bne.n	8004f60 <GPIO_VidPin_Mode+0xfa4>
 8004f52:	4a92      	ldr	r2, [pc, #584]	; (800519c <GPIO_VidPin_Mode+0x11e0>)
 8004f54:	4b91      	ldr	r3, [pc, #580]	; (800519c <GPIO_VidPin_Mode+0x11e0>)
 8004f56:	681b      	ldr	r3, [r3, #0]
 8004f58:	f043 0301 	orr.w	r3, r3, #1
 8004f5c:	6013      	str	r3, [r2, #0]
						else if(Copy_u8Mode==GPIO_Alternate){Set_Bit(GPIO_D->MODER,GPIO_MODER_MODER_0_ALTERNATE);}
						else if(Copy_u8Mode==GPIO_Analog){Set_Bit(GPIO_D->MODER,GPIO_MODER_MODER_0_ANALOG);}
						else{Clear_Bit(GPIO_D->MODER,GPIO_MODER_MODER_0_ANALOG);}
					break;
 8004f5e:	e248      	b.n	80053f2 <GPIO_VidPin_Mode+0x1436>
						else if(Copy_u8Mode==GPIO_Alternate){Set_Bit(GPIO_D->MODER,GPIO_MODER_MODER_0_ALTERNATE);}
 8004f60:	797b      	ldrb	r3, [r7, #5]
 8004f62:	2b02      	cmp	r3, #2
 8004f64:	d106      	bne.n	8004f74 <GPIO_VidPin_Mode+0xfb8>
 8004f66:	4a8d      	ldr	r2, [pc, #564]	; (800519c <GPIO_VidPin_Mode+0x11e0>)
 8004f68:	4b8c      	ldr	r3, [pc, #560]	; (800519c <GPIO_VidPin_Mode+0x11e0>)
 8004f6a:	681b      	ldr	r3, [r3, #0]
 8004f6c:	f043 0302 	orr.w	r3, r3, #2
 8004f70:	6013      	str	r3, [r2, #0]
					break;
 8004f72:	e23e      	b.n	80053f2 <GPIO_VidPin_Mode+0x1436>
						else if(Copy_u8Mode==GPIO_Analog){Set_Bit(GPIO_D->MODER,GPIO_MODER_MODER_0_ANALOG);}
 8004f74:	797b      	ldrb	r3, [r7, #5]
 8004f76:	2b03      	cmp	r3, #3
 8004f78:	d106      	bne.n	8004f88 <GPIO_VidPin_Mode+0xfcc>
 8004f7a:	4a88      	ldr	r2, [pc, #544]	; (800519c <GPIO_VidPin_Mode+0x11e0>)
 8004f7c:	4b87      	ldr	r3, [pc, #540]	; (800519c <GPIO_VidPin_Mode+0x11e0>)
 8004f7e:	681b      	ldr	r3, [r3, #0]
 8004f80:	f043 0303 	orr.w	r3, r3, #3
 8004f84:	6013      	str	r3, [r2, #0]
					break;
 8004f86:	e234      	b.n	80053f2 <GPIO_VidPin_Mode+0x1436>
						else{Clear_Bit(GPIO_D->MODER,GPIO_MODER_MODER_0_ANALOG);}
 8004f88:	4a84      	ldr	r2, [pc, #528]	; (800519c <GPIO_VidPin_Mode+0x11e0>)
 8004f8a:	4b84      	ldr	r3, [pc, #528]	; (800519c <GPIO_VidPin_Mode+0x11e0>)
 8004f8c:	681b      	ldr	r3, [r3, #0]
 8004f8e:	f023 0303 	bic.w	r3, r3, #3
 8004f92:	6013      	str	r3, [r2, #0]
					break;
 8004f94:	e22d      	b.n	80053f2 <GPIO_VidPin_Mode+0x1436>
				case (Pin_1):
						if(Copy_u8Mode==GPIO_Output){Set_Bit(GPIO_D->MODER,GPIO_MODER_MODER_1_OUTPUT);}
 8004f96:	797b      	ldrb	r3, [r7, #5]
 8004f98:	2b01      	cmp	r3, #1
 8004f9a:	d106      	bne.n	8004faa <GPIO_VidPin_Mode+0xfee>
 8004f9c:	4a7f      	ldr	r2, [pc, #508]	; (800519c <GPIO_VidPin_Mode+0x11e0>)
 8004f9e:	4b7f      	ldr	r3, [pc, #508]	; (800519c <GPIO_VidPin_Mode+0x11e0>)
 8004fa0:	681b      	ldr	r3, [r3, #0]
 8004fa2:	f043 0304 	orr.w	r3, r3, #4
 8004fa6:	6013      	str	r3, [r2, #0]
						else if(Copy_u8Mode==GPIO_Alternate){Set_Bit(GPIO_D->MODER,GPIO_MODER_MODER_1_ALTERNATE);}
						else if(Copy_u8Mode==GPIO_Analog){Set_Bit(GPIO_D->MODER,GPIO_MODER_MODER_1_ANALOG);}
						else{Clear_Bit(GPIO_D->MODER,GPIO_MODER_MODER_1_ANALOG);}
					break;
 8004fa8:	e223      	b.n	80053f2 <GPIO_VidPin_Mode+0x1436>
						else if(Copy_u8Mode==GPIO_Alternate){Set_Bit(GPIO_D->MODER,GPIO_MODER_MODER_1_ALTERNATE);}
 8004faa:	797b      	ldrb	r3, [r7, #5]
 8004fac:	2b02      	cmp	r3, #2
 8004fae:	d106      	bne.n	8004fbe <GPIO_VidPin_Mode+0x1002>
 8004fb0:	4a7a      	ldr	r2, [pc, #488]	; (800519c <GPIO_VidPin_Mode+0x11e0>)
 8004fb2:	4b7a      	ldr	r3, [pc, #488]	; (800519c <GPIO_VidPin_Mode+0x11e0>)
 8004fb4:	681b      	ldr	r3, [r3, #0]
 8004fb6:	f043 0308 	orr.w	r3, r3, #8
 8004fba:	6013      	str	r3, [r2, #0]
					break;
 8004fbc:	e219      	b.n	80053f2 <GPIO_VidPin_Mode+0x1436>
						else if(Copy_u8Mode==GPIO_Analog){Set_Bit(GPIO_D->MODER,GPIO_MODER_MODER_1_ANALOG);}
 8004fbe:	797b      	ldrb	r3, [r7, #5]
 8004fc0:	2b03      	cmp	r3, #3
 8004fc2:	d106      	bne.n	8004fd2 <GPIO_VidPin_Mode+0x1016>
 8004fc4:	4a75      	ldr	r2, [pc, #468]	; (800519c <GPIO_VidPin_Mode+0x11e0>)
 8004fc6:	4b75      	ldr	r3, [pc, #468]	; (800519c <GPIO_VidPin_Mode+0x11e0>)
 8004fc8:	681b      	ldr	r3, [r3, #0]
 8004fca:	f043 030c 	orr.w	r3, r3, #12
 8004fce:	6013      	str	r3, [r2, #0]
					break;
 8004fd0:	e20f      	b.n	80053f2 <GPIO_VidPin_Mode+0x1436>
						else{Clear_Bit(GPIO_D->MODER,GPIO_MODER_MODER_1_ANALOG);}
 8004fd2:	4a72      	ldr	r2, [pc, #456]	; (800519c <GPIO_VidPin_Mode+0x11e0>)
 8004fd4:	4b71      	ldr	r3, [pc, #452]	; (800519c <GPIO_VidPin_Mode+0x11e0>)
 8004fd6:	681b      	ldr	r3, [r3, #0]
 8004fd8:	f023 030c 	bic.w	r3, r3, #12
 8004fdc:	6013      	str	r3, [r2, #0]
					break;
 8004fde:	e208      	b.n	80053f2 <GPIO_VidPin_Mode+0x1436>
				case (Pin_2):
						if(Copy_u8Mode==GPIO_Output){Set_Bit(GPIO_D->MODER,GPIO_MODER_MODER_2_OUTPUT);}
 8004fe0:	797b      	ldrb	r3, [r7, #5]
 8004fe2:	2b01      	cmp	r3, #1
 8004fe4:	d106      	bne.n	8004ff4 <GPIO_VidPin_Mode+0x1038>
 8004fe6:	4a6d      	ldr	r2, [pc, #436]	; (800519c <GPIO_VidPin_Mode+0x11e0>)
 8004fe8:	4b6c      	ldr	r3, [pc, #432]	; (800519c <GPIO_VidPin_Mode+0x11e0>)
 8004fea:	681b      	ldr	r3, [r3, #0]
 8004fec:	f043 0310 	orr.w	r3, r3, #16
 8004ff0:	6013      	str	r3, [r2, #0]
						else if(Copy_u8Mode==GPIO_Alternate){Set_Bit(GPIO_D->MODER,GPIO_MODER_MODER_2_ALTERNATE);}
						else if(Copy_u8Mode==GPIO_Analog){Set_Bit(GPIO_D->MODER,GPIO_MODER_MODER_2_ANALOG);}
						else{Clear_Bit(GPIO_D->MODER,GPIO_MODER_MODER_2_ANALOG);}
					break;
 8004ff2:	e1fe      	b.n	80053f2 <GPIO_VidPin_Mode+0x1436>
						else if(Copy_u8Mode==GPIO_Alternate){Set_Bit(GPIO_D->MODER,GPIO_MODER_MODER_2_ALTERNATE);}
 8004ff4:	797b      	ldrb	r3, [r7, #5]
 8004ff6:	2b02      	cmp	r3, #2
 8004ff8:	d106      	bne.n	8005008 <GPIO_VidPin_Mode+0x104c>
 8004ffa:	4a68      	ldr	r2, [pc, #416]	; (800519c <GPIO_VidPin_Mode+0x11e0>)
 8004ffc:	4b67      	ldr	r3, [pc, #412]	; (800519c <GPIO_VidPin_Mode+0x11e0>)
 8004ffe:	681b      	ldr	r3, [r3, #0]
 8005000:	f043 0320 	orr.w	r3, r3, #32
 8005004:	6013      	str	r3, [r2, #0]
					break;
 8005006:	e1f4      	b.n	80053f2 <GPIO_VidPin_Mode+0x1436>
						else if(Copy_u8Mode==GPIO_Analog){Set_Bit(GPIO_D->MODER,GPIO_MODER_MODER_2_ANALOG);}
 8005008:	797b      	ldrb	r3, [r7, #5]
 800500a:	2b03      	cmp	r3, #3
 800500c:	d106      	bne.n	800501c <GPIO_VidPin_Mode+0x1060>
 800500e:	4a63      	ldr	r2, [pc, #396]	; (800519c <GPIO_VidPin_Mode+0x11e0>)
 8005010:	4b62      	ldr	r3, [pc, #392]	; (800519c <GPIO_VidPin_Mode+0x11e0>)
 8005012:	681b      	ldr	r3, [r3, #0]
 8005014:	f043 0330 	orr.w	r3, r3, #48	; 0x30
 8005018:	6013      	str	r3, [r2, #0]
					break;
 800501a:	e1ea      	b.n	80053f2 <GPIO_VidPin_Mode+0x1436>
						else{Clear_Bit(GPIO_D->MODER,GPIO_MODER_MODER_2_ANALOG);}
 800501c:	4a5f      	ldr	r2, [pc, #380]	; (800519c <GPIO_VidPin_Mode+0x11e0>)
 800501e:	4b5f      	ldr	r3, [pc, #380]	; (800519c <GPIO_VidPin_Mode+0x11e0>)
 8005020:	681b      	ldr	r3, [r3, #0]
 8005022:	f023 0330 	bic.w	r3, r3, #48	; 0x30
 8005026:	6013      	str	r3, [r2, #0]
					break;
 8005028:	e1e3      	b.n	80053f2 <GPIO_VidPin_Mode+0x1436>
				case (Pin_3):
						if(Copy_u8Mode==GPIO_Output){Set_Bit(GPIO_D->MODER,GPIO_MODER_MODER_3_OUTPUT);}
 800502a:	797b      	ldrb	r3, [r7, #5]
 800502c:	2b01      	cmp	r3, #1
 800502e:	d106      	bne.n	800503e <GPIO_VidPin_Mode+0x1082>
 8005030:	4a5a      	ldr	r2, [pc, #360]	; (800519c <GPIO_VidPin_Mode+0x11e0>)
 8005032:	4b5a      	ldr	r3, [pc, #360]	; (800519c <GPIO_VidPin_Mode+0x11e0>)
 8005034:	681b      	ldr	r3, [r3, #0]
 8005036:	f043 0340 	orr.w	r3, r3, #64	; 0x40
 800503a:	6013      	str	r3, [r2, #0]
						else if(Copy_u8Mode==GPIO_Alternate){Set_Bit(GPIO_D->MODER,GPIO_MODER_MODER_3_ALTERNATE);}
						else if(Copy_u8Mode==GPIO_Analog){Set_Bit(GPIO_D->MODER,GPIO_MODER_MODER_3_ANALOG);}
						else{Clear_Bit(GPIO_D->MODER,GPIO_MODER_MODER_3_ANALOG);}
					break;
 800503c:	e1d9      	b.n	80053f2 <GPIO_VidPin_Mode+0x1436>
						else if(Copy_u8Mode==GPIO_Alternate){Set_Bit(GPIO_D->MODER,GPIO_MODER_MODER_3_ALTERNATE);}
 800503e:	797b      	ldrb	r3, [r7, #5]
 8005040:	2b02      	cmp	r3, #2
 8005042:	d106      	bne.n	8005052 <GPIO_VidPin_Mode+0x1096>
 8005044:	4a55      	ldr	r2, [pc, #340]	; (800519c <GPIO_VidPin_Mode+0x11e0>)
 8005046:	4b55      	ldr	r3, [pc, #340]	; (800519c <GPIO_VidPin_Mode+0x11e0>)
 8005048:	681b      	ldr	r3, [r3, #0]
 800504a:	f043 0380 	orr.w	r3, r3, #128	; 0x80
 800504e:	6013      	str	r3, [r2, #0]
					break;
 8005050:	e1cf      	b.n	80053f2 <GPIO_VidPin_Mode+0x1436>
						else if(Copy_u8Mode==GPIO_Analog){Set_Bit(GPIO_D->MODER,GPIO_MODER_MODER_3_ANALOG);}
 8005052:	797b      	ldrb	r3, [r7, #5]
 8005054:	2b03      	cmp	r3, #3
 8005056:	d106      	bne.n	8005066 <GPIO_VidPin_Mode+0x10aa>
 8005058:	4a50      	ldr	r2, [pc, #320]	; (800519c <GPIO_VidPin_Mode+0x11e0>)
 800505a:	4b50      	ldr	r3, [pc, #320]	; (800519c <GPIO_VidPin_Mode+0x11e0>)
 800505c:	681b      	ldr	r3, [r3, #0]
 800505e:	f043 03c0 	orr.w	r3, r3, #192	; 0xc0
 8005062:	6013      	str	r3, [r2, #0]
					break;
 8005064:	e1c5      	b.n	80053f2 <GPIO_VidPin_Mode+0x1436>
						else{Clear_Bit(GPIO_D->MODER,GPIO_MODER_MODER_3_ANALOG);}
 8005066:	4a4d      	ldr	r2, [pc, #308]	; (800519c <GPIO_VidPin_Mode+0x11e0>)
 8005068:	4b4c      	ldr	r3, [pc, #304]	; (800519c <GPIO_VidPin_Mode+0x11e0>)
 800506a:	681b      	ldr	r3, [r3, #0]
 800506c:	f023 03c0 	bic.w	r3, r3, #192	; 0xc0
 8005070:	6013      	str	r3, [r2, #0]
					break;
 8005072:	e1be      	b.n	80053f2 <GPIO_VidPin_Mode+0x1436>
				case (Pin_4):
						if(Copy_u8Mode==GPIO_Output){Set_Bit(GPIO_D->MODER,GPIO_MODER_MODER_4_OUTPUT);}
 8005074:	797b      	ldrb	r3, [r7, #5]
 8005076:	2b01      	cmp	r3, #1
 8005078:	d106      	bne.n	8005088 <GPIO_VidPin_Mode+0x10cc>
 800507a:	4a48      	ldr	r2, [pc, #288]	; (800519c <GPIO_VidPin_Mode+0x11e0>)
 800507c:	4b47      	ldr	r3, [pc, #284]	; (800519c <GPIO_VidPin_Mode+0x11e0>)
 800507e:	681b      	ldr	r3, [r3, #0]
 8005080:	f443 7380 	orr.w	r3, r3, #256	; 0x100
 8005084:	6013      	str	r3, [r2, #0]
						else if(Copy_u8Mode==GPIO_Alternate){Set_Bit(GPIO_D->MODER,GPIO_MODER_MODER_4_ALTERNATE);}
						else if(Copy_u8Mode==GPIO_Analog){Set_Bit(GPIO_D->MODER,GPIO_MODER_MODER_4_ANALOG);}
						else{Clear_Bit(GPIO_D->MODER,GPIO_MODER_MODER_4_ANALOG);}
					break;
 8005086:	e1b4      	b.n	80053f2 <GPIO_VidPin_Mode+0x1436>
						else if(Copy_u8Mode==GPIO_Alternate){Set_Bit(GPIO_D->MODER,GPIO_MODER_MODER_4_ALTERNATE);}
 8005088:	797b      	ldrb	r3, [r7, #5]
 800508a:	2b02      	cmp	r3, #2
 800508c:	d106      	bne.n	800509c <GPIO_VidPin_Mode+0x10e0>
 800508e:	4a43      	ldr	r2, [pc, #268]	; (800519c <GPIO_VidPin_Mode+0x11e0>)
 8005090:	4b42      	ldr	r3, [pc, #264]	; (800519c <GPIO_VidPin_Mode+0x11e0>)
 8005092:	681b      	ldr	r3, [r3, #0]
 8005094:	f443 7300 	orr.w	r3, r3, #512	; 0x200
 8005098:	6013      	str	r3, [r2, #0]
					break;
 800509a:	e1aa      	b.n	80053f2 <GPIO_VidPin_Mode+0x1436>
						else if(Copy_u8Mode==GPIO_Analog){Set_Bit(GPIO_D->MODER,GPIO_MODER_MODER_4_ANALOG);}
 800509c:	797b      	ldrb	r3, [r7, #5]
 800509e:	2b03      	cmp	r3, #3
 80050a0:	d106      	bne.n	80050b0 <GPIO_VidPin_Mode+0x10f4>
 80050a2:	4a3e      	ldr	r2, [pc, #248]	; (800519c <GPIO_VidPin_Mode+0x11e0>)
 80050a4:	4b3d      	ldr	r3, [pc, #244]	; (800519c <GPIO_VidPin_Mode+0x11e0>)
 80050a6:	681b      	ldr	r3, [r3, #0]
 80050a8:	f443 7340 	orr.w	r3, r3, #768	; 0x300
 80050ac:	6013      	str	r3, [r2, #0]
					break;
 80050ae:	e1a0      	b.n	80053f2 <GPIO_VidPin_Mode+0x1436>
						else{Clear_Bit(GPIO_D->MODER,GPIO_MODER_MODER_4_ANALOG);}
 80050b0:	4a3a      	ldr	r2, [pc, #232]	; (800519c <GPIO_VidPin_Mode+0x11e0>)
 80050b2:	4b3a      	ldr	r3, [pc, #232]	; (800519c <GPIO_VidPin_Mode+0x11e0>)
 80050b4:	681b      	ldr	r3, [r3, #0]
 80050b6:	f423 7340 	bic.w	r3, r3, #768	; 0x300
 80050ba:	6013      	str	r3, [r2, #0]
					break;
 80050bc:	e199      	b.n	80053f2 <GPIO_VidPin_Mode+0x1436>
				case (Pin_5):
						if(Copy_u8Mode==GPIO_Output){Set_Bit(GPIO_D->MODER,GPIO_MODER_MODER_5_OUTPUT);}
 80050be:	797b      	ldrb	r3, [r7, #5]
 80050c0:	2b01      	cmp	r3, #1
 80050c2:	d106      	bne.n	80050d2 <GPIO_VidPin_Mode+0x1116>
 80050c4:	4a35      	ldr	r2, [pc, #212]	; (800519c <GPIO_VidPin_Mode+0x11e0>)
 80050c6:	4b35      	ldr	r3, [pc, #212]	; (800519c <GPIO_VidPin_Mode+0x11e0>)
 80050c8:	681b      	ldr	r3, [r3, #0]
 80050ca:	f443 6380 	orr.w	r3, r3, #1024	; 0x400
 80050ce:	6013      	str	r3, [r2, #0]
						else if(Copy_u8Mode==GPIO_Alternate){Set_Bit(GPIO_D->MODER,GPIO_MODER_MODER_5_ALTERNATE);}
						else if(Copy_u8Mode==GPIO_Analog){Set_Bit(GPIO_D->MODER,GPIO_MODER_MODER_5_ANALOG);}
						else{Clear_Bit(GPIO_D->MODER,GPIO_MODER_MODER_5_ANALOG);}
					break;
 80050d0:	e18f      	b.n	80053f2 <GPIO_VidPin_Mode+0x1436>
						else if(Copy_u8Mode==GPIO_Alternate){Set_Bit(GPIO_D->MODER,GPIO_MODER_MODER_5_ALTERNATE);}
 80050d2:	797b      	ldrb	r3, [r7, #5]
 80050d4:	2b02      	cmp	r3, #2
 80050d6:	d106      	bne.n	80050e6 <GPIO_VidPin_Mode+0x112a>
 80050d8:	4a30      	ldr	r2, [pc, #192]	; (800519c <GPIO_VidPin_Mode+0x11e0>)
 80050da:	4b30      	ldr	r3, [pc, #192]	; (800519c <GPIO_VidPin_Mode+0x11e0>)
 80050dc:	681b      	ldr	r3, [r3, #0]
 80050de:	f443 6300 	orr.w	r3, r3, #2048	; 0x800
 80050e2:	6013      	str	r3, [r2, #0]
					break;
 80050e4:	e185      	b.n	80053f2 <GPIO_VidPin_Mode+0x1436>
						else if(Copy_u8Mode==GPIO_Analog){Set_Bit(GPIO_D->MODER,GPIO_MODER_MODER_5_ANALOG);}
 80050e6:	797b      	ldrb	r3, [r7, #5]
 80050e8:	2b03      	cmp	r3, #3
 80050ea:	d106      	bne.n	80050fa <GPIO_VidPin_Mode+0x113e>
 80050ec:	4a2b      	ldr	r2, [pc, #172]	; (800519c <GPIO_VidPin_Mode+0x11e0>)
 80050ee:	4b2b      	ldr	r3, [pc, #172]	; (800519c <GPIO_VidPin_Mode+0x11e0>)
 80050f0:	681b      	ldr	r3, [r3, #0]
 80050f2:	f443 6340 	orr.w	r3, r3, #3072	; 0xc00
 80050f6:	6013      	str	r3, [r2, #0]
					break;
 80050f8:	e17b      	b.n	80053f2 <GPIO_VidPin_Mode+0x1436>
						else{Clear_Bit(GPIO_D->MODER,GPIO_MODER_MODER_5_ANALOG);}
 80050fa:	4a28      	ldr	r2, [pc, #160]	; (800519c <GPIO_VidPin_Mode+0x11e0>)
 80050fc:	4b27      	ldr	r3, [pc, #156]	; (800519c <GPIO_VidPin_Mode+0x11e0>)
 80050fe:	681b      	ldr	r3, [r3, #0]
 8005100:	f423 6340 	bic.w	r3, r3, #3072	; 0xc00
 8005104:	6013      	str	r3, [r2, #0]
					break;
 8005106:	e174      	b.n	80053f2 <GPIO_VidPin_Mode+0x1436>
				case (Pin_6):
						if(Copy_u8Mode==GPIO_Output){Set_Bit(GPIO_D->MODER,GPIO_MODER_MODER_6_OUTPUT);}
 8005108:	797b      	ldrb	r3, [r7, #5]
 800510a:	2b01      	cmp	r3, #1
 800510c:	d106      	bne.n	800511c <GPIO_VidPin_Mode+0x1160>
 800510e:	4a23      	ldr	r2, [pc, #140]	; (800519c <GPIO_VidPin_Mode+0x11e0>)
 8005110:	4b22      	ldr	r3, [pc, #136]	; (800519c <GPIO_VidPin_Mode+0x11e0>)
 8005112:	681b      	ldr	r3, [r3, #0]
 8005114:	f443 5380 	orr.w	r3, r3, #4096	; 0x1000
 8005118:	6013      	str	r3, [r2, #0]
						else if(Copy_u8Mode==GPIO_Alternate){Set_Bit(GPIO_D->MODER,GPIO_MODER_MODER_6_ALTERNATE);}
						else if(Copy_u8Mode==GPIO_Analog){Set_Bit(GPIO_D->MODER,GPIO_MODER_MODER_6_ANALOG);}
						else{Clear_Bit(GPIO_D->MODER,GPIO_MODER_MODER_6_ANALOG);}
					break;
 800511a:	e16a      	b.n	80053f2 <GPIO_VidPin_Mode+0x1436>
						else if(Copy_u8Mode==GPIO_Alternate){Set_Bit(GPIO_D->MODER,GPIO_MODER_MODER_6_ALTERNATE);}
 800511c:	797b      	ldrb	r3, [r7, #5]
 800511e:	2b02      	cmp	r3, #2
 8005120:	d106      	bne.n	8005130 <GPIO_VidPin_Mode+0x1174>
 8005122:	4a1e      	ldr	r2, [pc, #120]	; (800519c <GPIO_VidPin_Mode+0x11e0>)
 8005124:	4b1d      	ldr	r3, [pc, #116]	; (800519c <GPIO_VidPin_Mode+0x11e0>)
 8005126:	681b      	ldr	r3, [r3, #0]
 8005128:	f443 5300 	orr.w	r3, r3, #8192	; 0x2000
 800512c:	6013      	str	r3, [r2, #0]
					break;
 800512e:	e160      	b.n	80053f2 <GPIO_VidPin_Mode+0x1436>
						else if(Copy_u8Mode==GPIO_Analog){Set_Bit(GPIO_D->MODER,GPIO_MODER_MODER_6_ANALOG);}
 8005130:	797b      	ldrb	r3, [r7, #5]
 8005132:	2b03      	cmp	r3, #3
 8005134:	d106      	bne.n	8005144 <GPIO_VidPin_Mode+0x1188>
 8005136:	4a19      	ldr	r2, [pc, #100]	; (800519c <GPIO_VidPin_Mode+0x11e0>)
 8005138:	4b18      	ldr	r3, [pc, #96]	; (800519c <GPIO_VidPin_Mode+0x11e0>)
 800513a:	681b      	ldr	r3, [r3, #0]
 800513c:	f443 5340 	orr.w	r3, r3, #12288	; 0x3000
 8005140:	6013      	str	r3, [r2, #0]
					break;
 8005142:	e156      	b.n	80053f2 <GPIO_VidPin_Mode+0x1436>
						else{Clear_Bit(GPIO_D->MODER,GPIO_MODER_MODER_6_ANALOG);}
 8005144:	4a15      	ldr	r2, [pc, #84]	; (800519c <GPIO_VidPin_Mode+0x11e0>)
 8005146:	4b15      	ldr	r3, [pc, #84]	; (800519c <GPIO_VidPin_Mode+0x11e0>)
 8005148:	681b      	ldr	r3, [r3, #0]
 800514a:	f423 5340 	bic.w	r3, r3, #12288	; 0x3000
 800514e:	6013      	str	r3, [r2, #0]
					break;
 8005150:	e14f      	b.n	80053f2 <GPIO_VidPin_Mode+0x1436>
				case (Pin_7):
						if(Copy_u8Mode==GPIO_Output){Set_Bit(GPIO_D->MODER,GPIO_MODER_MODER_7_OUTPUT);}
 8005152:	797b      	ldrb	r3, [r7, #5]
 8005154:	2b01      	cmp	r3, #1
 8005156:	d106      	bne.n	8005166 <GPIO_VidPin_Mode+0x11aa>
 8005158:	4a10      	ldr	r2, [pc, #64]	; (800519c <GPIO_VidPin_Mode+0x11e0>)
 800515a:	4b10      	ldr	r3, [pc, #64]	; (800519c <GPIO_VidPin_Mode+0x11e0>)
 800515c:	681b      	ldr	r3, [r3, #0]
 800515e:	f443 4380 	orr.w	r3, r3, #16384	; 0x4000
 8005162:	6013      	str	r3, [r2, #0]
						else if(Copy_u8Mode==GPIO_Alternate){Set_Bit(GPIO_D->MODER,GPIO_MODER_MODER_7_ALTERNATE);}
						else if(Copy_u8Mode==GPIO_Analog){Set_Bit(GPIO_D->MODER,GPIO_MODER_MODER_7_ANALOG);}
						else{Clear_Bit(GPIO_D->MODER,GPIO_MODER_MODER_7_ANALOG);}
					break;
 8005164:	e145      	b.n	80053f2 <GPIO_VidPin_Mode+0x1436>
						else if(Copy_u8Mode==GPIO_Alternate){Set_Bit(GPIO_D->MODER,GPIO_MODER_MODER_7_ALTERNATE);}
 8005166:	797b      	ldrb	r3, [r7, #5]
 8005168:	2b02      	cmp	r3, #2
 800516a:	d106      	bne.n	800517a <GPIO_VidPin_Mode+0x11be>
 800516c:	4a0b      	ldr	r2, [pc, #44]	; (800519c <GPIO_VidPin_Mode+0x11e0>)
 800516e:	4b0b      	ldr	r3, [pc, #44]	; (800519c <GPIO_VidPin_Mode+0x11e0>)
 8005170:	681b      	ldr	r3, [r3, #0]
 8005172:	f443 4300 	orr.w	r3, r3, #32768	; 0x8000
 8005176:	6013      	str	r3, [r2, #0]
					break;
 8005178:	e13b      	b.n	80053f2 <GPIO_VidPin_Mode+0x1436>
						else if(Copy_u8Mode==GPIO_Analog){Set_Bit(GPIO_D->MODER,GPIO_MODER_MODER_7_ANALOG);}
 800517a:	797b      	ldrb	r3, [r7, #5]
 800517c:	2b03      	cmp	r3, #3
 800517e:	d106      	bne.n	800518e <GPIO_VidPin_Mode+0x11d2>
 8005180:	4a06      	ldr	r2, [pc, #24]	; (800519c <GPIO_VidPin_Mode+0x11e0>)
 8005182:	4b06      	ldr	r3, [pc, #24]	; (800519c <GPIO_VidPin_Mode+0x11e0>)
 8005184:	681b      	ldr	r3, [r3, #0]
 8005186:	f443 4340 	orr.w	r3, r3, #49152	; 0xc000
 800518a:	6013      	str	r3, [r2, #0]
					break;
 800518c:	e131      	b.n	80053f2 <GPIO_VidPin_Mode+0x1436>
						else{Clear_Bit(GPIO_D->MODER,GPIO_MODER_MODER_7_ANALOG);}
 800518e:	4a03      	ldr	r2, [pc, #12]	; (800519c <GPIO_VidPin_Mode+0x11e0>)
 8005190:	4b02      	ldr	r3, [pc, #8]	; (800519c <GPIO_VidPin_Mode+0x11e0>)
 8005192:	681b      	ldr	r3, [r3, #0]
 8005194:	f423 4340 	bic.w	r3, r3, #49152	; 0xc000
 8005198:	6013      	str	r3, [r2, #0]
					break;
 800519a:	e12a      	b.n	80053f2 <GPIO_VidPin_Mode+0x1436>
 800519c:	40020c00 	.word	0x40020c00
				case (Pin_8):
						if(Copy_u8Mode==GPIO_Output){Set_Bit(GPIO_D->MODER,GPIO_MODER_MODER_8_OUTPUT);}
 80051a0:	797b      	ldrb	r3, [r7, #5]
 80051a2:	2b01      	cmp	r3, #1
 80051a4:	d106      	bne.n	80051b4 <GPIO_VidPin_Mode+0x11f8>
 80051a6:	4a93      	ldr	r2, [pc, #588]	; (80053f4 <GPIO_VidPin_Mode+0x1438>)
 80051a8:	4b92      	ldr	r3, [pc, #584]	; (80053f4 <GPIO_VidPin_Mode+0x1438>)
 80051aa:	681b      	ldr	r3, [r3, #0]
 80051ac:	f443 3380 	orr.w	r3, r3, #65536	; 0x10000
 80051b0:	6013      	str	r3, [r2, #0]
						else if(Copy_u8Mode==GPIO_Alternate){Set_Bit(GPIO_D->MODER,GPIO_MODER_MODER_8_ALTERNATE);}
						else if(Copy_u8Mode==GPIO_Analog){Set_Bit(GPIO_D->MODER,GPIO_MODER_MODER_8_ANALOG);}
						else{Clear_Bit(GPIO_D->MODER,GPIO_MODER_MODER_8_ANALOG);}
					break;
 80051b2:	e11e      	b.n	80053f2 <GPIO_VidPin_Mode+0x1436>
						else if(Copy_u8Mode==GPIO_Alternate){Set_Bit(GPIO_D->MODER,GPIO_MODER_MODER_8_ALTERNATE);}
 80051b4:	797b      	ldrb	r3, [r7, #5]
 80051b6:	2b02      	cmp	r3, #2
 80051b8:	d106      	bne.n	80051c8 <GPIO_VidPin_Mode+0x120c>
 80051ba:	4a8e      	ldr	r2, [pc, #568]	; (80053f4 <GPIO_VidPin_Mode+0x1438>)
 80051bc:	4b8d      	ldr	r3, [pc, #564]	; (80053f4 <GPIO_VidPin_Mode+0x1438>)
 80051be:	681b      	ldr	r3, [r3, #0]
 80051c0:	f443 3300 	orr.w	r3, r3, #131072	; 0x20000
 80051c4:	6013      	str	r3, [r2, #0]
					break;
 80051c6:	e114      	b.n	80053f2 <GPIO_VidPin_Mode+0x1436>
						else if(Copy_u8Mode==GPIO_Analog){Set_Bit(GPIO_D->MODER,GPIO_MODER_MODER_8_ANALOG);}
 80051c8:	797b      	ldrb	r3, [r7, #5]
 80051ca:	2b03      	cmp	r3, #3
 80051cc:	d106      	bne.n	80051dc <GPIO_VidPin_Mode+0x1220>
 80051ce:	4a89      	ldr	r2, [pc, #548]	; (80053f4 <GPIO_VidPin_Mode+0x1438>)
 80051d0:	4b88      	ldr	r3, [pc, #544]	; (80053f4 <GPIO_VidPin_Mode+0x1438>)
 80051d2:	681b      	ldr	r3, [r3, #0]
 80051d4:	f443 3340 	orr.w	r3, r3, #196608	; 0x30000
 80051d8:	6013      	str	r3, [r2, #0]
					break;
 80051da:	e10a      	b.n	80053f2 <GPIO_VidPin_Mode+0x1436>
						else{Clear_Bit(GPIO_D->MODER,GPIO_MODER_MODER_8_ANALOG);}
 80051dc:	4a85      	ldr	r2, [pc, #532]	; (80053f4 <GPIO_VidPin_Mode+0x1438>)
 80051de:	4b85      	ldr	r3, [pc, #532]	; (80053f4 <GPIO_VidPin_Mode+0x1438>)
 80051e0:	681b      	ldr	r3, [r3, #0]
 80051e2:	f423 3340 	bic.w	r3, r3, #196608	; 0x30000
 80051e6:	6013      	str	r3, [r2, #0]
					break;
 80051e8:	e103      	b.n	80053f2 <GPIO_VidPin_Mode+0x1436>
				case (Pin_9):
						if(Copy_u8Mode==GPIO_Output){Set_Bit(GPIO_D->MODER,GPIO_MODER_MODER_9_OUTPUT);}
 80051ea:	797b      	ldrb	r3, [r7, #5]
 80051ec:	2b01      	cmp	r3, #1
 80051ee:	d106      	bne.n	80051fe <GPIO_VidPin_Mode+0x1242>
 80051f0:	4a80      	ldr	r2, [pc, #512]	; (80053f4 <GPIO_VidPin_Mode+0x1438>)
 80051f2:	4b80      	ldr	r3, [pc, #512]	; (80053f4 <GPIO_VidPin_Mode+0x1438>)
 80051f4:	681b      	ldr	r3, [r3, #0]
 80051f6:	f443 2380 	orr.w	r3, r3, #262144	; 0x40000
 80051fa:	6013      	str	r3, [r2, #0]
						else if(Copy_u8Mode==GPIO_Alternate){Set_Bit(GPIO_D->MODER,GPIO_MODER_MODER_9_ALTERNATE);}
						else if(Copy_u8Mode==GPIO_Analog){Set_Bit(GPIO_D->MODER,GPIO_MODER_MODER_9_ANALOG);}
						else{Clear_Bit(GPIO_D->MODER,GPIO_MODER_MODER_9_ANALOG);}
					break;
 80051fc:	e0f9      	b.n	80053f2 <GPIO_VidPin_Mode+0x1436>
						else if(Copy_u8Mode==GPIO_Alternate){Set_Bit(GPIO_D->MODER,GPIO_MODER_MODER_9_ALTERNATE);}
 80051fe:	797b      	ldrb	r3, [r7, #5]
 8005200:	2b02      	cmp	r3, #2
 8005202:	d106      	bne.n	8005212 <GPIO_VidPin_Mode+0x1256>
 8005204:	4a7b      	ldr	r2, [pc, #492]	; (80053f4 <GPIO_VidPin_Mode+0x1438>)
 8005206:	4b7b      	ldr	r3, [pc, #492]	; (80053f4 <GPIO_VidPin_Mode+0x1438>)
 8005208:	681b      	ldr	r3, [r3, #0]
 800520a:	f443 2300 	orr.w	r3, r3, #524288	; 0x80000
 800520e:	6013      	str	r3, [r2, #0]
					break;
 8005210:	e0ef      	b.n	80053f2 <GPIO_VidPin_Mode+0x1436>
						else if(Copy_u8Mode==GPIO_Analog){Set_Bit(GPIO_D->MODER,GPIO_MODER_MODER_9_ANALOG);}
 8005212:	797b      	ldrb	r3, [r7, #5]
 8005214:	2b03      	cmp	r3, #3
 8005216:	d106      	bne.n	8005226 <GPIO_VidPin_Mode+0x126a>
 8005218:	4a76      	ldr	r2, [pc, #472]	; (80053f4 <GPIO_VidPin_Mode+0x1438>)
 800521a:	4b76      	ldr	r3, [pc, #472]	; (80053f4 <GPIO_VidPin_Mode+0x1438>)
 800521c:	681b      	ldr	r3, [r3, #0]
 800521e:	f443 2340 	orr.w	r3, r3, #786432	; 0xc0000
 8005222:	6013      	str	r3, [r2, #0]
					break;
 8005224:	e0e5      	b.n	80053f2 <GPIO_VidPin_Mode+0x1436>
						else{Clear_Bit(GPIO_D->MODER,GPIO_MODER_MODER_9_ANALOG);}
 8005226:	4a73      	ldr	r2, [pc, #460]	; (80053f4 <GPIO_VidPin_Mode+0x1438>)
 8005228:	4b72      	ldr	r3, [pc, #456]	; (80053f4 <GPIO_VidPin_Mode+0x1438>)
 800522a:	681b      	ldr	r3, [r3, #0]
 800522c:	f423 2340 	bic.w	r3, r3, #786432	; 0xc0000
 8005230:	6013      	str	r3, [r2, #0]
					break;
 8005232:	e0de      	b.n	80053f2 <GPIO_VidPin_Mode+0x1436>
				case (Pin_10):
						if(Copy_u8Mode==GPIO_Output){Set_Bit(GPIO_D->MODER,GPIO_MODER_MODER_10_OUTPUT);}
 8005234:	797b      	ldrb	r3, [r7, #5]
 8005236:	2b01      	cmp	r3, #1
 8005238:	d106      	bne.n	8005248 <GPIO_VidPin_Mode+0x128c>
 800523a:	4a6e      	ldr	r2, [pc, #440]	; (80053f4 <GPIO_VidPin_Mode+0x1438>)
 800523c:	4b6d      	ldr	r3, [pc, #436]	; (80053f4 <GPIO_VidPin_Mode+0x1438>)
 800523e:	681b      	ldr	r3, [r3, #0]
 8005240:	f443 1380 	orr.w	r3, r3, #1048576	; 0x100000
 8005244:	6013      	str	r3, [r2, #0]
						else if(Copy_u8Mode==GPIO_Alternate){Set_Bit(GPIO_D->MODER,GPIO_MODER_MODER_10_ALTERNATE);}
						else if(Copy_u8Mode==GPIO_Analog){Set_Bit(GPIO_D->MODER,GPIO_MODER_MODER_10_ANALOG);}
						else{Clear_Bit(GPIO_D->MODER,GPIO_MODER_MODER_10_ANALOG);}
					break;
 8005246:	e0d4      	b.n	80053f2 <GPIO_VidPin_Mode+0x1436>
						else if(Copy_u8Mode==GPIO_Alternate){Set_Bit(GPIO_D->MODER,GPIO_MODER_MODER_10_ALTERNATE);}
 8005248:	797b      	ldrb	r3, [r7, #5]
 800524a:	2b02      	cmp	r3, #2
 800524c:	d106      	bne.n	800525c <GPIO_VidPin_Mode+0x12a0>
 800524e:	4a69      	ldr	r2, [pc, #420]	; (80053f4 <GPIO_VidPin_Mode+0x1438>)
 8005250:	4b68      	ldr	r3, [pc, #416]	; (80053f4 <GPIO_VidPin_Mode+0x1438>)
 8005252:	681b      	ldr	r3, [r3, #0]
 8005254:	f443 1300 	orr.w	r3, r3, #2097152	; 0x200000
 8005258:	6013      	str	r3, [r2, #0]
					break;
 800525a:	e0ca      	b.n	80053f2 <GPIO_VidPin_Mode+0x1436>
						else if(Copy_u8Mode==GPIO_Analog){Set_Bit(GPIO_D->MODER,GPIO_MODER_MODER_10_ANALOG);}
 800525c:	797b      	ldrb	r3, [r7, #5]
 800525e:	2b03      	cmp	r3, #3
 8005260:	d106      	bne.n	8005270 <GPIO_VidPin_Mode+0x12b4>
 8005262:	4a64      	ldr	r2, [pc, #400]	; (80053f4 <GPIO_VidPin_Mode+0x1438>)
 8005264:	4b63      	ldr	r3, [pc, #396]	; (80053f4 <GPIO_VidPin_Mode+0x1438>)
 8005266:	681b      	ldr	r3, [r3, #0]
 8005268:	f443 1340 	orr.w	r3, r3, #3145728	; 0x300000
 800526c:	6013      	str	r3, [r2, #0]
					break;
 800526e:	e0c0      	b.n	80053f2 <GPIO_VidPin_Mode+0x1436>
						else{Clear_Bit(GPIO_D->MODER,GPIO_MODER_MODER_10_ANALOG);}
 8005270:	4a60      	ldr	r2, [pc, #384]	; (80053f4 <GPIO_VidPin_Mode+0x1438>)
 8005272:	4b60      	ldr	r3, [pc, #384]	; (80053f4 <GPIO_VidPin_Mode+0x1438>)
 8005274:	681b      	ldr	r3, [r3, #0]
 8005276:	f423 1340 	bic.w	r3, r3, #3145728	; 0x300000
 800527a:	6013      	str	r3, [r2, #0]
					break;
 800527c:	e0b9      	b.n	80053f2 <GPIO_VidPin_Mode+0x1436>
				case (Pin_11):
						if(Copy_u8Mode==GPIO_Output){Set_Bit(GPIO_D->MODER,GPIO_MODER_MODER_11_OUTPUT);}
 800527e:	797b      	ldrb	r3, [r7, #5]
 8005280:	2b01      	cmp	r3, #1
 8005282:	d106      	bne.n	8005292 <GPIO_VidPin_Mode+0x12d6>
 8005284:	4a5b      	ldr	r2, [pc, #364]	; (80053f4 <GPIO_VidPin_Mode+0x1438>)
 8005286:	4b5b      	ldr	r3, [pc, #364]	; (80053f4 <GPIO_VidPin_Mode+0x1438>)
 8005288:	681b      	ldr	r3, [r3, #0]
 800528a:	f443 0380 	orr.w	r3, r3, #4194304	; 0x400000
 800528e:	6013      	str	r3, [r2, #0]
						else if(Copy_u8Mode==GPIO_Alternate){Set_Bit(GPIO_D->MODER,GPIO_MODER_MODER_11_ALTERNATE);}
						else if(Copy_u8Mode==GPIO_Analog){Set_Bit(GPIO_D->MODER,GPIO_MODER_MODER_11_ANALOG);}
						else{Clear_Bit(GPIO_D->MODER,GPIO_MODER_MODER_11_ANALOG);}
					break;
 8005290:	e0af      	b.n	80053f2 <GPIO_VidPin_Mode+0x1436>
						else if(Copy_u8Mode==GPIO_Alternate){Set_Bit(GPIO_D->MODER,GPIO_MODER_MODER_11_ALTERNATE);}
 8005292:	797b      	ldrb	r3, [r7, #5]
 8005294:	2b02      	cmp	r3, #2
 8005296:	d106      	bne.n	80052a6 <GPIO_VidPin_Mode+0x12ea>
 8005298:	4a56      	ldr	r2, [pc, #344]	; (80053f4 <GPIO_VidPin_Mode+0x1438>)
 800529a:	4b56      	ldr	r3, [pc, #344]	; (80053f4 <GPIO_VidPin_Mode+0x1438>)
 800529c:	681b      	ldr	r3, [r3, #0]
 800529e:	f443 0300 	orr.w	r3, r3, #8388608	; 0x800000
 80052a2:	6013      	str	r3, [r2, #0]
					break;
 80052a4:	e0a5      	b.n	80053f2 <GPIO_VidPin_Mode+0x1436>
						else if(Copy_u8Mode==GPIO_Analog){Set_Bit(GPIO_D->MODER,GPIO_MODER_MODER_11_ANALOG);}
 80052a6:	797b      	ldrb	r3, [r7, #5]
 80052a8:	2b03      	cmp	r3, #3
 80052aa:	d106      	bne.n	80052ba <GPIO_VidPin_Mode+0x12fe>
 80052ac:	4a51      	ldr	r2, [pc, #324]	; (80053f4 <GPIO_VidPin_Mode+0x1438>)
 80052ae:	4b51      	ldr	r3, [pc, #324]	; (80053f4 <GPIO_VidPin_Mode+0x1438>)
 80052b0:	681b      	ldr	r3, [r3, #0]
 80052b2:	f443 0340 	orr.w	r3, r3, #12582912	; 0xc00000
 80052b6:	6013      	str	r3, [r2, #0]
					break;
 80052b8:	e09b      	b.n	80053f2 <GPIO_VidPin_Mode+0x1436>
						else{Clear_Bit(GPIO_D->MODER,GPIO_MODER_MODER_11_ANALOG);}
 80052ba:	4a4e      	ldr	r2, [pc, #312]	; (80053f4 <GPIO_VidPin_Mode+0x1438>)
 80052bc:	4b4d      	ldr	r3, [pc, #308]	; (80053f4 <GPIO_VidPin_Mode+0x1438>)
 80052be:	681b      	ldr	r3, [r3, #0]
 80052c0:	f423 0340 	bic.w	r3, r3, #12582912	; 0xc00000
 80052c4:	6013      	str	r3, [r2, #0]
					break;
 80052c6:	e094      	b.n	80053f2 <GPIO_VidPin_Mode+0x1436>
				case (Pin_12):
						if(Copy_u8Mode==GPIO_Output){Set_Bit(GPIO_D->MODER,GPIO_MODER_MODER_12_OUTPUT);}
 80052c8:	797b      	ldrb	r3, [r7, #5]
 80052ca:	2b01      	cmp	r3, #1
 80052cc:	d106      	bne.n	80052dc <GPIO_VidPin_Mode+0x1320>
 80052ce:	4a49      	ldr	r2, [pc, #292]	; (80053f4 <GPIO_VidPin_Mode+0x1438>)
 80052d0:	4b48      	ldr	r3, [pc, #288]	; (80053f4 <GPIO_VidPin_Mode+0x1438>)
 80052d2:	681b      	ldr	r3, [r3, #0]
 80052d4:	f043 7380 	orr.w	r3, r3, #16777216	; 0x1000000
 80052d8:	6013      	str	r3, [r2, #0]
						else if(Copy_u8Mode==GPIO_Alternate){Set_Bit(GPIO_D->MODER,GPIO_MODER_MODER_12_ALTERNATE);}
						else if(Copy_u8Mode==GPIO_Analog){Set_Bit(GPIO_D->MODER,GPIO_MODER_MODER_12_ANALOG);}
						else{Clear_Bit(GPIO_D->MODER,GPIO_MODER_MODER_12_ANALOG);}
					break;
 80052da:	e08a      	b.n	80053f2 <GPIO_VidPin_Mode+0x1436>
						else if(Copy_u8Mode==GPIO_Alternate){Set_Bit(GPIO_D->MODER,GPIO_MODER_MODER_12_ALTERNATE);}
 80052dc:	797b      	ldrb	r3, [r7, #5]
 80052de:	2b02      	cmp	r3, #2
 80052e0:	d106      	bne.n	80052f0 <GPIO_VidPin_Mode+0x1334>
 80052e2:	4a44      	ldr	r2, [pc, #272]	; (80053f4 <GPIO_VidPin_Mode+0x1438>)
 80052e4:	4b43      	ldr	r3, [pc, #268]	; (80053f4 <GPIO_VidPin_Mode+0x1438>)
 80052e6:	681b      	ldr	r3, [r3, #0]
 80052e8:	f043 7300 	orr.w	r3, r3, #33554432	; 0x2000000
 80052ec:	6013      	str	r3, [r2, #0]
					break;
 80052ee:	e080      	b.n	80053f2 <GPIO_VidPin_Mode+0x1436>
						else if(Copy_u8Mode==GPIO_Analog){Set_Bit(GPIO_D->MODER,GPIO_MODER_MODER_12_ANALOG);}
 80052f0:	797b      	ldrb	r3, [r7, #5]
 80052f2:	2b03      	cmp	r3, #3
 80052f4:	d106      	bne.n	8005304 <GPIO_VidPin_Mode+0x1348>
 80052f6:	4a3f      	ldr	r2, [pc, #252]	; (80053f4 <GPIO_VidPin_Mode+0x1438>)
 80052f8:	4b3e      	ldr	r3, [pc, #248]	; (80053f4 <GPIO_VidPin_Mode+0x1438>)
 80052fa:	681b      	ldr	r3, [r3, #0]
 80052fc:	f043 7340 	orr.w	r3, r3, #50331648	; 0x3000000
 8005300:	6013      	str	r3, [r2, #0]
					break;
 8005302:	e076      	b.n	80053f2 <GPIO_VidPin_Mode+0x1436>
						else{Clear_Bit(GPIO_D->MODER,GPIO_MODER_MODER_12_ANALOG);}
 8005304:	4a3b      	ldr	r2, [pc, #236]	; (80053f4 <GPIO_VidPin_Mode+0x1438>)
 8005306:	4b3b      	ldr	r3, [pc, #236]	; (80053f4 <GPIO_VidPin_Mode+0x1438>)
 8005308:	681b      	ldr	r3, [r3, #0]
 800530a:	f023 7340 	bic.w	r3, r3, #50331648	; 0x3000000
 800530e:	6013      	str	r3, [r2, #0]
					break;
 8005310:	e06f      	b.n	80053f2 <GPIO_VidPin_Mode+0x1436>
				case (Pin_13):
						if(Copy_u8Mode==GPIO_Output){Set_Bit(GPIO_D->MODER,GPIO_MODER_MODER_13_OUTPUT);}
 8005312:	797b      	ldrb	r3, [r7, #5]
 8005314:	2b01      	cmp	r3, #1
 8005316:	d106      	bne.n	8005326 <GPIO_VidPin_Mode+0x136a>
 8005318:	4a36      	ldr	r2, [pc, #216]	; (80053f4 <GPIO_VidPin_Mode+0x1438>)
 800531a:	4b36      	ldr	r3, [pc, #216]	; (80053f4 <GPIO_VidPin_Mode+0x1438>)
 800531c:	681b      	ldr	r3, [r3, #0]
 800531e:	f043 6380 	orr.w	r3, r3, #67108864	; 0x4000000
 8005322:	6013      	str	r3, [r2, #0]
						else if(Copy_u8Mode==GPIO_Alternate){Set_Bit(GPIO_D->MODER,GPIO_MODER_MODER_13_ALTERNATE);}
						else if(Copy_u8Mode==GPIO_Analog){Set_Bit(GPIO_D->MODER,GPIO_MODER_MODER_13_ANALOG);}
						else{Clear_Bit(GPIO_D->MODER,GPIO_MODER_MODER_13_ANALOG);}
					break;
 8005324:	e065      	b.n	80053f2 <GPIO_VidPin_Mode+0x1436>
						else if(Copy_u8Mode==GPIO_Alternate){Set_Bit(GPIO_D->MODER,GPIO_MODER_MODER_13_ALTERNATE);}
 8005326:	797b      	ldrb	r3, [r7, #5]
 8005328:	2b02      	cmp	r3, #2
 800532a:	d106      	bne.n	800533a <GPIO_VidPin_Mode+0x137e>
 800532c:	4a31      	ldr	r2, [pc, #196]	; (80053f4 <GPIO_VidPin_Mode+0x1438>)
 800532e:	4b31      	ldr	r3, [pc, #196]	; (80053f4 <GPIO_VidPin_Mode+0x1438>)
 8005330:	681b      	ldr	r3, [r3, #0]
 8005332:	f043 6300 	orr.w	r3, r3, #134217728	; 0x8000000
 8005336:	6013      	str	r3, [r2, #0]
					break;
 8005338:	e05b      	b.n	80053f2 <GPIO_VidPin_Mode+0x1436>
						else if(Copy_u8Mode==GPIO_Analog){Set_Bit(GPIO_D->MODER,GPIO_MODER_MODER_13_ANALOG);}
 800533a:	797b      	ldrb	r3, [r7, #5]
 800533c:	2b03      	cmp	r3, #3
 800533e:	d106      	bne.n	800534e <GPIO_VidPin_Mode+0x1392>
 8005340:	4a2c      	ldr	r2, [pc, #176]	; (80053f4 <GPIO_VidPin_Mode+0x1438>)
 8005342:	4b2c      	ldr	r3, [pc, #176]	; (80053f4 <GPIO_VidPin_Mode+0x1438>)
 8005344:	681b      	ldr	r3, [r3, #0]
 8005346:	f043 6340 	orr.w	r3, r3, #201326592	; 0xc000000
 800534a:	6013      	str	r3, [r2, #0]
					break;
 800534c:	e051      	b.n	80053f2 <GPIO_VidPin_Mode+0x1436>
						else{Clear_Bit(GPIO_D->MODER,GPIO_MODER_MODER_13_ANALOG);}
 800534e:	4a29      	ldr	r2, [pc, #164]	; (80053f4 <GPIO_VidPin_Mode+0x1438>)
 8005350:	4b28      	ldr	r3, [pc, #160]	; (80053f4 <GPIO_VidPin_Mode+0x1438>)
 8005352:	681b      	ldr	r3, [r3, #0]
 8005354:	f023 6340 	bic.w	r3, r3, #201326592	; 0xc000000
 8005358:	6013      	str	r3, [r2, #0]
					break;
 800535a:	e04a      	b.n	80053f2 <GPIO_VidPin_Mode+0x1436>
				case (Pin_14):
						if(Copy_u8Mode==GPIO_Output){Set_Bit(GPIO_D->MODER,GPIO_MODER_MODER_14_OUTPUT);}
 800535c:	797b      	ldrb	r3, [r7, #5]
 800535e:	2b01      	cmp	r3, #1
 8005360:	d106      	bne.n	8005370 <GPIO_VidPin_Mode+0x13b4>
 8005362:	4a24      	ldr	r2, [pc, #144]	; (80053f4 <GPIO_VidPin_Mode+0x1438>)
 8005364:	4b23      	ldr	r3, [pc, #140]	; (80053f4 <GPIO_VidPin_Mode+0x1438>)
 8005366:	681b      	ldr	r3, [r3, #0]
 8005368:	f043 5380 	orr.w	r3, r3, #268435456	; 0x10000000
 800536c:	6013      	str	r3, [r2, #0]
						else if(Copy_u8Mode==GPIO_Alternate){Set_Bit(GPIO_D->MODER,GPIO_MODER_MODER_14_ALTERNATE);}
						else if(Copy_u8Mode==GPIO_Analog){Set_Bit(GPIO_D->MODER,GPIO_MODER_MODER_14_ANALOG);}
						else{Clear_Bit(GPIO_D->MODER,GPIO_MODER_MODER_14_ANALOG);}
					break;
 800536e:	e040      	b.n	80053f2 <GPIO_VidPin_Mode+0x1436>
						else if(Copy_u8Mode==GPIO_Alternate){Set_Bit(GPIO_D->MODER,GPIO_MODER_MODER_14_ALTERNATE);}
 8005370:	797b      	ldrb	r3, [r7, #5]
 8005372:	2b02      	cmp	r3, #2
 8005374:	d106      	bne.n	8005384 <GPIO_VidPin_Mode+0x13c8>
 8005376:	4a1f      	ldr	r2, [pc, #124]	; (80053f4 <GPIO_VidPin_Mode+0x1438>)
 8005378:	4b1e      	ldr	r3, [pc, #120]	; (80053f4 <GPIO_VidPin_Mode+0x1438>)
 800537a:	681b      	ldr	r3, [r3, #0]
 800537c:	f043 5300 	orr.w	r3, r3, #536870912	; 0x20000000
 8005380:	6013      	str	r3, [r2, #0]
					break;
 8005382:	e036      	b.n	80053f2 <GPIO_VidPin_Mode+0x1436>
						else if(Copy_u8Mode==GPIO_Analog){Set_Bit(GPIO_D->MODER,GPIO_MODER_MODER_14_ANALOG);}
 8005384:	797b      	ldrb	r3, [r7, #5]
 8005386:	2b03      	cmp	r3, #3
 8005388:	d106      	bne.n	8005398 <GPIO_VidPin_Mode+0x13dc>
 800538a:	4a1a      	ldr	r2, [pc, #104]	; (80053f4 <GPIO_VidPin_Mode+0x1438>)
 800538c:	4b19      	ldr	r3, [pc, #100]	; (80053f4 <GPIO_VidPin_Mode+0x1438>)
 800538e:	681b      	ldr	r3, [r3, #0]
 8005390:	f043 5340 	orr.w	r3, r3, #805306368	; 0x30000000
 8005394:	6013      	str	r3, [r2, #0]
					break;
 8005396:	e02c      	b.n	80053f2 <GPIO_VidPin_Mode+0x1436>
						else{Clear_Bit(GPIO_D->MODER,GPIO_MODER_MODER_14_ANALOG);}
 8005398:	4a16      	ldr	r2, [pc, #88]	; (80053f4 <GPIO_VidPin_Mode+0x1438>)
 800539a:	4b16      	ldr	r3, [pc, #88]	; (80053f4 <GPIO_VidPin_Mode+0x1438>)
 800539c:	681b      	ldr	r3, [r3, #0]
 800539e:	f023 5340 	bic.w	r3, r3, #805306368	; 0x30000000
 80053a2:	6013      	str	r3, [r2, #0]
					break;
 80053a4:	e025      	b.n	80053f2 <GPIO_VidPin_Mode+0x1436>
				case (Pin_15):
						if(Copy_u8Mode==GPIO_Output){Set_Bit(GPIO_D->MODER,GPIO_MODER_MODER_15_OUTPUT);}
 80053a6:	797b      	ldrb	r3, [r7, #5]
 80053a8:	2b01      	cmp	r3, #1
 80053aa:	d106      	bne.n	80053ba <GPIO_VidPin_Mode+0x13fe>
 80053ac:	4a11      	ldr	r2, [pc, #68]	; (80053f4 <GPIO_VidPin_Mode+0x1438>)
 80053ae:	4b11      	ldr	r3, [pc, #68]	; (80053f4 <GPIO_VidPin_Mode+0x1438>)
 80053b0:	681b      	ldr	r3, [r3, #0]
 80053b2:	f043 4380 	orr.w	r3, r3, #1073741824	; 0x40000000
 80053b6:	6013      	str	r3, [r2, #0]
						else if(Copy_u8Mode==GPIO_Alternate){Set_Bit(GPIO_D->MODER,GPIO_MODER_MODER_15_ALTERNATE);}
						else if(Copy_u8Mode==GPIO_Analog){Set_Bit(GPIO_D->MODER,GPIO_MODER_MODER_15_ANALOG);}
						else{Clear_Bit(GPIO_D->MODER,GPIO_MODER_MODER_15_ANALOG);}
					break;
 80053b8:	e01b      	b.n	80053f2 <GPIO_VidPin_Mode+0x1436>
						else if(Copy_u8Mode==GPIO_Alternate){Set_Bit(GPIO_D->MODER,GPIO_MODER_MODER_15_ALTERNATE);}
 80053ba:	797b      	ldrb	r3, [r7, #5]
 80053bc:	2b02      	cmp	r3, #2
 80053be:	d106      	bne.n	80053ce <GPIO_VidPin_Mode+0x1412>
 80053c0:	4a0c      	ldr	r2, [pc, #48]	; (80053f4 <GPIO_VidPin_Mode+0x1438>)
 80053c2:	4b0c      	ldr	r3, [pc, #48]	; (80053f4 <GPIO_VidPin_Mode+0x1438>)
 80053c4:	681b      	ldr	r3, [r3, #0]
 80053c6:	f043 4300 	orr.w	r3, r3, #2147483648	; 0x80000000
 80053ca:	6013      	str	r3, [r2, #0]
					break;
 80053cc:	e011      	b.n	80053f2 <GPIO_VidPin_Mode+0x1436>
						else if(Copy_u8Mode==GPIO_Analog){Set_Bit(GPIO_D->MODER,GPIO_MODER_MODER_15_ANALOG);}
 80053ce:	797b      	ldrb	r3, [r7, #5]
 80053d0:	2b03      	cmp	r3, #3
 80053d2:	d106      	bne.n	80053e2 <GPIO_VidPin_Mode+0x1426>
 80053d4:	4a07      	ldr	r2, [pc, #28]	; (80053f4 <GPIO_VidPin_Mode+0x1438>)
 80053d6:	4b07      	ldr	r3, [pc, #28]	; (80053f4 <GPIO_VidPin_Mode+0x1438>)
 80053d8:	681b      	ldr	r3, [r3, #0]
 80053da:	f043 4340 	orr.w	r3, r3, #3221225472	; 0xc0000000
 80053de:	6013      	str	r3, [r2, #0]
					break;
 80053e0:	e007      	b.n	80053f2 <GPIO_VidPin_Mode+0x1436>
						else{Clear_Bit(GPIO_D->MODER,GPIO_MODER_MODER_15_ANALOG);}
 80053e2:	4a04      	ldr	r2, [pc, #16]	; (80053f4 <GPIO_VidPin_Mode+0x1438>)
 80053e4:	4b03      	ldr	r3, [pc, #12]	; (80053f4 <GPIO_VidPin_Mode+0x1438>)
 80053e6:	681b      	ldr	r3, [r3, #0]
 80053e8:	f023 4340 	bic.w	r3, r3, #3221225472	; 0xc0000000
 80053ec:	6013      	str	r3, [r2, #0]
					break;
 80053ee:	e000      	b.n	80053f2 <GPIO_VidPin_Mode+0x1436>
				default:break;
 80053f0:	bf00      	nop
			}
			break;
 80053f2:	e27e      	b.n	80058f2 <GPIO_VidPin_Mode+0x1936>
 80053f4:	40020c00 	.word	0x40020c00
		case(Port_E):
			switch (Copy_u8Pin)
 80053f8:	79bb      	ldrb	r3, [r7, #6]
 80053fa:	2b0f      	cmp	r3, #15
 80053fc:	f200 8276 	bhi.w	80058ec <GPIO_VidPin_Mode+0x1930>
 8005400:	a201      	add	r2, pc, #4	; (adr r2, 8005408 <GPIO_VidPin_Mode+0x144c>)
 8005402:	f852 f023 	ldr.w	pc, [r2, r3, lsl #2]
 8005406:	bf00      	nop
 8005408:	08005449 	.word	0x08005449
 800540c:	08005493 	.word	0x08005493
 8005410:	080054dd 	.word	0x080054dd
 8005414:	08005527 	.word	0x08005527
 8005418:	08005571 	.word	0x08005571
 800541c:	080055bb 	.word	0x080055bb
 8005420:	08005605 	.word	0x08005605
 8005424:	0800564f 	.word	0x0800564f
 8005428:	0800569d 	.word	0x0800569d
 800542c:	080056e7 	.word	0x080056e7
 8005430:	08005731 	.word	0x08005731
 8005434:	0800577b 	.word	0x0800577b
 8005438:	080057c5 	.word	0x080057c5
 800543c:	0800580f 	.word	0x0800580f
 8005440:	08005859 	.word	0x08005859
 8005444:	080058a3 	.word	0x080058a3
			{
				case (Pin_0):
						if(Copy_u8Mode==GPIO_Output){Set_Bit(GPIO_E->MODER,GPIO_MODER_MODER_0_OUTPUT);}
 8005448:	797b      	ldrb	r3, [r7, #5]
 800544a:	2b01      	cmp	r3, #1
 800544c:	d106      	bne.n	800545c <GPIO_VidPin_Mode+0x14a0>
 800544e:	4a92      	ldr	r2, [pc, #584]	; (8005698 <GPIO_VidPin_Mode+0x16dc>)
 8005450:	4b91      	ldr	r3, [pc, #580]	; (8005698 <GPIO_VidPin_Mode+0x16dc>)
 8005452:	681b      	ldr	r3, [r3, #0]
 8005454:	f043 0301 	orr.w	r3, r3, #1
 8005458:	6013      	str	r3, [r2, #0]
						else if(Copy_u8Mode==GPIO_Alternate){Set_Bit(GPIO_E->MODER,GPIO_MODER_MODER_0_ALTERNATE);}
						else if(Copy_u8Mode==GPIO_Analog){Set_Bit(GPIO_E->MODER,GPIO_MODER_MODER_0_ANALOG);}
						else{Clear_Bit(GPIO_E->MODER,GPIO_MODER_MODER_0_ANALOG);}
					break;
 800545a:	e248      	b.n	80058ee <GPIO_VidPin_Mode+0x1932>
						else if(Copy_u8Mode==GPIO_Alternate){Set_Bit(GPIO_E->MODER,GPIO_MODER_MODER_0_ALTERNATE);}
 800545c:	797b      	ldrb	r3, [r7, #5]
 800545e:	2b02      	cmp	r3, #2
 8005460:	d106      	bne.n	8005470 <GPIO_VidPin_Mode+0x14b4>
 8005462:	4a8d      	ldr	r2, [pc, #564]	; (8005698 <GPIO_VidPin_Mode+0x16dc>)
 8005464:	4b8c      	ldr	r3, [pc, #560]	; (8005698 <GPIO_VidPin_Mode+0x16dc>)
 8005466:	681b      	ldr	r3, [r3, #0]
 8005468:	f043 0302 	orr.w	r3, r3, #2
 800546c:	6013      	str	r3, [r2, #0]
					break;
 800546e:	e23e      	b.n	80058ee <GPIO_VidPin_Mode+0x1932>
						else if(Copy_u8Mode==GPIO_Analog){Set_Bit(GPIO_E->MODER,GPIO_MODER_MODER_0_ANALOG);}
 8005470:	797b      	ldrb	r3, [r7, #5]
 8005472:	2b03      	cmp	r3, #3
 8005474:	d106      	bne.n	8005484 <GPIO_VidPin_Mode+0x14c8>
 8005476:	4a88      	ldr	r2, [pc, #544]	; (8005698 <GPIO_VidPin_Mode+0x16dc>)
 8005478:	4b87      	ldr	r3, [pc, #540]	; (8005698 <GPIO_VidPin_Mode+0x16dc>)
 800547a:	681b      	ldr	r3, [r3, #0]
 800547c:	f043 0303 	orr.w	r3, r3, #3
 8005480:	6013      	str	r3, [r2, #0]
					break;
 8005482:	e234      	b.n	80058ee <GPIO_VidPin_Mode+0x1932>
						else{Clear_Bit(GPIO_E->MODER,GPIO_MODER_MODER_0_ANALOG);}
 8005484:	4a84      	ldr	r2, [pc, #528]	; (8005698 <GPIO_VidPin_Mode+0x16dc>)
 8005486:	4b84      	ldr	r3, [pc, #528]	; (8005698 <GPIO_VidPin_Mode+0x16dc>)
 8005488:	681b      	ldr	r3, [r3, #0]
 800548a:	f023 0303 	bic.w	r3, r3, #3
 800548e:	6013      	str	r3, [r2, #0]
					break;
 8005490:	e22d      	b.n	80058ee <GPIO_VidPin_Mode+0x1932>
				case (Pin_1):
						if(Copy_u8Mode==GPIO_Output){Set_Bit(GPIO_E->MODER,GPIO_MODER_MODER_1_OUTPUT);}
 8005492:	797b      	ldrb	r3, [r7, #5]
 8005494:	2b01      	cmp	r3, #1
 8005496:	d106      	bne.n	80054a6 <GPIO_VidPin_Mode+0x14ea>
 8005498:	4a7f      	ldr	r2, [pc, #508]	; (8005698 <GPIO_VidPin_Mode+0x16dc>)
 800549a:	4b7f      	ldr	r3, [pc, #508]	; (8005698 <GPIO_VidPin_Mode+0x16dc>)
 800549c:	681b      	ldr	r3, [r3, #0]
 800549e:	f043 0304 	orr.w	r3, r3, #4
 80054a2:	6013      	str	r3, [r2, #0]
						else if(Copy_u8Mode==GPIO_Alternate){Set_Bit(GPIO_E->MODER,GPIO_MODER_MODER_1_ALTERNATE);}
						else if(Copy_u8Mode==GPIO_Analog){Set_Bit(GPIO_E->MODER,GPIO_MODER_MODER_1_ANALOG);}
						else{Clear_Bit(GPIO_E->MODER,GPIO_MODER_MODER_1_ANALOG);}
					break;
 80054a4:	e223      	b.n	80058ee <GPIO_VidPin_Mode+0x1932>
						else if(Copy_u8Mode==GPIO_Alternate){Set_Bit(GPIO_E->MODER,GPIO_MODER_MODER_1_ALTERNATE);}
 80054a6:	797b      	ldrb	r3, [r7, #5]
 80054a8:	2b02      	cmp	r3, #2
 80054aa:	d106      	bne.n	80054ba <GPIO_VidPin_Mode+0x14fe>
 80054ac:	4a7a      	ldr	r2, [pc, #488]	; (8005698 <GPIO_VidPin_Mode+0x16dc>)
 80054ae:	4b7a      	ldr	r3, [pc, #488]	; (8005698 <GPIO_VidPin_Mode+0x16dc>)
 80054b0:	681b      	ldr	r3, [r3, #0]
 80054b2:	f043 0308 	orr.w	r3, r3, #8
 80054b6:	6013      	str	r3, [r2, #0]
					break;
 80054b8:	e219      	b.n	80058ee <GPIO_VidPin_Mode+0x1932>
						else if(Copy_u8Mode==GPIO_Analog){Set_Bit(GPIO_E->MODER,GPIO_MODER_MODER_1_ANALOG);}
 80054ba:	797b      	ldrb	r3, [r7, #5]
 80054bc:	2b03      	cmp	r3, #3
 80054be:	d106      	bne.n	80054ce <GPIO_VidPin_Mode+0x1512>
 80054c0:	4a75      	ldr	r2, [pc, #468]	; (8005698 <GPIO_VidPin_Mode+0x16dc>)
 80054c2:	4b75      	ldr	r3, [pc, #468]	; (8005698 <GPIO_VidPin_Mode+0x16dc>)
 80054c4:	681b      	ldr	r3, [r3, #0]
 80054c6:	f043 030c 	orr.w	r3, r3, #12
 80054ca:	6013      	str	r3, [r2, #0]
					break;
 80054cc:	e20f      	b.n	80058ee <GPIO_VidPin_Mode+0x1932>
						else{Clear_Bit(GPIO_E->MODER,GPIO_MODER_MODER_1_ANALOG);}
 80054ce:	4a72      	ldr	r2, [pc, #456]	; (8005698 <GPIO_VidPin_Mode+0x16dc>)
 80054d0:	4b71      	ldr	r3, [pc, #452]	; (8005698 <GPIO_VidPin_Mode+0x16dc>)
 80054d2:	681b      	ldr	r3, [r3, #0]
 80054d4:	f023 030c 	bic.w	r3, r3, #12
 80054d8:	6013      	str	r3, [r2, #0]
					break;
 80054da:	e208      	b.n	80058ee <GPIO_VidPin_Mode+0x1932>
				case (Pin_2):
						if(Copy_u8Mode==GPIO_Output){Set_Bit(GPIO_E->MODER,GPIO_MODER_MODER_2_OUTPUT);}
 80054dc:	797b      	ldrb	r3, [r7, #5]
 80054de:	2b01      	cmp	r3, #1
 80054e0:	d106      	bne.n	80054f0 <GPIO_VidPin_Mode+0x1534>
 80054e2:	4a6d      	ldr	r2, [pc, #436]	; (8005698 <GPIO_VidPin_Mode+0x16dc>)
 80054e4:	4b6c      	ldr	r3, [pc, #432]	; (8005698 <GPIO_VidPin_Mode+0x16dc>)
 80054e6:	681b      	ldr	r3, [r3, #0]
 80054e8:	f043 0310 	orr.w	r3, r3, #16
 80054ec:	6013      	str	r3, [r2, #0]
						else if(Copy_u8Mode==GPIO_Alternate){Set_Bit(GPIO_E->MODER,GPIO_MODER_MODER_2_ALTERNATE);}
						else if(Copy_u8Mode==GPIO_Analog){Set_Bit(GPIO_E->MODER,GPIO_MODER_MODER_2_ANALOG);}
						else{Clear_Bit(GPIO_E->MODER,GPIO_MODER_MODER_2_ANALOG);}
					break;
 80054ee:	e1fe      	b.n	80058ee <GPIO_VidPin_Mode+0x1932>
						else if(Copy_u8Mode==GPIO_Alternate){Set_Bit(GPIO_E->MODER,GPIO_MODER_MODER_2_ALTERNATE);}
 80054f0:	797b      	ldrb	r3, [r7, #5]
 80054f2:	2b02      	cmp	r3, #2
 80054f4:	d106      	bne.n	8005504 <GPIO_VidPin_Mode+0x1548>
 80054f6:	4a68      	ldr	r2, [pc, #416]	; (8005698 <GPIO_VidPin_Mode+0x16dc>)
 80054f8:	4b67      	ldr	r3, [pc, #412]	; (8005698 <GPIO_VidPin_Mode+0x16dc>)
 80054fa:	681b      	ldr	r3, [r3, #0]
 80054fc:	f043 0320 	orr.w	r3, r3, #32
 8005500:	6013      	str	r3, [r2, #0]
					break;
 8005502:	e1f4      	b.n	80058ee <GPIO_VidPin_Mode+0x1932>
						else if(Copy_u8Mode==GPIO_Analog){Set_Bit(GPIO_E->MODER,GPIO_MODER_MODER_2_ANALOG);}
 8005504:	797b      	ldrb	r3, [r7, #5]
 8005506:	2b03      	cmp	r3, #3
 8005508:	d106      	bne.n	8005518 <GPIO_VidPin_Mode+0x155c>
 800550a:	4a63      	ldr	r2, [pc, #396]	; (8005698 <GPIO_VidPin_Mode+0x16dc>)
 800550c:	4b62      	ldr	r3, [pc, #392]	; (8005698 <GPIO_VidPin_Mode+0x16dc>)
 800550e:	681b      	ldr	r3, [r3, #0]
 8005510:	f043 0330 	orr.w	r3, r3, #48	; 0x30
 8005514:	6013      	str	r3, [r2, #0]
					break;
 8005516:	e1ea      	b.n	80058ee <GPIO_VidPin_Mode+0x1932>
						else{Clear_Bit(GPIO_E->MODER,GPIO_MODER_MODER_2_ANALOG);}
 8005518:	4a5f      	ldr	r2, [pc, #380]	; (8005698 <GPIO_VidPin_Mode+0x16dc>)
 800551a:	4b5f      	ldr	r3, [pc, #380]	; (8005698 <GPIO_VidPin_Mode+0x16dc>)
 800551c:	681b      	ldr	r3, [r3, #0]
 800551e:	f023 0330 	bic.w	r3, r3, #48	; 0x30
 8005522:	6013      	str	r3, [r2, #0]
					break;
 8005524:	e1e3      	b.n	80058ee <GPIO_VidPin_Mode+0x1932>
				case (Pin_3):
						if(Copy_u8Mode==GPIO_Output){Set_Bit(GPIO_E->MODER,GPIO_MODER_MODER_3_OUTPUT);}
 8005526:	797b      	ldrb	r3, [r7, #5]
 8005528:	2b01      	cmp	r3, #1
 800552a:	d106      	bne.n	800553a <GPIO_VidPin_Mode+0x157e>
 800552c:	4a5a      	ldr	r2, [pc, #360]	; (8005698 <GPIO_VidPin_Mode+0x16dc>)
 800552e:	4b5a      	ldr	r3, [pc, #360]	; (8005698 <GPIO_VidPin_Mode+0x16dc>)
 8005530:	681b      	ldr	r3, [r3, #0]
 8005532:	f043 0340 	orr.w	r3, r3, #64	; 0x40
 8005536:	6013      	str	r3, [r2, #0]
						else if(Copy_u8Mode==GPIO_Alternate){Set_Bit(GPIO_E->MODER,GPIO_MODER_MODER_3_ALTERNATE);}
						else if(Copy_u8Mode==GPIO_Analog){Set_Bit(GPIO_E->MODER,GPIO_MODER_MODER_3_ANALOG);}
						else{Clear_Bit(GPIO_E->MODER,GPIO_MODER_MODER_3_ANALOG);}
					break;
 8005538:	e1d9      	b.n	80058ee <GPIO_VidPin_Mode+0x1932>
						else if(Copy_u8Mode==GPIO_Alternate){Set_Bit(GPIO_E->MODER,GPIO_MODER_MODER_3_ALTERNATE);}
 800553a:	797b      	ldrb	r3, [r7, #5]
 800553c:	2b02      	cmp	r3, #2
 800553e:	d106      	bne.n	800554e <GPIO_VidPin_Mode+0x1592>
 8005540:	4a55      	ldr	r2, [pc, #340]	; (8005698 <GPIO_VidPin_Mode+0x16dc>)
 8005542:	4b55      	ldr	r3, [pc, #340]	; (8005698 <GPIO_VidPin_Mode+0x16dc>)
 8005544:	681b      	ldr	r3, [r3, #0]
 8005546:	f043 0380 	orr.w	r3, r3, #128	; 0x80
 800554a:	6013      	str	r3, [r2, #0]
					break;
 800554c:	e1cf      	b.n	80058ee <GPIO_VidPin_Mode+0x1932>
						else if(Copy_u8Mode==GPIO_Analog){Set_Bit(GPIO_E->MODER,GPIO_MODER_MODER_3_ANALOG);}
 800554e:	797b      	ldrb	r3, [r7, #5]
 8005550:	2b03      	cmp	r3, #3
 8005552:	d106      	bne.n	8005562 <GPIO_VidPin_Mode+0x15a6>
 8005554:	4a50      	ldr	r2, [pc, #320]	; (8005698 <GPIO_VidPin_Mode+0x16dc>)
 8005556:	4b50      	ldr	r3, [pc, #320]	; (8005698 <GPIO_VidPin_Mode+0x16dc>)
 8005558:	681b      	ldr	r3, [r3, #0]
 800555a:	f043 03c0 	orr.w	r3, r3, #192	; 0xc0
 800555e:	6013      	str	r3, [r2, #0]
					break;
 8005560:	e1c5      	b.n	80058ee <GPIO_VidPin_Mode+0x1932>
						else{Clear_Bit(GPIO_E->MODER,GPIO_MODER_MODER_3_ANALOG);}
 8005562:	4a4d      	ldr	r2, [pc, #308]	; (8005698 <GPIO_VidPin_Mode+0x16dc>)
 8005564:	4b4c      	ldr	r3, [pc, #304]	; (8005698 <GPIO_VidPin_Mode+0x16dc>)
 8005566:	681b      	ldr	r3, [r3, #0]
 8005568:	f023 03c0 	bic.w	r3, r3, #192	; 0xc0
 800556c:	6013      	str	r3, [r2, #0]
					break;
 800556e:	e1be      	b.n	80058ee <GPIO_VidPin_Mode+0x1932>
				case (Pin_4):
						if(Copy_u8Mode==GPIO_Output){Set_Bit(GPIO_E->MODER,GPIO_MODER_MODER_4_OUTPUT);}
 8005570:	797b      	ldrb	r3, [r7, #5]
 8005572:	2b01      	cmp	r3, #1
 8005574:	d106      	bne.n	8005584 <GPIO_VidPin_Mode+0x15c8>
 8005576:	4a48      	ldr	r2, [pc, #288]	; (8005698 <GPIO_VidPin_Mode+0x16dc>)
 8005578:	4b47      	ldr	r3, [pc, #284]	; (8005698 <GPIO_VidPin_Mode+0x16dc>)
 800557a:	681b      	ldr	r3, [r3, #0]
 800557c:	f443 7380 	orr.w	r3, r3, #256	; 0x100
 8005580:	6013      	str	r3, [r2, #0]
						else if(Copy_u8Mode==GPIO_Alternate){Set_Bit(GPIO_E->MODER,GPIO_MODER_MODER_4_ALTERNATE);}
						else if(Copy_u8Mode==GPIO_Analog){Set_Bit(GPIO_E->MODER,GPIO_MODER_MODER_4_ANALOG);}
						else{Clear_Bit(GPIO_E->MODER,GPIO_MODER_MODER_4_ANALOG);}
					break;
 8005582:	e1b4      	b.n	80058ee <GPIO_VidPin_Mode+0x1932>
						else if(Copy_u8Mode==GPIO_Alternate){Set_Bit(GPIO_E->MODER,GPIO_MODER_MODER_4_ALTERNATE);}
 8005584:	797b      	ldrb	r3, [r7, #5]
 8005586:	2b02      	cmp	r3, #2
 8005588:	d106      	bne.n	8005598 <GPIO_VidPin_Mode+0x15dc>
 800558a:	4a43      	ldr	r2, [pc, #268]	; (8005698 <GPIO_VidPin_Mode+0x16dc>)
 800558c:	4b42      	ldr	r3, [pc, #264]	; (8005698 <GPIO_VidPin_Mode+0x16dc>)
 800558e:	681b      	ldr	r3, [r3, #0]
 8005590:	f443 7300 	orr.w	r3, r3, #512	; 0x200
 8005594:	6013      	str	r3, [r2, #0]
					break;
 8005596:	e1aa      	b.n	80058ee <GPIO_VidPin_Mode+0x1932>
						else if(Copy_u8Mode==GPIO_Analog){Set_Bit(GPIO_E->MODER,GPIO_MODER_MODER_4_ANALOG);}
 8005598:	797b      	ldrb	r3, [r7, #5]
 800559a:	2b03      	cmp	r3, #3
 800559c:	d106      	bne.n	80055ac <GPIO_VidPin_Mode+0x15f0>
 800559e:	4a3e      	ldr	r2, [pc, #248]	; (8005698 <GPIO_VidPin_Mode+0x16dc>)
 80055a0:	4b3d      	ldr	r3, [pc, #244]	; (8005698 <GPIO_VidPin_Mode+0x16dc>)
 80055a2:	681b      	ldr	r3, [r3, #0]
 80055a4:	f443 7340 	orr.w	r3, r3, #768	; 0x300
 80055a8:	6013      	str	r3, [r2, #0]
					break;
 80055aa:	e1a0      	b.n	80058ee <GPIO_VidPin_Mode+0x1932>
						else{Clear_Bit(GPIO_E->MODER,GPIO_MODER_MODER_4_ANALOG);}
 80055ac:	4a3a      	ldr	r2, [pc, #232]	; (8005698 <GPIO_VidPin_Mode+0x16dc>)
 80055ae:	4b3a      	ldr	r3, [pc, #232]	; (8005698 <GPIO_VidPin_Mode+0x16dc>)
 80055b0:	681b      	ldr	r3, [r3, #0]
 80055b2:	f423 7340 	bic.w	r3, r3, #768	; 0x300
 80055b6:	6013      	str	r3, [r2, #0]
					break;
 80055b8:	e199      	b.n	80058ee <GPIO_VidPin_Mode+0x1932>
				case (Pin_5):
						if(Copy_u8Mode==GPIO_Output){Set_Bit(GPIO_E->MODER,GPIO_MODER_MODER_5_OUTPUT);}
 80055ba:	797b      	ldrb	r3, [r7, #5]
 80055bc:	2b01      	cmp	r3, #1
 80055be:	d106      	bne.n	80055ce <GPIO_VidPin_Mode+0x1612>
 80055c0:	4a35      	ldr	r2, [pc, #212]	; (8005698 <GPIO_VidPin_Mode+0x16dc>)
 80055c2:	4b35      	ldr	r3, [pc, #212]	; (8005698 <GPIO_VidPin_Mode+0x16dc>)
 80055c4:	681b      	ldr	r3, [r3, #0]
 80055c6:	f443 6380 	orr.w	r3, r3, #1024	; 0x400
 80055ca:	6013      	str	r3, [r2, #0]
						else if(Copy_u8Mode==GPIO_Alternate){Set_Bit(GPIO_E->MODER,GPIO_MODER_MODER_5_ALTERNATE);}
						else if(Copy_u8Mode==GPIO_Analog){Set_Bit(GPIO_E->MODER,GPIO_MODER_MODER_5_ANALOG);}
						else{Clear_Bit(GPIO_E->MODER,GPIO_MODER_MODER_5_ANALOG);}
					break;
 80055cc:	e18f      	b.n	80058ee <GPIO_VidPin_Mode+0x1932>
						else if(Copy_u8Mode==GPIO_Alternate){Set_Bit(GPIO_E->MODER,GPIO_MODER_MODER_5_ALTERNATE);}
 80055ce:	797b      	ldrb	r3, [r7, #5]
 80055d0:	2b02      	cmp	r3, #2
 80055d2:	d106      	bne.n	80055e2 <GPIO_VidPin_Mode+0x1626>
 80055d4:	4a30      	ldr	r2, [pc, #192]	; (8005698 <GPIO_VidPin_Mode+0x16dc>)
 80055d6:	4b30      	ldr	r3, [pc, #192]	; (8005698 <GPIO_VidPin_Mode+0x16dc>)
 80055d8:	681b      	ldr	r3, [r3, #0]
 80055da:	f443 6300 	orr.w	r3, r3, #2048	; 0x800
 80055de:	6013      	str	r3, [r2, #0]
					break;
 80055e0:	e185      	b.n	80058ee <GPIO_VidPin_Mode+0x1932>
						else if(Copy_u8Mode==GPIO_Analog){Set_Bit(GPIO_E->MODER,GPIO_MODER_MODER_5_ANALOG);}
 80055e2:	797b      	ldrb	r3, [r7, #5]
 80055e4:	2b03      	cmp	r3, #3
 80055e6:	d106      	bne.n	80055f6 <GPIO_VidPin_Mode+0x163a>
 80055e8:	4a2b      	ldr	r2, [pc, #172]	; (8005698 <GPIO_VidPin_Mode+0x16dc>)
 80055ea:	4b2b      	ldr	r3, [pc, #172]	; (8005698 <GPIO_VidPin_Mode+0x16dc>)
 80055ec:	681b      	ldr	r3, [r3, #0]
 80055ee:	f443 6340 	orr.w	r3, r3, #3072	; 0xc00
 80055f2:	6013      	str	r3, [r2, #0]
					break;
 80055f4:	e17b      	b.n	80058ee <GPIO_VidPin_Mode+0x1932>
						else{Clear_Bit(GPIO_E->MODER,GPIO_MODER_MODER_5_ANALOG);}
 80055f6:	4a28      	ldr	r2, [pc, #160]	; (8005698 <GPIO_VidPin_Mode+0x16dc>)
 80055f8:	4b27      	ldr	r3, [pc, #156]	; (8005698 <GPIO_VidPin_Mode+0x16dc>)
 80055fa:	681b      	ldr	r3, [r3, #0]
 80055fc:	f423 6340 	bic.w	r3, r3, #3072	; 0xc00
 8005600:	6013      	str	r3, [r2, #0]
					break;
 8005602:	e174      	b.n	80058ee <GPIO_VidPin_Mode+0x1932>
				case (Pin_6):
						if(Copy_u8Mode==GPIO_Output){Set_Bit(GPIO_E->MODER,GPIO_MODER_MODER_6_OUTPUT);}
 8005604:	797b      	ldrb	r3, [r7, #5]
 8005606:	2b01      	cmp	r3, #1
 8005608:	d106      	bne.n	8005618 <GPIO_VidPin_Mode+0x165c>
 800560a:	4a23      	ldr	r2, [pc, #140]	; (8005698 <GPIO_VidPin_Mode+0x16dc>)
 800560c:	4b22      	ldr	r3, [pc, #136]	; (8005698 <GPIO_VidPin_Mode+0x16dc>)
 800560e:	681b      	ldr	r3, [r3, #0]
 8005610:	f443 5380 	orr.w	r3, r3, #4096	; 0x1000
 8005614:	6013      	str	r3, [r2, #0]
						else if(Copy_u8Mode==GPIO_Alternate){Set_Bit(GPIO_E->MODER,GPIO_MODER_MODER_6_ALTERNATE);}
						else if(Copy_u8Mode==GPIO_Analog){Set_Bit(GPIO_E->MODER,GPIO_MODER_MODER_6_ANALOG);}
						else{Clear_Bit(GPIO_E->MODER,GPIO_MODER_MODER_6_ANALOG);}
					break;
 8005616:	e16a      	b.n	80058ee <GPIO_VidPin_Mode+0x1932>
						else if(Copy_u8Mode==GPIO_Alternate){Set_Bit(GPIO_E->MODER,GPIO_MODER_MODER_6_ALTERNATE);}
 8005618:	797b      	ldrb	r3, [r7, #5]
 800561a:	2b02      	cmp	r3, #2
 800561c:	d106      	bne.n	800562c <GPIO_VidPin_Mode+0x1670>
 800561e:	4a1e      	ldr	r2, [pc, #120]	; (8005698 <GPIO_VidPin_Mode+0x16dc>)
 8005620:	4b1d      	ldr	r3, [pc, #116]	; (8005698 <GPIO_VidPin_Mode+0x16dc>)
 8005622:	681b      	ldr	r3, [r3, #0]
 8005624:	f443 5300 	orr.w	r3, r3, #8192	; 0x2000
 8005628:	6013      	str	r3, [r2, #0]
					break;
 800562a:	e160      	b.n	80058ee <GPIO_VidPin_Mode+0x1932>
						else if(Copy_u8Mode==GPIO_Analog){Set_Bit(GPIO_E->MODER,GPIO_MODER_MODER_6_ANALOG);}
 800562c:	797b      	ldrb	r3, [r7, #5]
 800562e:	2b03      	cmp	r3, #3
 8005630:	d106      	bne.n	8005640 <GPIO_VidPin_Mode+0x1684>
 8005632:	4a19      	ldr	r2, [pc, #100]	; (8005698 <GPIO_VidPin_Mode+0x16dc>)
 8005634:	4b18      	ldr	r3, [pc, #96]	; (8005698 <GPIO_VidPin_Mode+0x16dc>)
 8005636:	681b      	ldr	r3, [r3, #0]
 8005638:	f443 5340 	orr.w	r3, r3, #12288	; 0x3000
 800563c:	6013      	str	r3, [r2, #0]
					break;
 800563e:	e156      	b.n	80058ee <GPIO_VidPin_Mode+0x1932>
						else{Clear_Bit(GPIO_E->MODER,GPIO_MODER_MODER_6_ANALOG);}
 8005640:	4a15      	ldr	r2, [pc, #84]	; (8005698 <GPIO_VidPin_Mode+0x16dc>)
 8005642:	4b15      	ldr	r3, [pc, #84]	; (8005698 <GPIO_VidPin_Mode+0x16dc>)
 8005644:	681b      	ldr	r3, [r3, #0]
 8005646:	f423 5340 	bic.w	r3, r3, #12288	; 0x3000
 800564a:	6013      	str	r3, [r2, #0]
					break;
 800564c:	e14f      	b.n	80058ee <GPIO_VidPin_Mode+0x1932>
				case (Pin_7):
						if(Copy_u8Mode==GPIO_Output){Set_Bit(GPIO_E->MODER,GPIO_MODER_MODER_7_OUTPUT);}
 800564e:	797b      	ldrb	r3, [r7, #5]
 8005650:	2b01      	cmp	r3, #1
 8005652:	d106      	bne.n	8005662 <GPIO_VidPin_Mode+0x16a6>
 8005654:	4a10      	ldr	r2, [pc, #64]	; (8005698 <GPIO_VidPin_Mode+0x16dc>)
 8005656:	4b10      	ldr	r3, [pc, #64]	; (8005698 <GPIO_VidPin_Mode+0x16dc>)
 8005658:	681b      	ldr	r3, [r3, #0]
 800565a:	f443 4380 	orr.w	r3, r3, #16384	; 0x4000
 800565e:	6013      	str	r3, [r2, #0]
						else if(Copy_u8Mode==GPIO_Alternate){Set_Bit(GPIO_E->MODER,GPIO_MODER_MODER_7_ALTERNATE);}
						else if(Copy_u8Mode==GPIO_Analog){Set_Bit(GPIO_E->MODER,GPIO_MODER_MODER_7_ANALOG);}
						else{Clear_Bit(GPIO_E->MODER,GPIO_MODER_MODER_7_ANALOG);}
					break;
 8005660:	e145      	b.n	80058ee <GPIO_VidPin_Mode+0x1932>
						else if(Copy_u8Mode==GPIO_Alternate){Set_Bit(GPIO_E->MODER,GPIO_MODER_MODER_7_ALTERNATE);}
 8005662:	797b      	ldrb	r3, [r7, #5]
 8005664:	2b02      	cmp	r3, #2
 8005666:	d106      	bne.n	8005676 <GPIO_VidPin_Mode+0x16ba>
 8005668:	4a0b      	ldr	r2, [pc, #44]	; (8005698 <GPIO_VidPin_Mode+0x16dc>)
 800566a:	4b0b      	ldr	r3, [pc, #44]	; (8005698 <GPIO_VidPin_Mode+0x16dc>)
 800566c:	681b      	ldr	r3, [r3, #0]
 800566e:	f443 4300 	orr.w	r3, r3, #32768	; 0x8000
 8005672:	6013      	str	r3, [r2, #0]
					break;
 8005674:	e13b      	b.n	80058ee <GPIO_VidPin_Mode+0x1932>
						else if(Copy_u8Mode==GPIO_Analog){Set_Bit(GPIO_E->MODER,GPIO_MODER_MODER_7_ANALOG);}
 8005676:	797b      	ldrb	r3, [r7, #5]
 8005678:	2b03      	cmp	r3, #3
 800567a:	d106      	bne.n	800568a <GPIO_VidPin_Mode+0x16ce>
 800567c:	4a06      	ldr	r2, [pc, #24]	; (8005698 <GPIO_VidPin_Mode+0x16dc>)
 800567e:	4b06      	ldr	r3, [pc, #24]	; (8005698 <GPIO_VidPin_Mode+0x16dc>)
 8005680:	681b      	ldr	r3, [r3, #0]
 8005682:	f443 4340 	orr.w	r3, r3, #49152	; 0xc000
 8005686:	6013      	str	r3, [r2, #0]
					break;
 8005688:	e131      	b.n	80058ee <GPIO_VidPin_Mode+0x1932>
						else{Clear_Bit(GPIO_E->MODER,GPIO_MODER_MODER_7_ANALOG);}
 800568a:	4a03      	ldr	r2, [pc, #12]	; (8005698 <GPIO_VidPin_Mode+0x16dc>)
 800568c:	4b02      	ldr	r3, [pc, #8]	; (8005698 <GPIO_VidPin_Mode+0x16dc>)
 800568e:	681b      	ldr	r3, [r3, #0]
 8005690:	f423 4340 	bic.w	r3, r3, #49152	; 0xc000
 8005694:	6013      	str	r3, [r2, #0]
					break;
 8005696:	e12a      	b.n	80058ee <GPIO_VidPin_Mode+0x1932>
 8005698:	40021000 	.word	0x40021000
				case (Pin_8):
						if(Copy_u8Mode==GPIO_Output){Set_Bit(GPIO_E->MODER,GPIO_MODER_MODER_8_OUTPUT);}
 800569c:	797b      	ldrb	r3, [r7, #5]
 800569e:	2b01      	cmp	r3, #1
 80056a0:	d106      	bne.n	80056b0 <GPIO_VidPin_Mode+0x16f4>
 80056a2:	4a96      	ldr	r2, [pc, #600]	; (80058fc <GPIO_VidPin_Mode+0x1940>)
 80056a4:	4b95      	ldr	r3, [pc, #596]	; (80058fc <GPIO_VidPin_Mode+0x1940>)
 80056a6:	681b      	ldr	r3, [r3, #0]
 80056a8:	f443 3380 	orr.w	r3, r3, #65536	; 0x10000
 80056ac:	6013      	str	r3, [r2, #0]
						else if(Copy_u8Mode==GPIO_Alternate){Set_Bit(GPIO_E->MODER,GPIO_MODER_MODER_8_ALTERNATE);}
						else if(Copy_u8Mode==GPIO_Analog){Set_Bit(GPIO_E->MODER,GPIO_MODER_MODER_8_ANALOG);}
						else{Clear_Bit(GPIO_E->MODER,GPIO_MODER_MODER_8_ANALOG);}
					break;
 80056ae:	e11e      	b.n	80058ee <GPIO_VidPin_Mode+0x1932>
						else if(Copy_u8Mode==GPIO_Alternate){Set_Bit(GPIO_E->MODER,GPIO_MODER_MODER_8_ALTERNATE);}
 80056b0:	797b      	ldrb	r3, [r7, #5]
 80056b2:	2b02      	cmp	r3, #2
 80056b4:	d106      	bne.n	80056c4 <GPIO_VidPin_Mode+0x1708>
 80056b6:	4a91      	ldr	r2, [pc, #580]	; (80058fc <GPIO_VidPin_Mode+0x1940>)
 80056b8:	4b90      	ldr	r3, [pc, #576]	; (80058fc <GPIO_VidPin_Mode+0x1940>)
 80056ba:	681b      	ldr	r3, [r3, #0]
 80056bc:	f443 3300 	orr.w	r3, r3, #131072	; 0x20000
 80056c0:	6013      	str	r3, [r2, #0]
					break;
 80056c2:	e114      	b.n	80058ee <GPIO_VidPin_Mode+0x1932>
						else if(Copy_u8Mode==GPIO_Analog){Set_Bit(GPIO_E->MODER,GPIO_MODER_MODER_8_ANALOG);}
 80056c4:	797b      	ldrb	r3, [r7, #5]
 80056c6:	2b03      	cmp	r3, #3
 80056c8:	d106      	bne.n	80056d8 <GPIO_VidPin_Mode+0x171c>
 80056ca:	4a8c      	ldr	r2, [pc, #560]	; (80058fc <GPIO_VidPin_Mode+0x1940>)
 80056cc:	4b8b      	ldr	r3, [pc, #556]	; (80058fc <GPIO_VidPin_Mode+0x1940>)
 80056ce:	681b      	ldr	r3, [r3, #0]
 80056d0:	f443 3340 	orr.w	r3, r3, #196608	; 0x30000
 80056d4:	6013      	str	r3, [r2, #0]
					break;
 80056d6:	e10a      	b.n	80058ee <GPIO_VidPin_Mode+0x1932>
						else{Clear_Bit(GPIO_E->MODER,GPIO_MODER_MODER_8_ANALOG);}
 80056d8:	4a88      	ldr	r2, [pc, #544]	; (80058fc <GPIO_VidPin_Mode+0x1940>)
 80056da:	4b88      	ldr	r3, [pc, #544]	; (80058fc <GPIO_VidPin_Mode+0x1940>)
 80056dc:	681b      	ldr	r3, [r3, #0]
 80056de:	f423 3340 	bic.w	r3, r3, #196608	; 0x30000
 80056e2:	6013      	str	r3, [r2, #0]
					break;
 80056e4:	e103      	b.n	80058ee <GPIO_VidPin_Mode+0x1932>
				case (Pin_9):
						if(Copy_u8Mode==GPIO_Output){Set_Bit(GPIO_E->MODER,GPIO_MODER_MODER_9_OUTPUT);}
 80056e6:	797b      	ldrb	r3, [r7, #5]
 80056e8:	2b01      	cmp	r3, #1
 80056ea:	d106      	bne.n	80056fa <GPIO_VidPin_Mode+0x173e>
 80056ec:	4a83      	ldr	r2, [pc, #524]	; (80058fc <GPIO_VidPin_Mode+0x1940>)
 80056ee:	4b83      	ldr	r3, [pc, #524]	; (80058fc <GPIO_VidPin_Mode+0x1940>)
 80056f0:	681b      	ldr	r3, [r3, #0]
 80056f2:	f443 2380 	orr.w	r3, r3, #262144	; 0x40000
 80056f6:	6013      	str	r3, [r2, #0]
						else if(Copy_u8Mode==GPIO_Alternate){Set_Bit(GPIO_E->MODER,GPIO_MODER_MODER_9_ALTERNATE);}
						else if(Copy_u8Mode==GPIO_Analog){Set_Bit(GPIO_E->MODER,GPIO_MODER_MODER_9_ANALOG);}
						else{Clear_Bit(GPIO_E->MODER,GPIO_MODER_MODER_9_ANALOG);}
					break;
 80056f8:	e0f9      	b.n	80058ee <GPIO_VidPin_Mode+0x1932>
						else if(Copy_u8Mode==GPIO_Alternate){Set_Bit(GPIO_E->MODER,GPIO_MODER_MODER_9_ALTERNATE);}
 80056fa:	797b      	ldrb	r3, [r7, #5]
 80056fc:	2b02      	cmp	r3, #2
 80056fe:	d106      	bne.n	800570e <GPIO_VidPin_Mode+0x1752>
 8005700:	4a7e      	ldr	r2, [pc, #504]	; (80058fc <GPIO_VidPin_Mode+0x1940>)
 8005702:	4b7e      	ldr	r3, [pc, #504]	; (80058fc <GPIO_VidPin_Mode+0x1940>)
 8005704:	681b      	ldr	r3, [r3, #0]
 8005706:	f443 2300 	orr.w	r3, r3, #524288	; 0x80000
 800570a:	6013      	str	r3, [r2, #0]
					break;
 800570c:	e0ef      	b.n	80058ee <GPIO_VidPin_Mode+0x1932>
						else if(Copy_u8Mode==GPIO_Analog){Set_Bit(GPIO_E->MODER,GPIO_MODER_MODER_9_ANALOG);}
 800570e:	797b      	ldrb	r3, [r7, #5]
 8005710:	2b03      	cmp	r3, #3
 8005712:	d106      	bne.n	8005722 <GPIO_VidPin_Mode+0x1766>
 8005714:	4a79      	ldr	r2, [pc, #484]	; (80058fc <GPIO_VidPin_Mode+0x1940>)
 8005716:	4b79      	ldr	r3, [pc, #484]	; (80058fc <GPIO_VidPin_Mode+0x1940>)
 8005718:	681b      	ldr	r3, [r3, #0]
 800571a:	f443 2340 	orr.w	r3, r3, #786432	; 0xc0000
 800571e:	6013      	str	r3, [r2, #0]
					break;
 8005720:	e0e5      	b.n	80058ee <GPIO_VidPin_Mode+0x1932>
						else{Clear_Bit(GPIO_E->MODER,GPIO_MODER_MODER_9_ANALOG);}
 8005722:	4a76      	ldr	r2, [pc, #472]	; (80058fc <GPIO_VidPin_Mode+0x1940>)
 8005724:	4b75      	ldr	r3, [pc, #468]	; (80058fc <GPIO_VidPin_Mode+0x1940>)
 8005726:	681b      	ldr	r3, [r3, #0]
 8005728:	f423 2340 	bic.w	r3, r3, #786432	; 0xc0000
 800572c:	6013      	str	r3, [r2, #0]
					break;
 800572e:	e0de      	b.n	80058ee <GPIO_VidPin_Mode+0x1932>
				case (Pin_10):
						if(Copy_u8Mode==GPIO_Output){Set_Bit(GPIO_E->MODER,GPIO_MODER_MODER_10_OUTPUT);}
 8005730:	797b      	ldrb	r3, [r7, #5]
 8005732:	2b01      	cmp	r3, #1
 8005734:	d106      	bne.n	8005744 <GPIO_VidPin_Mode+0x1788>
 8005736:	4a71      	ldr	r2, [pc, #452]	; (80058fc <GPIO_VidPin_Mode+0x1940>)
 8005738:	4b70      	ldr	r3, [pc, #448]	; (80058fc <GPIO_VidPin_Mode+0x1940>)
 800573a:	681b      	ldr	r3, [r3, #0]
 800573c:	f443 1380 	orr.w	r3, r3, #1048576	; 0x100000
 8005740:	6013      	str	r3, [r2, #0]
						else if(Copy_u8Mode==GPIO_Alternate){Set_Bit(GPIO_E->MODER,GPIO_MODER_MODER_10_ALTERNATE);}
						else if(Copy_u8Mode==GPIO_Analog){Set_Bit(GPIO_E->MODER,GPIO_MODER_MODER_10_ANALOG);}
						else{Clear_Bit(GPIO_E->MODER,GPIO_MODER_MODER_10_ANALOG);}
					break;
 8005742:	e0d4      	b.n	80058ee <GPIO_VidPin_Mode+0x1932>
						else if(Copy_u8Mode==GPIO_Alternate){Set_Bit(GPIO_E->MODER,GPIO_MODER_MODER_10_ALTERNATE);}
 8005744:	797b      	ldrb	r3, [r7, #5]
 8005746:	2b02      	cmp	r3, #2
 8005748:	d106      	bne.n	8005758 <GPIO_VidPin_Mode+0x179c>
 800574a:	4a6c      	ldr	r2, [pc, #432]	; (80058fc <GPIO_VidPin_Mode+0x1940>)
 800574c:	4b6b      	ldr	r3, [pc, #428]	; (80058fc <GPIO_VidPin_Mode+0x1940>)
 800574e:	681b      	ldr	r3, [r3, #0]
 8005750:	f443 1300 	orr.w	r3, r3, #2097152	; 0x200000
 8005754:	6013      	str	r3, [r2, #0]
					break;
 8005756:	e0ca      	b.n	80058ee <GPIO_VidPin_Mode+0x1932>
						else if(Copy_u8Mode==GPIO_Analog){Set_Bit(GPIO_E->MODER,GPIO_MODER_MODER_10_ANALOG);}
 8005758:	797b      	ldrb	r3, [r7, #5]
 800575a:	2b03      	cmp	r3, #3
 800575c:	d106      	bne.n	800576c <GPIO_VidPin_Mode+0x17b0>
 800575e:	4a67      	ldr	r2, [pc, #412]	; (80058fc <GPIO_VidPin_Mode+0x1940>)
 8005760:	4b66      	ldr	r3, [pc, #408]	; (80058fc <GPIO_VidPin_Mode+0x1940>)
 8005762:	681b      	ldr	r3, [r3, #0]
 8005764:	f443 1340 	orr.w	r3, r3, #3145728	; 0x300000
 8005768:	6013      	str	r3, [r2, #0]
					break;
 800576a:	e0c0      	b.n	80058ee <GPIO_VidPin_Mode+0x1932>
						else{Clear_Bit(GPIO_E->MODER,GPIO_MODER_MODER_10_ANALOG);}
 800576c:	4a63      	ldr	r2, [pc, #396]	; (80058fc <GPIO_VidPin_Mode+0x1940>)
 800576e:	4b63      	ldr	r3, [pc, #396]	; (80058fc <GPIO_VidPin_Mode+0x1940>)
 8005770:	681b      	ldr	r3, [r3, #0]
 8005772:	f423 1340 	bic.w	r3, r3, #3145728	; 0x300000
 8005776:	6013      	str	r3, [r2, #0]
					break;
 8005778:	e0b9      	b.n	80058ee <GPIO_VidPin_Mode+0x1932>
				case (Pin_11):
						if(Copy_u8Mode==GPIO_Output){Set_Bit(GPIO_E->MODER,GPIO_MODER_MODER_11_OUTPUT);}
 800577a:	797b      	ldrb	r3, [r7, #5]
 800577c:	2b01      	cmp	r3, #1
 800577e:	d106      	bne.n	800578e <GPIO_VidPin_Mode+0x17d2>
 8005780:	4a5e      	ldr	r2, [pc, #376]	; (80058fc <GPIO_VidPin_Mode+0x1940>)
 8005782:	4b5e      	ldr	r3, [pc, #376]	; (80058fc <GPIO_VidPin_Mode+0x1940>)
 8005784:	681b      	ldr	r3, [r3, #0]
 8005786:	f443 0380 	orr.w	r3, r3, #4194304	; 0x400000
 800578a:	6013      	str	r3, [r2, #0]
						else if(Copy_u8Mode==GPIO_Alternate){Set_Bit(GPIO_E->MODER,GPIO_MODER_MODER_11_ALTERNATE);}
						else if(Copy_u8Mode==GPIO_Analog){Set_Bit(GPIO_E->MODER,GPIO_MODER_MODER_11_ANALOG);}
						else{Clear_Bit(GPIO_E->MODER,GPIO_MODER_MODER_11_ANALOG);}
					break;
 800578c:	e0af      	b.n	80058ee <GPIO_VidPin_Mode+0x1932>
						else if(Copy_u8Mode==GPIO_Alternate){Set_Bit(GPIO_E->MODER,GPIO_MODER_MODER_11_ALTERNATE);}
 800578e:	797b      	ldrb	r3, [r7, #5]
 8005790:	2b02      	cmp	r3, #2
 8005792:	d106      	bne.n	80057a2 <GPIO_VidPin_Mode+0x17e6>
 8005794:	4a59      	ldr	r2, [pc, #356]	; (80058fc <GPIO_VidPin_Mode+0x1940>)
 8005796:	4b59      	ldr	r3, [pc, #356]	; (80058fc <GPIO_VidPin_Mode+0x1940>)
 8005798:	681b      	ldr	r3, [r3, #0]
 800579a:	f443 0300 	orr.w	r3, r3, #8388608	; 0x800000
 800579e:	6013      	str	r3, [r2, #0]
					break;
 80057a0:	e0a5      	b.n	80058ee <GPIO_VidPin_Mode+0x1932>
						else if(Copy_u8Mode==GPIO_Analog){Set_Bit(GPIO_E->MODER,GPIO_MODER_MODER_11_ANALOG);}
 80057a2:	797b      	ldrb	r3, [r7, #5]
 80057a4:	2b03      	cmp	r3, #3
 80057a6:	d106      	bne.n	80057b6 <GPIO_VidPin_Mode+0x17fa>
 80057a8:	4a54      	ldr	r2, [pc, #336]	; (80058fc <GPIO_VidPin_Mode+0x1940>)
 80057aa:	4b54      	ldr	r3, [pc, #336]	; (80058fc <GPIO_VidPin_Mode+0x1940>)
 80057ac:	681b      	ldr	r3, [r3, #0]
 80057ae:	f443 0340 	orr.w	r3, r3, #12582912	; 0xc00000
 80057b2:	6013      	str	r3, [r2, #0]
					break;
 80057b4:	e09b      	b.n	80058ee <GPIO_VidPin_Mode+0x1932>
						else{Clear_Bit(GPIO_E->MODER,GPIO_MODER_MODER_11_ANALOG);}
 80057b6:	4a51      	ldr	r2, [pc, #324]	; (80058fc <GPIO_VidPin_Mode+0x1940>)
 80057b8:	4b50      	ldr	r3, [pc, #320]	; (80058fc <GPIO_VidPin_Mode+0x1940>)
 80057ba:	681b      	ldr	r3, [r3, #0]
 80057bc:	f423 0340 	bic.w	r3, r3, #12582912	; 0xc00000
 80057c0:	6013      	str	r3, [r2, #0]
					break;
 80057c2:	e094      	b.n	80058ee <GPIO_VidPin_Mode+0x1932>
				case (Pin_12):
						if(Copy_u8Mode==GPIO_Output){Set_Bit(GPIO_E->MODER,GPIO_MODER_MODER_12_OUTPUT);}
 80057c4:	797b      	ldrb	r3, [r7, #5]
 80057c6:	2b01      	cmp	r3, #1
 80057c8:	d106      	bne.n	80057d8 <GPIO_VidPin_Mode+0x181c>
 80057ca:	4a4c      	ldr	r2, [pc, #304]	; (80058fc <GPIO_VidPin_Mode+0x1940>)
 80057cc:	4b4b      	ldr	r3, [pc, #300]	; (80058fc <GPIO_VidPin_Mode+0x1940>)
 80057ce:	681b      	ldr	r3, [r3, #0]
 80057d0:	f043 7380 	orr.w	r3, r3, #16777216	; 0x1000000
 80057d4:	6013      	str	r3, [r2, #0]
						else if(Copy_u8Mode==GPIO_Alternate){Set_Bit(GPIO_E->MODER,GPIO_MODER_MODER_12_ALTERNATE);}
						else if(Copy_u8Mode==GPIO_Analog){Set_Bit(GPIO_E->MODER,GPIO_MODER_MODER_12_ANALOG);}
						else{Clear_Bit(GPIO_E->MODER,GPIO_MODER_MODER_12_ANALOG);}
					break;
 80057d6:	e08a      	b.n	80058ee <GPIO_VidPin_Mode+0x1932>
						else if(Copy_u8Mode==GPIO_Alternate){Set_Bit(GPIO_E->MODER,GPIO_MODER_MODER_12_ALTERNATE);}
 80057d8:	797b      	ldrb	r3, [r7, #5]
 80057da:	2b02      	cmp	r3, #2
 80057dc:	d106      	bne.n	80057ec <GPIO_VidPin_Mode+0x1830>
 80057de:	4a47      	ldr	r2, [pc, #284]	; (80058fc <GPIO_VidPin_Mode+0x1940>)
 80057e0:	4b46      	ldr	r3, [pc, #280]	; (80058fc <GPIO_VidPin_Mode+0x1940>)
 80057e2:	681b      	ldr	r3, [r3, #0]
 80057e4:	f043 7300 	orr.w	r3, r3, #33554432	; 0x2000000
 80057e8:	6013      	str	r3, [r2, #0]
					break;
 80057ea:	e080      	b.n	80058ee <GPIO_VidPin_Mode+0x1932>
						else if(Copy_u8Mode==GPIO_Analog){Set_Bit(GPIO_E->MODER,GPIO_MODER_MODER_12_ANALOG);}
 80057ec:	797b      	ldrb	r3, [r7, #5]
 80057ee:	2b03      	cmp	r3, #3
 80057f0:	d106      	bne.n	8005800 <GPIO_VidPin_Mode+0x1844>
 80057f2:	4a42      	ldr	r2, [pc, #264]	; (80058fc <GPIO_VidPin_Mode+0x1940>)
 80057f4:	4b41      	ldr	r3, [pc, #260]	; (80058fc <GPIO_VidPin_Mode+0x1940>)
 80057f6:	681b      	ldr	r3, [r3, #0]
 80057f8:	f043 7340 	orr.w	r3, r3, #50331648	; 0x3000000
 80057fc:	6013      	str	r3, [r2, #0]
					break;
 80057fe:	e076      	b.n	80058ee <GPIO_VidPin_Mode+0x1932>
						else{Clear_Bit(GPIO_E->MODER,GPIO_MODER_MODER_12_ANALOG);}
 8005800:	4a3e      	ldr	r2, [pc, #248]	; (80058fc <GPIO_VidPin_Mode+0x1940>)
 8005802:	4b3e      	ldr	r3, [pc, #248]	; (80058fc <GPIO_VidPin_Mode+0x1940>)
 8005804:	681b      	ldr	r3, [r3, #0]
 8005806:	f023 7340 	bic.w	r3, r3, #50331648	; 0x3000000
 800580a:	6013      	str	r3, [r2, #0]
					break;
 800580c:	e06f      	b.n	80058ee <GPIO_VidPin_Mode+0x1932>
				case (Pin_13):
						if(Copy_u8Mode==GPIO_Output){Set_Bit(GPIO_E->MODER,GPIO_MODER_MODER_13_OUTPUT);}
 800580e:	797b      	ldrb	r3, [r7, #5]
 8005810:	2b01      	cmp	r3, #1
 8005812:	d106      	bne.n	8005822 <GPIO_VidPin_Mode+0x1866>
 8005814:	4a39      	ldr	r2, [pc, #228]	; (80058fc <GPIO_VidPin_Mode+0x1940>)
 8005816:	4b39      	ldr	r3, [pc, #228]	; (80058fc <GPIO_VidPin_Mode+0x1940>)
 8005818:	681b      	ldr	r3, [r3, #0]
 800581a:	f043 6380 	orr.w	r3, r3, #67108864	; 0x4000000
 800581e:	6013      	str	r3, [r2, #0]
						else if(Copy_u8Mode==GPIO_Alternate){Set_Bit(GPIO_E->MODER,GPIO_MODER_MODER_13_ALTERNATE);}
						else if(Copy_u8Mode==GPIO_Analog){Set_Bit(GPIO_E->MODER,GPIO_MODER_MODER_13_ANALOG);}
						else{Clear_Bit(GPIO_E->MODER,GPIO_MODER_MODER_13_ANALOG);}
					break;
 8005820:	e065      	b.n	80058ee <GPIO_VidPin_Mode+0x1932>
						else if(Copy_u8Mode==GPIO_Alternate){Set_Bit(GPIO_E->MODER,GPIO_MODER_MODER_13_ALTERNATE);}
 8005822:	797b      	ldrb	r3, [r7, #5]
 8005824:	2b02      	cmp	r3, #2
 8005826:	d106      	bne.n	8005836 <GPIO_VidPin_Mode+0x187a>
 8005828:	4a34      	ldr	r2, [pc, #208]	; (80058fc <GPIO_VidPin_Mode+0x1940>)
 800582a:	4b34      	ldr	r3, [pc, #208]	; (80058fc <GPIO_VidPin_Mode+0x1940>)
 800582c:	681b      	ldr	r3, [r3, #0]
 800582e:	f043 6300 	orr.w	r3, r3, #134217728	; 0x8000000
 8005832:	6013      	str	r3, [r2, #0]
					break;
 8005834:	e05b      	b.n	80058ee <GPIO_VidPin_Mode+0x1932>
						else if(Copy_u8Mode==GPIO_Analog){Set_Bit(GPIO_E->MODER,GPIO_MODER_MODER_13_ANALOG);}
 8005836:	797b      	ldrb	r3, [r7, #5]
 8005838:	2b03      	cmp	r3, #3
 800583a:	d106      	bne.n	800584a <GPIO_VidPin_Mode+0x188e>
 800583c:	4a2f      	ldr	r2, [pc, #188]	; (80058fc <GPIO_VidPin_Mode+0x1940>)
 800583e:	4b2f      	ldr	r3, [pc, #188]	; (80058fc <GPIO_VidPin_Mode+0x1940>)
 8005840:	681b      	ldr	r3, [r3, #0]
 8005842:	f043 6340 	orr.w	r3, r3, #201326592	; 0xc000000
 8005846:	6013      	str	r3, [r2, #0]
					break;
 8005848:	e051      	b.n	80058ee <GPIO_VidPin_Mode+0x1932>
						else{Clear_Bit(GPIO_E->MODER,GPIO_MODER_MODER_13_ANALOG);}
 800584a:	4a2c      	ldr	r2, [pc, #176]	; (80058fc <GPIO_VidPin_Mode+0x1940>)
 800584c:	4b2b      	ldr	r3, [pc, #172]	; (80058fc <GPIO_VidPin_Mode+0x1940>)
 800584e:	681b      	ldr	r3, [r3, #0]
 8005850:	f023 6340 	bic.w	r3, r3, #201326592	; 0xc000000
 8005854:	6013      	str	r3, [r2, #0]
					break;
 8005856:	e04a      	b.n	80058ee <GPIO_VidPin_Mode+0x1932>
				case (Pin_14):
						if(Copy_u8Mode==GPIO_Output){Set_Bit(GPIO_E->MODER,GPIO_MODER_MODER_14_OUTPUT);}
 8005858:	797b      	ldrb	r3, [r7, #5]
 800585a:	2b01      	cmp	r3, #1
 800585c:	d106      	bne.n	800586c <GPIO_VidPin_Mode+0x18b0>
 800585e:	4a27      	ldr	r2, [pc, #156]	; (80058fc <GPIO_VidPin_Mode+0x1940>)
 8005860:	4b26      	ldr	r3, [pc, #152]	; (80058fc <GPIO_VidPin_Mode+0x1940>)
 8005862:	681b      	ldr	r3, [r3, #0]
 8005864:	f043 5380 	orr.w	r3, r3, #268435456	; 0x10000000
 8005868:	6013      	str	r3, [r2, #0]
						else if(Copy_u8Mode==GPIO_Alternate){Set_Bit(GPIO_E->MODER,GPIO_MODER_MODER_14_ALTERNATE);}
						else if(Copy_u8Mode==GPIO_Analog){Set_Bit(GPIO_E->MODER,GPIO_MODER_MODER_14_ANALOG);}
						else{Clear_Bit(GPIO_E->MODER,GPIO_MODER_MODER_14_ANALOG);}
					break;
 800586a:	e040      	b.n	80058ee <GPIO_VidPin_Mode+0x1932>
						else if(Copy_u8Mode==GPIO_Alternate){Set_Bit(GPIO_E->MODER,GPIO_MODER_MODER_14_ALTERNATE);}
 800586c:	797b      	ldrb	r3, [r7, #5]
 800586e:	2b02      	cmp	r3, #2
 8005870:	d106      	bne.n	8005880 <GPIO_VidPin_Mode+0x18c4>
 8005872:	4a22      	ldr	r2, [pc, #136]	; (80058fc <GPIO_VidPin_Mode+0x1940>)
 8005874:	4b21      	ldr	r3, [pc, #132]	; (80058fc <GPIO_VidPin_Mode+0x1940>)
 8005876:	681b      	ldr	r3, [r3, #0]
 8005878:	f043 5300 	orr.w	r3, r3, #536870912	; 0x20000000
 800587c:	6013      	str	r3, [r2, #0]
					break;
 800587e:	e036      	b.n	80058ee <GPIO_VidPin_Mode+0x1932>
						else if(Copy_u8Mode==GPIO_Analog){Set_Bit(GPIO_E->MODER,GPIO_MODER_MODER_14_ANALOG);}
 8005880:	797b      	ldrb	r3, [r7, #5]
 8005882:	2b03      	cmp	r3, #3
 8005884:	d106      	bne.n	8005894 <GPIO_VidPin_Mode+0x18d8>
 8005886:	4a1d      	ldr	r2, [pc, #116]	; (80058fc <GPIO_VidPin_Mode+0x1940>)
 8005888:	4b1c      	ldr	r3, [pc, #112]	; (80058fc <GPIO_VidPin_Mode+0x1940>)
 800588a:	681b      	ldr	r3, [r3, #0]
 800588c:	f043 5340 	orr.w	r3, r3, #805306368	; 0x30000000
 8005890:	6013      	str	r3, [r2, #0]
					break;
 8005892:	e02c      	b.n	80058ee <GPIO_VidPin_Mode+0x1932>
						else{Clear_Bit(GPIO_E->MODER,GPIO_MODER_MODER_14_ANALOG);}
 8005894:	4a19      	ldr	r2, [pc, #100]	; (80058fc <GPIO_VidPin_Mode+0x1940>)
 8005896:	4b19      	ldr	r3, [pc, #100]	; (80058fc <GPIO_VidPin_Mode+0x1940>)
 8005898:	681b      	ldr	r3, [r3, #0]
 800589a:	f023 5340 	bic.w	r3, r3, #805306368	; 0x30000000
 800589e:	6013      	str	r3, [r2, #0]
					break;
 80058a0:	e025      	b.n	80058ee <GPIO_VidPin_Mode+0x1932>
				case (Pin_15):
						if(Copy_u8Mode==GPIO_Output){Set_Bit(GPIO_E->MODER,GPIO_MODER_MODER_15_OUTPUT);}
 80058a2:	797b      	ldrb	r3, [r7, #5]
 80058a4:	2b01      	cmp	r3, #1
 80058a6:	d106      	bne.n	80058b6 <GPIO_VidPin_Mode+0x18fa>
 80058a8:	4a14      	ldr	r2, [pc, #80]	; (80058fc <GPIO_VidPin_Mode+0x1940>)
 80058aa:	4b14      	ldr	r3, [pc, #80]	; (80058fc <GPIO_VidPin_Mode+0x1940>)
 80058ac:	681b      	ldr	r3, [r3, #0]
 80058ae:	f043 4380 	orr.w	r3, r3, #1073741824	; 0x40000000
 80058b2:	6013      	str	r3, [r2, #0]
						else if(Copy_u8Mode==GPIO_Alternate){Set_Bit(GPIO_E->MODER,GPIO_MODER_MODER_15_ALTERNATE);}
						else if(Copy_u8Mode==GPIO_Analog){Set_Bit(GPIO_E->MODER,GPIO_MODER_MODER_15_ANALOG);}
						else{Clear_Bit(GPIO_E->MODER,GPIO_MODER_MODER_15_ANALOG);}
					break;
 80058b4:	e01b      	b.n	80058ee <GPIO_VidPin_Mode+0x1932>
						else if(Copy_u8Mode==GPIO_Alternate){Set_Bit(GPIO_E->MODER,GPIO_MODER_MODER_15_ALTERNATE);}
 80058b6:	797b      	ldrb	r3, [r7, #5]
 80058b8:	2b02      	cmp	r3, #2
 80058ba:	d106      	bne.n	80058ca <GPIO_VidPin_Mode+0x190e>
 80058bc:	4a0f      	ldr	r2, [pc, #60]	; (80058fc <GPIO_VidPin_Mode+0x1940>)
 80058be:	4b0f      	ldr	r3, [pc, #60]	; (80058fc <GPIO_VidPin_Mode+0x1940>)
 80058c0:	681b      	ldr	r3, [r3, #0]
 80058c2:	f043 4300 	orr.w	r3, r3, #2147483648	; 0x80000000
 80058c6:	6013      	str	r3, [r2, #0]
					break;
 80058c8:	e011      	b.n	80058ee <GPIO_VidPin_Mode+0x1932>
						else if(Copy_u8Mode==GPIO_Analog){Set_Bit(GPIO_E->MODER,GPIO_MODER_MODER_15_ANALOG);}
 80058ca:	797b      	ldrb	r3, [r7, #5]
 80058cc:	2b03      	cmp	r3, #3
 80058ce:	d106      	bne.n	80058de <GPIO_VidPin_Mode+0x1922>
 80058d0:	4a0a      	ldr	r2, [pc, #40]	; (80058fc <GPIO_VidPin_Mode+0x1940>)
 80058d2:	4b0a      	ldr	r3, [pc, #40]	; (80058fc <GPIO_VidPin_Mode+0x1940>)
 80058d4:	681b      	ldr	r3, [r3, #0]
 80058d6:	f043 4340 	orr.w	r3, r3, #3221225472	; 0xc0000000
 80058da:	6013      	str	r3, [r2, #0]
					break;
 80058dc:	e007      	b.n	80058ee <GPIO_VidPin_Mode+0x1932>
						else{Clear_Bit(GPIO_E->MODER,GPIO_MODER_MODER_15_ANALOG);}
 80058de:	4a07      	ldr	r2, [pc, #28]	; (80058fc <GPIO_VidPin_Mode+0x1940>)
 80058e0:	4b06      	ldr	r3, [pc, #24]	; (80058fc <GPIO_VidPin_Mode+0x1940>)
 80058e2:	681b      	ldr	r3, [r3, #0]
 80058e4:	f023 4340 	bic.w	r3, r3, #3221225472	; 0xc0000000
 80058e8:	6013      	str	r3, [r2, #0]
					break;
 80058ea:	e000      	b.n	80058ee <GPIO_VidPin_Mode+0x1932>
				default:break;
 80058ec:	bf00      	nop
			}
			break;
 80058ee:	e000      	b.n	80058f2 <GPIO_VidPin_Mode+0x1936>
		default:break;
 80058f0:	bf00      	nop
	}
}
 80058f2:	bf00      	nop
 80058f4:	3708      	adds	r7, #8
 80058f6:	46bd      	mov	sp, r7
 80058f8:	bd80      	pop	{r7, pc}
 80058fa:	bf00      	nop
 80058fc:	40021000 	.word	0x40021000

08005900 <__libc_init_array>:
 8005900:	b570      	push	{r4, r5, r6, lr}
 8005902:	4e0d      	ldr	r6, [pc, #52]	; (8005938 <__libc_init_array+0x38>)
 8005904:	4c0d      	ldr	r4, [pc, #52]	; (800593c <__libc_init_array+0x3c>)
 8005906:	1ba4      	subs	r4, r4, r6
 8005908:	10a4      	asrs	r4, r4, #2
 800590a:	2500      	movs	r5, #0
 800590c:	42a5      	cmp	r5, r4
 800590e:	d109      	bne.n	8005924 <__libc_init_array+0x24>
 8005910:	4e0b      	ldr	r6, [pc, #44]	; (8005940 <__libc_init_array+0x40>)
 8005912:	4c0c      	ldr	r4, [pc, #48]	; (8005944 <__libc_init_array+0x44>)
 8005914:	f000 f818 	bl	8005948 <_init>
 8005918:	1ba4      	subs	r4, r4, r6
 800591a:	10a4      	asrs	r4, r4, #2
 800591c:	2500      	movs	r5, #0
 800591e:	42a5      	cmp	r5, r4
 8005920:	d105      	bne.n	800592e <__libc_init_array+0x2e>
 8005922:	bd70      	pop	{r4, r5, r6, pc}
 8005924:	f856 3025 	ldr.w	r3, [r6, r5, lsl #2]
 8005928:	4798      	blx	r3
 800592a:	3501      	adds	r5, #1
 800592c:	e7ee      	b.n	800590c <__libc_init_array+0xc>
 800592e:	f856 3025 	ldr.w	r3, [r6, r5, lsl #2]
 8005932:	4798      	blx	r3
 8005934:	3501      	adds	r5, #1
 8005936:	e7f2      	b.n	800591e <__libc_init_array+0x1e>
 8005938:	08005960 	.word	0x08005960
 800593c:	08005960 	.word	0x08005960
 8005940:	08005960 	.word	0x08005960
 8005944:	08005964 	.word	0x08005964

08005948 <_init>:
 8005948:	b5f8      	push	{r3, r4, r5, r6, r7, lr}
 800594a:	bf00      	nop
 800594c:	bcf8      	pop	{r3, r4, r5, r6, r7}
 800594e:	bc08      	pop	{r3}
 8005950:	469e      	mov	lr, r3
 8005952:	4770      	bx	lr

08005954 <_fini>:
 8005954:	b5f8      	push	{r3, r4, r5, r6, r7, lr}
 8005956:	bf00      	nop
 8005958:	bcf8      	pop	{r3, r4, r5, r6, r7}
 800595a:	bc08      	pop	{r3}
 800595c:	469e      	mov	lr, r3
 800595e:	4770      	bx	lr
